# ffmpeg -f lavfi -i sine -f lavfi -i testsrc -g 1 -c:a aac -c:v h264 -f mp4 -movflags +frag_keyframe+empty_moov -t 100ms fragmented.mp4
$ fq -d mp4 dv fragmented.mp4
      |00 01 02 03 04 05 06 07 08 09 0a 0b 0c 0d 0e 0f|0123456789abcdef|.{}: fragmented.mp4 (mp4) 0x0-0x2b8d (11149)
      |                                               |                |  boxes[0:9]: 0x0-0x2b8d (11149)
      |                                               |                |    [0]{}: box 0x0-0x24 (36)
0x0000|00 00 00 24                                    |...$            |      size: 36 0x0-0x4 (4)
0x0000|            66 74 79 70                        |    ftyp        |      type: "ftyp" (File type and compatibility) 0x4-0x8 (4)
0x0000|                        69 73 6f 6d            |        isom    |      major_brand: "isom" 0x8-0xc (4)
0x0000|                                    00 00 02 00|            ....|      minor_version: 512 0xc-0x10 (4)
      |                                               |                |      brands[0:5]: 0x10-0x24 (20)
0x0010|69 73 6f 6d                                    |isom            |        [0]: "isom" brand (All files based on the ISO Base Media File Format) 0x10-0x14 (4)
0x0010|            69 73 6f 36                        |    iso6        |        [1]: "iso6" brand (Version of the ISO file format) 0x14-0x18 (4)
0x0010|                        69 73 6f 32            |        iso2    |        [2]: "iso2" brand (All files based on the 2004 edition of the ISO file format) 0x18-0x1c (4)
0x0010|                                    61 76 63 31|            avc1|        [3]: "avc1" brand (Advanced Video Coding extensions) 0x1c-0x20 (4)
0x0020|6d 70 34 31                                    |mp41            |        [4]: "mp41" brand (MP4 version 1) 0x20-0x24 (4)
      |                                               |                |    [1]{}: box 0x24-0x4ec (1224)
0x0020|            00 00 04 c8                        |    ....        |      size: 1224 0x24-0x28 (4)
0x0020|                        6d 6f 6f 76            |        moov    |      type: "moov" (Container for all the meta-data) 0x28-0x2c (4)
      |                                               |                |      boxes[0:5]: 0x2c-0x4ec (1216)
      |                                               |                |        [0]{}: box 0x2c-0x98 (108)
0x0020|                                    00 00 00 6c|            ...l|          size: 108 0x2c-0x30 (4)
0x0030|6d 76 68 64                                    |mvhd            |          type: "mvhd" (Movie header, overall declarations) 0x30-0x34 (4)
0x0030|            00                                 |    .           |          version: 0 0x34-0x35 (1)
0x0030|               00 00 00                        |     ...        |          flags: 0 0x35-0x38 (3)
0x0030|                        00 00 00 00            |        ....    |          creation_time: 0 (1904-01-01T00:00:00Z) 0x38-0x3c (4)
0x0030|                                    00 00 00 00|            ....|          modification_time: 0 (1904-01-01T00:00:00Z) 0x3c-0x40 (4)
0x0040|00 00 ac 44                                    |...D            |          time_scale: 44100 0x40-0x44 (4)
0x0040|            00 00 00 00                        |    ....        |          duration: 0 0x44-0x48 (4)
0x0040|                        00 01 00 00            |        ....    |          preferred_rate: 1 0x48-0x4c (4)
0x0040|                                    01 00      |            ..  |          preferred_volume: 1 0x4c-0x4e (2)
0x0040|                                          00 00|              ..|          reserved: "\x00\x00\x00\x00\x00\x00\x00\x00\x00\x00" 0x4e-0x58 (10)
0x0050|00 00 00 00 00 00 00 00                        |........        |
      |                                               |                |          matrix_structure{}: 0x58-0x7c (36)
0x0050|                        00 01 00 00            |        ....    |            a: 1 0x58-0x5c (4)
0x0050|                                    00 00 00 00|            ....|            b: 0 0x5c-0x60 (4)
0x0060|00 00 00 00                                    |....            |            u: 0 0x60-0x64 (4)
0x0060|            00 00 00 00                        |    ....        |            c: 0 0x64-0x68 (4)
0x0060|                        00 01 00 00            |        ....    |            d: 1 0x68-0x6c (4)
0x0060|                                    00 00 00 00|            ....|            v: 0 0x6c-0x70 (4)
0x0070|00 00 00 00                                    |....            |            x: 0 0x70-0x74 (4)
0x0070|            00 00 00 00                        |    ....        |            y: 0 0x74-0x78 (4)
0x0070|                        40 00 00 00            |        @...    |            w: 1 0x78-0x7c (4)
0x0070|                                    00 00 00 00|            ....|          preview_time: 0 0x7c-0x80 (4)
0x0080|00 00 00 00                                    |....            |          preview_duration: 0 0x80-0x84 (4)
0x0080|            00 00 00 00                        |    ....        |          poster_time: 0 0x84-0x88 (4)
0x0080|                        00 00 00 00            |        ....    |          selection_time: 0 0x88-0x8c (4)
0x0080|                                    00 00 00 00|            ....|          selection_duration: 0 0x8c-0x90 (4)
0x0090|00 00 00 00                                    |....            |          current_time: 0 0x90-0x94 (4)
0x0090|            00 00 00 02                        |    ....        |          next_track_id: 2 0x94-0x98 (4)
      |                                               |                |        [1]{}: box 0x98-0x284 (492)
0x0090|                        00 00 01 ec            |        ....    |          size: 492 0x98-0x9c (4)
0x0090|                                    74 72 61 6b|            trak|          type: "trak" (Container for an individual track or stream) 0x9c-0xa0 (4)
      |                                               |                |          boxes[0:2]: 0xa0-0x284 (484)
      |                                               |                |            [0]{}: box 0xa0-0xfc (92)
0x00a0|00 00 00 5c                                    |...\            |              size: 92 0xa0-0xa4 (4)
0x00a0|            74 6b 68 64                        |    tkhd        |              type: "tkhd" (Track header, overall information about the track) 0xa4-0xa8 (4)
0x00a0|                        00                     |        .       |              version: 0 0xa8-0xa9 (1)
      |                                               |                |              flags{}: 0xa9-0xac (3)
0x00a0|                           00 00 03            |         ...    |                unused: 0 0xa9-0xab.4 (2.4)
0x00a0|                                 03            |           .    |                size_is_aspect_ratio: false 0xab.4-0xab.5 (0.1)
0x00a0|                                 03            |           .    |                in_preview: false 0xab.5-0xab.6 (0.1)
0x00a0|                                 03            |           .    |                in_movie: true 0xab.6-0xab.7 (0.1)
0x00a0|                                 03            |           .    |                enabled: true 0xab.7-0xac (0.1)
0x00a0|                                    00 00 00 00|            ....|              creation_time: 0 (1904-01-01T00:00:00Z) 0xac-0xb0 (4)
0x00b0|00 00 00 00                                    |....            |              modification_time: 0 (1904-01-01T00:00:00Z) 0xb0-0xb4 (4)
0x00b0|            00 00 00 01                        |    ....        |              track_id: 1 0xb4-0xb8 (4)
0x00b0|                        00 00 00 00            |        ....    |              reserved1: 0 0xb8-0xbc (4)
0x00b0|                                    00 00 00 00|            ....|              duration: 0 0xbc-0xc0 (4)
0x00c0|00 00 00 00 00 00 00 00                        |........        |              reserved2: raw bits 0xc0-0xc8 (8)
0x00c0|                        00 00                  |        ..      |              layer: 0 0xc8-0xca (2)
0x00c0|                              00 00            |          ..    |              alternate_group: 0 0xca-0xcc (2)
0x00c0|                                    00 00      |            ..  |              volume: 0 0xcc-0xce (2)
0x00c0|                                          00 00|              ..|              reserved3: 0 0xce-0xd0 (2)
      |                                               |                |              matrix_structure{}: 0xd0-0xf4 (36)
0x00d0|00 01 00 00                                    |....            |                a: 1 0xd0-0xd4 (4)
0x00d0|            00 00 00 00                        |    ....        |                b: 0 0xd4-0xd8 (4)
0x00d0|                        00 00 00 00            |        ....    |                u: 0 0xd8-0xdc (4)
0x00d0|                                    00 00 00 00|            ....|                c: 0 0xdc-0xe0 (4)
0x00e0|00 01 00 00                                    |....            |                d: 1 0xe0-0xe4 (4)
0x00e0|            00 00 00 00                        |    ....        |                v: 0 0xe4-0xe8 (4)
0x00e0|                        00 00 00 00            |        ....    |                x: 0 0xe8-0xec (4)
0x00e0|                                    00 00 00 00|            ....|                y: 0 0xec-0xf0 (4)
0x00f0|40 00 00 00                                    |@...            |                w: 1 0xf0-0xf4 (4)
0x00f0|            01 40 00 00                        |    .@..        |              track_width: 320 0xf4-0xf8 (4)
0x00f0|                        00 f0 00 00            |        ....    |              track_height: 240 0xf8-0xfc (4)
      |                                               |                |            [1]{}: box 0xfc-0x284 (392)
0x00f0|                                    00 00 01 88|            ....|              size: 392 0xfc-0x100 (4)
0x0100|6d 64 69 61                                    |mdia            |              type: "mdia" (Container for the media information in a track) 0x100-0x104 (4)
      |                                               |                |              boxes[0:3]: 0x104-0x284 (384)
      |                                               |                |                [0]{}: box 0x104-0x124 (32)
0x0100|            00 00 00 20                        |    ...         |                  size: 32 0x104-0x108 (4)
0x0100|                        6d 64 68 64            |        mdhd    |                  type: "mdhd" (Media header, overall information about the media) 0x108-0x10c (4)
0x0100|                                    00         |            .   |                  version: 0 0x10c-0x10d (1)
0x0100|                                       00 00 00|             ...|                  flags: 0 0x10d-0x110 (3)
0x0110|00 00 00 00                                    |....            |                  creation_time: 0 (1904-01-01T00:00:00Z) 0x110-0x114 (4)
0x0110|            00 00 00 00                        |    ....        |                  modification_time: 0 (1904-01-01T00:00:00Z) 0x114-0x118 (4)
0x0110|                        00 00 32 00            |        ..2.    |                  time_scale: 12800 0x118-0x11c (4)
0x0110|                                    00 00 00 00|            ....|                  duration: 0 0x11c-0x120 (4)
0x0120|55 c4                                          |U.              |                  language: "und" 0x120-0x122 (2)
0x0120|      00 00                                    |  ..            |                  quality: 0 0x122-0x124 (2)
      |                                               |                |                [1]{}: box 0x124-0x151 (45)
0x0120|            00 00 00 2d                        |    ...-        |                  size: 45 0x124-0x128 (4)
0x0120|                        68 64 6c 72            |        hdlr    |                  type: "hdlr" (Handler, declares the media (handler) type) 0x128-0x12c (4)
0x0120|                                    00         |            .   |                  version: 0 0x12c-0x12d (1)
0x0120|                                       00 00 00|             ...|                  flags: 0 0x12d-0x130 (3)
0x0130|00 00 00 00                                    |....            |                  component_type: "" 0x130-0x134 (4)
0x0130|            76 69 64 65                        |    vide        |                  component_subtype: "vide" (Video Track) 0x134-0x138 (4)
0x0130|                        00 00 00 00            |        ....    |                  component_manufacturer: "" 0x138-0x13c (4)
0x0130|                                    00 00 00 00|            ....|                  component_flags: 0 0x13c-0x140 (4)
0x0140|00 00 00 00                                    |....            |                  component_flags_mask: 0 0x140-0x144 (4)
0x0140|            56 69 64 65 6f 48 61 6e 64 6c 65 72|    VideoHandler|                  component_name: "VideoHandler" 0x144-0x151 (13)
0x0150|00                                             |.               |
      |                                               |                |                [2]{}: box 0x151-0x284 (307)
0x0150|   00 00 01 33                                 | ...3           |                  size: 307 0x151-0x155 (4)
0x0150|               6d 69 6e 66                     |     minf       |                  type: "minf" (Media information container) 0x155-0x159 (4)
      |                                               |                |                  boxes[0:3]: 0x159-0x284 (299)
      |                                               |                |                    [0]{}: box 0x159-0x16d (20)
0x0150|                           00 00 00 14         |         ....   |                      size: 20 0x159-0x15d (4)
0x0150|                                       76 6d 68|             vmh|                      type: "vmhd" (Video media header, overall information (video track only)) 0x15d-0x161 (4)
0x0160|64                                             |d               |
0x0160|   00                                          | .              |                      version: 0 0x161-0x162 (1)
0x0160|      00 00 01                                 |  ...           |                      flags: 1 0x162-0x165 (3)
0x0160|               00 00                           |     ..         |                      graphicsmode: 0 0x165-0x167 (2)
      |                                               |                |                      opcolor[0:3]: 0x167-0x16d (6)
0x0160|                     00 00                     |       ..       |                        [0]: 0 value 0x167-0x169 (2)
0x0160|                           00 00               |         ..     |                        [1]: 0 value 0x169-0x16b (2)
0x0160|                                 00 00         |           ..   |                        [2]: 0 value 0x16b-0x16d (2)
      |                                               |                |                    [1]{}: box 0x16d-0x191 (36)
0x0160|                                       00 00 00|             ...|                      size: 36 0x16d-0x171 (4)
0x0170|24                                             |$               |
0x0170|   64 69 6e 66                                 | dinf           |                      type: "dinf" (Data information box, container) 0x171-0x175 (4)
      |                                               |                |                      boxes[0:1]: 0x175-0x191 (28)
      |                                               |                |                        [0]{}: box 0x175-0x191 (28)
0x0170|               00 00 00 1c                     |     ....       |                          size: 28 0x175-0x179 (4)
0x0170|                           64 72 65 66         |         dref   |                          type: "dref" (Data reference box, declares source(s) of media data in track) 0x179-0x17d (4)
0x0170|                                       00      |             .  |                          version: 0 0x17d-0x17e (1)
0x0170|                                          00 00|              ..|                          flags: 0 0x17e-0x181 (3)
0x0180|00                                             |.               |
0x0180|   00 00 00 01                                 | ....           |                          entry_count: 1 0x181-0x185 (4)
      |                                               |                |                          boxes[0:1]: 0x185-0x191 (12)
      |                                               |                |                            [0]{}: box 0x185-0x191 (12)
0x0180|               00 00 00 0c                     |     ....       |                              size: 12 0x185-0x189 (4)
0x0180|                           75 72 6c 20         |         url    |                              type: "url" 0x189-0x18d (4)
0x0180|                                       00      |             .  |                              version: 0 0x18d-0x18e (1)
0x0180|                                          00 00|              ..|                              flags: 1 0x18e-0x191 (3)
0x0190|01                                             |.               |
      |                                               |                |                              data: "" 0x191-0x191 (0)
      |                                               |                |                    [2]{}: box 0x191-0x284 (243)
0x0190|   00 00 00 f3                                 | ....           |                      size: 243 0x191-0x195 (4)
0x0190|               73 74 62 6c                     |     stbl       |                      type: "stbl" (Sample table box, container for the time/space map) 0x195-0x199 (4)
      |                                               |                |                      boxes[0:5]: 0x199-0x284 (235)
      |                                               |                |                        [0]{}: box 0x199-0x240 (167)
0x0190|                           00 00 00 a7         |         ....   |                          size: 167 0x199-0x19d (4)
0x0190|                                       73 74 73|             sts|                          type: "stsd" (Sample descriptions (codec types, initialization etc.)) 0x19d-0x1a1 (4)
0x01a0|64                                             |d               |
0x01a0|   00                                          | .              |                          version: 0 0x1a1-0x1a2 (1)
0x01a0|      00 00 00                                 |  ...           |                          flags: 0 0x1a2-0x1a5 (3)
0x01a0|               00 00 00 01                     |     ....       |                          entry_count: 1 0x1a5-0x1a9 (4)
      |                                               |                |                          boxes[0:1]: 0x1a9-0x240 (151)
      |                                               |                |                            [0]{}: box 0x1a9-0x240 (151)
0x01a0|                           00 00 00 97         |         ....   |                              size: 151 0x1a9-0x1ad (4)
0x01a0|                                       61 76 63|             avc|                              type: "avc1" (Advanced Video Coding) 0x1ad-0x1b1 (4)
0x01b0|31                                             |1               |
0x01b0|   00 00 00 00 00 00                           | ......         |                              reserved0: raw bits 0x1b1-0x1b7 (6)
0x01b0|                     00 01                     |       ..       |                              data_reference_index: 1 0x1b7-0x1b9 (2)
0x01b0|                           00 00               |         ..     |                              version: 0 0x1b9-0x1bb (2)
0x01b0|                                 00 00         |           ..   |                              revision_level: 0 0x1bb-0x1bd (2)
0x01b0|                                       00 00 00|             ...|                              max_packet_size: 0 0x1bd-0x1c1 (4)
0x01c0|00                                             |.               |
0x01c0|   00 00 00 00                                 | ....           |                              temporal_quality: 0 0x1c1-0x1c5 (4)
0x01c0|               00 00 00 00                     |     ....       |                              spatial_quality: 0 0x1c5-0x1c9 (4)
0x01c0|                           01 40               |         .@     |                              width: 320 0x1c9-0x1cb (2)
0x01c0|                                 00 f0         |           ..   |                              height: 240 0x1cb-0x1cd (2)
0x01c0|                                       00 48 00|             .H.|                              horizontal_resolution: 72 0x1cd-0x1d1 (4)
0x01d0|00                                             |.               |
0x01d0|   00 48 00 00                                 | .H..           |                              vertical_resolution: 72 0x1d1-0x1d5 (4)
0x01d0|               00 00 00 00                     |     ....       |                              data_size: 0 0x1d5-0x1d9 (4)
0x01d0|                           00 01               |         ..     |                              frame_count: 1 0x1d9-0x1db (2)
0x01d0|                                 14 4c 61 76 63|           .Lavc|                              compressor_name: "Lavc63.1.101 libx264" 0x1db-0x1fb (32)
0x01e0|36 33 2e 31 2e 31 30 31 20 6c 69 62 78 32 36 34|63.1.101 libx264|
0x01f0|00 00 00 00 00 00 00 00 00 00 00               |...........     |
0x01f0|                                 00 18         |           ..   |                              depth: 24 0x1fb-0x1fd (2)
0x01f0|                                       ff ff   |             .. |                              color_table_id: -1 0x1fd-0x1ff (2)
      |                                               |                |                              boxes[0:2]: 0x1ff-0x240 (65)
      |                                               |                |                                [0]{}: box 0x1ff-0x230 (49)
0x01f0|                                             00|               .|                                  size: 49 0x1ff-0x203 (4)
0x0200|00 00 31                                       |..1             |
0x0200|         61 76 63 43                           |   avcC         |                                  type: "avcC" 0x203-0x207 (4)
      |00 01 02 03 04 05 06 07 08 09 0a 0b 0c 0d 0e 0f|0123456789abcdef|                                  descriptor{}: (avc_dcr) 0x207-0x230 (41)
0x0200|                     01                        |       .        |                                    configuration_version: 1 0x207-0x208 (1)
0x0200|                        f4                     |        .       |                                    profile_indication: "high_444_predictive_profile" (244) 0x208-0x209 (1)
0x0200|                           10                  |         .      |                                    profile_compatibility: 16 0x209-0x20a (1)
0x0200|                              0d               |          .     |                                    level_indication: "1.3" (13) 0x20a-0x20b (1)
0x0200|                                 ff            |           .    |                                    reserved0: 63 0x20b-0x20b.6 (0.6)
0x0200|                                 ff            |           .    |                                    length_size: 4 0x20b.6-0x20c (0.2)
0x0200|                                    e1         |            .   |                                    reserved1: 7 0x20c-0x20c.3 (0.3)
0x0200|                                    e1         |            .   |                                    num_of_sequence_parameter_sets: 1 0x20c.3-0x20d (0.5)
      |                                               |                |                                    sequence_parameter_sets[0:1]: 0x20d-0x223 (22)
      |                                               |                |                                      [0]{}: set 0x20d-0x223 (22)
0x0200|                                       00 14   |             .. |                                        length: 20 0x20d-0x20f (2)
      |00 01 02 03 04 05 06 07 08 09 0a 0b 0c 0d 0e 0f|0123456789abcdef|                                        nal{}: (avc_nalu) 0x20f-0x223 (20)
      |00 01 02 03 04 05 06 07 08 09 0a 0b 0c 0d 0e 0f|0123456789abcdef|                                          rbsp{}: 0x0-0x12 (18)
  0x00|f4                                             |.               |                                            profile_idc: "high_444_predictive_profile" (244) 0x0-0x1 (1)
  0x00|   10                                          | .              |                                            constraint_set0_flag: false 0x1-0x1.1 (0.1)
  0x00|   10                                          | .              |                                            constraint_set1_flag: false 0x1.1-0x1.2 (0.1)
  0x00|   10                                          | .              |                                            constraint_set2_flag: false 0x1.2-0x1.3 (0.1)
  0x00|   10                                          | .              |                                            constraint_set3_flag: true 0x1.3-0x1.4 (0.1)
  0x00|   10                                          | .              |                                            constraint_set4_flag: false 0x1.4-0x1.5 (0.1)
  0x00|   10                                          | .              |                                            constraint_set5_flag: false 0x1.5-0x1.6 (0.1)
  0x00|   10                                          | .              |                                            reserved_zero_2bits: 0 0x1.6-0x2 (0.2)
  0x00|      0d                                       |  .             |                                            level_idc: "1.3" (13) 0x2-0x3 (1)
  0x00|         91                                    |   .            |                                            seq_parameter_set_id: 0 0x3-0x3.1 (0.1)
  0x00|         91                                    |   .            |                                            chroma_format_idc: "4:4:4" (3) 0x3.1-0x3.6 (0.5)
  0x00|         91                                    |   .            |                                            separate_colour_plane_flag: false 0x3.6-0x3.7 (0.1)
  0x00|         91                                    |   .            |                                            bit_depth_luma: 8 0x3.7-0x4 (0.1)
  0x00|            97                                 |    .           |                                            bit_depth_chroma: 8 0x4-0x4.1 (0.1)
  0x00|            97                                 |    .           |                                            qpprime_y_zero_transform_bypass_flag: false 0x4.1-0x4.2 (0.1)
  0x00|            97                                 |    .           |                                            seq_scaling_matrix_present_flag: false 0x4.2-0x4.3 (0.1)
  0x00|            97                                 |    .           |                                            log2_max_frame_num: 4 0x4.3-0x4.4 (0.1)
  0x00|            97                                 |    .           |                                            pic_order_cnt_type: 2 0x4.4-0x4.7 (0.3)
  0x00|            97                                 |    .           |                                            max_num_ref_frames: 0 0x4.7-0x5 (0.1)
  0x00|               05                              |     .          |                                            gaps_in_frame_num_value_allowed_flag: false 0x5-0x5.1 (0.1)
  0x00|               05 07                           |     ..         |                                            pic_width_in_mbs: 20 0x5.1-0x6.2 (1.1)
  0x00|                  07 ec                        |      ..        |                                            pic_height_in_map_units: 15 0x6.2-0x7.1 (0.7)
  0x00|                     ec                        |       .        |                                            frame_mbs_only_flag: true 0x7.1-0x7.2 (0.1)
  0x00|                     ec                        |       .        |                                            direct_8x8_inference_flag: true 0x7.2-0x7.3 (0.1)
  0x00|                     ec                        |       .        |                                            frame_cropping_flag: false 0x7.3-0x7.4 (0.1)
  0x00|                     ec                        |       .        |                                            vui_parameters_present_flag: true 0x7.4-0x7.5 (0.1)
      |                                               |                |                                            vui_parameters{}: 0x7.5-0x11.7 (10.2)
  0x00|                     ec                        |       .        |                                              aspect_ratio_info_present_flag: true 0x7.5-0x7.6 (0.1)
  0x00|                     ec 04                     |       ..       |                                              aspect_ratio_idc: "1:1" (1) 0x7.6-0x8.6 (1)
  0x00|                        04                     |        .       |                                              overscan_info_present_flag: false 0x8.6-0x8.7 (0.1)
  0x00|                        04                     |        .       |                                              video_signal_type_present_flag: false 0x8.7-0x9 (0.1)
  0x00|                           40                  |         @      |                                              chroma_loc_info_present_flag: false 0x9-0x9.1 (0.1)
  0x00|                           40                  |         @      |                                              timing_info_present_flag: true 0x9.1-0x9.2 (0.1)
  0x00|                           40 00 00 00 40      |         @...@  |                                              num_units_in_tick: 1 0x9.2-0xd.2 (4)
  0x00|                                       40 00 00|             @..|                                              time_scale: 50 0xd.2-0x11.2 (4)
  0x01|0c 81|                                         |..|             |
  0x01|   81|                                         | .|             |                                              fixed_frame_rate_flag: false 0x11.2-0x11.3 (0.1)
  0x01|   81|                                         | .|             |                                              nal_hrd_parameters_present_flag: false 0x11.3-0x11.4 (0.1)
  0x01|   81|                                         | .|             |                                              vcl_hrd_parameters_present_flag: false 0x11.4-0x11.5 (0.1)
  0x01|   81|                                         | .|             |                                              pic_struct_present_flag: false 0x11.5-0x11.6 (0.1)
  0x01|   81|                                         | .|             |                                              bitstream_restriction_flag: false 0x11.6-0x11.7 (0.1)
  0x01|   81|                                         | .|             |                                            trailing_bits: raw bits 0x11.7-0x12 (0.1)
0x0200|                                             67|               g|                                          forbidden_zero_bit: false 0x20f-0x20f.1 (0.1)
0x0200|                                             67|               g|                                          nal_ref_idc: 3 0x20f.1-0x20f.3 (0.2)
0x0200|                                             67|               g|                                          nal_unit_type: "sps" (7) (Sequence parameter set) 0x20f.3-0x210 (0.5)
0x0210|f4 10 0d 91 97 05 07 ec 04 40 00 00 03 00 40 00|.........@....@.|                                          gap0: raw bits 0x210-0x223 (19)
0x0220|00 0c 81                                       |...             |
0x0220|         01                                    |   .            |                                    num_of_picture_parameter_sets: 1 0x223-0x224 (1)
      |                                               |                |                                    picture_parameter_sets[0:1]: 0x224-0x22c (8)
      |                                               |                |                                      [0]{}: set 0x224-0x22c (8)
0x0220|            00 06                              |    ..          |                                        length: 6 0x224-0x226 (2)
      |00 01 02 03 04 05 06 07 08 09 0a 0b 0c 0d 0e 0f|0123456789abcdef|                                        nal{}: (avc_nalu) 0x226-0x22c (6)
0x0220|                  68                           |      h         |                                          forbidden_zero_bit: false 0x226-0x226.1 (0.1)
0x0220|                  68                           |      h         |                                          nal_ref_idc: 3 0x226.1-0x226.3 (0.2)
0x0220|                  68                           |      h         |                                          nal_unit_type: "pps" (8) (Picture parameter set) 0x226.3-0x227 (0.5)
      |                                               |                |                                          rbsp{}: 0x227-0x22c (5)
0x0220|                     ee                        |       .        |                                            pic_parameter_set_id: 0 0x227-0x227.1 (0.1)
0x0220|                     ee                        |       .        |                                            seq_parameter_set_id: 0 0x227.1-0x227.2 (0.1)
0x0220|                     ee                        |       .        |                                            entropy_coding_mode_flag: true 0x227.2-0x227.3 (0.1)
0x0220|                     ee                        |       .        |                                            bottom_field_pic_order_in_frame_present_flag: false 0x227.3-0x227.4 (0.1)
0x0220|                     ee                        |       .        |                                            num_slice_groups: 1 0x227.4-0x227.5 (0.1)
0x0220|                     ee                        |       .        |                                            num_ref_idx_l0_default_active: 1 0x227.5-0x227.6 (0.1)
0x0220|                     ee                        |       .        |                                            num_ref_idx_l1_default_active: 1 0x227.6-0x227.7 (0.1)
0x0220|                     ee                        |       .        |                                            weighted_pred_flag: false 0x227.7-0x228 (0.1)
0x0220|                        0f                     |        .       |                                            weighted_bipred_idc: 0 0x228-0x228.2 (0.2)
0x0220|                        0f                     |        .       |                                            pic_init_qp: 23 0x228.2-0x228.7 (0.5)
0x0220|                        0f                     |        .       |                                            pic_init_qs: 26 0x228.7-0x229 (0.1)
0x0220|                           11                  |         .      |                                            chroma_qp_index_offset: 4 0x229-0x229.7 (0.7)
0x0220|                           11                  |         .      |                                            deblocking_filter_control_present_flag: true 0x229.7-0x22a (0.1)
0x0220|                              21               |          !     |                                            constrained_intra_pred_flag: false 0x22a-0x22a.1 (0.1)
0x0220|                              21               |          !     |                                            redundant_pic_cnt_present_flag: false 0x22a.1-0x22a.2 (0.1)
0x0220|                              21               |          !     |                                            transform_8x8_mode_flag: true 0x22a.2-0x22a.3 (0.1)
0x0220|                              21               |          !     |                                            pic_scaling_matrix_present_flag: false 0x22a.3-0x22a.4 (0.1)
0x0220|                              21 10            |          !.    |                                            second_chroma_qp_index_offset: 4 0x22a.4-0x22b.3 (0.7)
0x0220|                                 10            |           .    |                                            trailing_bits: raw bits 0x22b.3-0x22c (0.5)
0x0220|                                    ff f8 f8 00|            ....|                                    data: raw bits 0x22c-0x230 (4)
      |                                               |                |                                [1]{}: box 0x230-0x240 (16)
0x0230|00 00 00 10                                    |....            |                                  size: 16 0x230-0x234 (4)
0x0230|            70 61 73 70                        |    pasp        |                                  type: "pasp" (Pixel aspect ratio) 0x234-0x238 (4)
0x0230|                        00 00 00 01            |        ....    |                                  h_spacing: 1 0x238-0x23c (4)
0x0230|                                    00 00 00 01|            ....|                                  v_spacing: 1 0x23c-0x240 (4)
      |                                               |                |                        [1]{}: box 0x240-0x250 (16)
0x0240|00 00 00 10                                    |....            |                          size: 16 0x240-0x244 (4)
0x0240|            73 74 74 73                        |    stts        |                          type: "stts" (Sample time-to-sample) 0x244-0x248 (4)
0x0240|                        00                     |        .       |                          version: 0 0x248-0x249 (1)
0x0240|                           00 00 00            |         ...    |                          flags: 0 0x249-0x24c (3)
0x0240|                                    00 00 00 00|            ....|                          entry_count: 0 0x24c-0x250 (4)
      |                                               |                |                          entries[0:0]: 0x250-0x250 (0)
      |                                               |                |                        [2]{}: box 0x250-0x260 (16)
0x0250|00 00 00 10                                    |....            |                          size: 16 0x250-0x254 (4)
0x0250|            73 74 73 63                        |    stsc        |                          type: "stsc" (Sample-to-chunk, partial data-offset information) 0x254-0x258 (4)
0x0250|                        00                     |        .       |                          version: 0 0x258-0x259 (1)
0x0250|                           00 00 00            |         ...    |                          flags: 0 0x259-0x25c (3)
0x0250|                                    00 00 00 00|            ....|                          entry_count: 0 0x25c-0x260 (4)
      |                                               |                |                          entries[0:0]: 0x260-0x260 (0)
      |                                               |                |                        [3]{}: box 0x260-0x274 (20)
0x0260|00 00 00 14                                    |....            |                          size: 20 0x260-0x264 (4)
0x0260|            73 74 73 7a                        |    stsz        |                          type: "stsz" (Sample sizes (framing)) 0x264-0x268 (4)
0x0260|                        00                     |        .       |                          version: 0 0x268-0x269 (1)
0x0260|                           00 00 00            |         ...    |                          flags: 0 0x269-0x26c (3)
0x0260|                                    00 00 00 00|            ....|                          sample_size: 0 0x26c-0x270 (4)
0x0270|00 00 00 00                                    |....            |                          entry_count: 0 0x270-0x274 (4)
      |                                               |                |                          entries[0:0]: 0x274-0x274 (0)
      |                                               |                |                        [4]{}: box 0x274-0x284 (16)
0x0270|            00 00 00 10                        |    ....        |                          size: 16 0x274-0x278 (4)
0x0270|                        73 74 63 6f            |        stco    |                          type: "stco" (Chunk offset, partial data-offset information) 0x278-0x27c (4)
0x0270|                                    00         |            .   |                          version: 0 0x27c-0x27d (1)
0x0270|                                       00 00 00|             ...|                          flags: 0 0x27d-0x280 (3)
0x0280|00 00 00 00                                    |....            |                          entry_count: 0 0x280-0x284 (4)
      |                                               |                |                          entries[0:0]: 0x284-0x284 (0)
      |                                               |                |        [2]{}: box 0x284-0x443 (447)
0x0280|            00 00 01 bf                        |    ....        |          size: 447 0x284-0x288 (4)
0x0280|                        74 72 61 6b            |        trak    |          type: "trak" (Container for an individual track or stream) 0x288-0x28c (4)
      |                                               |                |          boxes[0:2]: 0x28c-0x443 (439)
      |                                               |                |            [0]{}: box 0x28c-0x2e8 (92)
0x0280|                                    00 00 00 5c|            ...\|              size: 92 0x28c-0x290 (4)
0x0290|74 6b 68 64                                    |tkhd            |              type: "tkhd" (Track header, overall information about the track) 0x290-0x294 (4)
0x0290|            00                                 |    .           |              version: 0 0x294-0x295 (1)
      |                                               |                |              flags{}: 0x295-0x298 (3)
0x0290|               00 00 03                        |     ...        |                unused: 0 0x295-0x297.4 (2.4)
0x0290|                     03                        |       .        |                size_is_aspect_ratio: false 0x297.4-0x297.5 (0.1)
0x0290|                     03                        |       .        |                in_preview: false 0x297.5-0x297.6 (0.1)
0x0290|                     03                        |       .        |                in_movie: true 0x297.6-0x297.7 (0.1)
0x0290|                     03                        |       .        |                enabled: true 0x297.7-0x298 (0.1)
0x0290|                        00 00 00 00            |        ....    |              creation_time: 0 (1904-01-01T00:00:00Z) 0x298-0x29c (4)
0x0290|                                    00 00 00 00|            ....|              modification_time: 0 (1904-01-01T00:00:00Z) 0x29c-0x2a0 (4)
0x02a0|00 00 00 02                                    |....            |              track_id: 2 0x2a0-0x2a4 (4)
0x02a0|            00 00 00 00                        |    ....        |              reserved1: 0 0x2a4-0x2a8 (4)
0x02a0|                        00 00 00 00            |        ....    |              duration: 0 0x2a8-0x2ac (4)
0x02a0|                                    00 00 00 00|            ....|              reserved2: raw bits 0x2ac-0x2b4 (8)
0x02b0|00 00 00 00                                    |....            |
0x02b0|            00 00                              |    ..          |              layer: 0 0x2b4-0x2b6 (2)
0x02b0|                  00 01                        |      ..        |              alternate_group: 1 0x2b6-0x2b8 (2)
0x02b0|                        01 00                  |        ..      |              volume: 1 0x2b8-0x2ba (2)
0x02b0|                              00 00            |          ..    |              reserved3: 0 0x2ba-0x2bc (2)
      |                                               |                |              matrix_structure{}: 0x2bc-0x2e0 (36)
0x02b0|                                    00 01 00 00|            ....|                a: 1 0x2bc-0x2c0 (4)
0x02c0|00 00 00 00                                    |....            |                b: 0 0x2c0-0x2c4 (4)
0x02c0|            00 00 00 00                        |    ....        |                u: 0 0x2c4-0x2c8 (4)
0x02c0|                        00 00 00 00            |        ....    |                c: 0 0x2c8-0x2cc (4)
0x02c0|                                    00 01 00 00|            ....|                d: 1 0x2cc-0x2d0 (4)
0x02d0|00 00 00 00                                    |....            |                v: 0 0x2d0-0x2d4 (4)
0x02d0|            00 00 00 00                        |    ....        |                x: 0 0x2d4-0x2d8 (4)
0x02d0|                        00 00 00 00            |        ....    |                y: 0 0x2d8-0x2dc (4)
0x02d0|                                    40 00 00 00|            @...|                w: 1 0x2dc-0x2e0 (4)
0x02e0|00 00 00 00                                    |....            |              track_width: 0 0x2e0-0x2e4 (4)
0x02e0|            00 00 00 00                        |    ....        |              track_height: 0 0x2e4-0x2e8 (4)
      |                                               |                |            [1]{}: box 0x2e8-0x443 (347)
0x02e0|                        00 00 01 5b            |        ...[    |              size: 347 0x2e8-0x2ec (4)
0x02e0|                                    6d 64 69 61|            mdia|              type: "mdia" (Container for the media information in a track) 0x2ec-0x2f0 (4)
      |                                               |                |              boxes[0:3]: 0x2f0-0x443 (339)
      |                                               |                |                [0]{}: box 0x2f0-0x310 (32)
0x02f0|00 00 00 20                                    |...             |                  size: 32 0x2f0-0x2f4 (4)
0x02f0|            6d 64 68 64                        |    mdhd        |                  type: "mdhd" (Media header, overall information about the media) 0x2f4-0x2f8 (4)
0x02f0|                        00                     |        .       |                  version: 0 0x2f8-0x2f9 (1)
0x02f0|                           00 00 00            |         ...    |                  flags: 0 0x2f9-0x2fc (3)
0x02f0|                                    00 00 00 00|            ....|                  creation_time: 0 (1904-01-01T00:00:00Z) 0x2fc-0x300 (4)
0x0300|00 00 00 00                                    |....            |                  modification_time: 0 (1904-01-01T00:00:00Z) 0x300-0x304 (4)
0x0300|            00 00 ac 44                        |    ...D        |                  time_scale: 44100 0x304-0x308 (4)
0x0300|                        00 00 00 00            |        ....    |                  duration: 0 0x308-0x30c (4)
0x0300|                                    55 c4      |            U.  |                  language: "und" 0x30c-0x30e (2)
0x0300|                                          00 00|              ..|                  quality: 0 0x30e-0x310 (2)
      |                                               |                |                [1]{}: box 0x310-0x33d (45)
0x0310|00 00 00 2d                                    |...-            |                  size: 45 0x310-0x314 (4)
0x0310|            68 64 6c 72                        |    hdlr        |                  type: "hdlr" (Handler, declares the media (handler) type) 0x314-0x318 (4)
0x0310|                        00                     |        .       |                  version: 0 0x318-0x319 (1)
0x0310|                           00 00 00            |         ...    |                  flags: 0 0x319-0x31c (3)
0x0310|                                    00 00 00 00|            ....|                  component_type: "" 0x31c-0x320 (4)
0x0320|73 6f 75 6e                                    |soun            |                  component_subtype: "soun" (Audio Track) 0x320-0x324 (4)
0x0320|            00 00 00 00                        |    ....        |                  component_manufacturer: "" 0x324-0x328 (4)
0x0320|                        00 00 00 00            |        ....    |                  component_flags: 0 0x328-0x32c (4)
0x0320|                                    00 00 00 00|            ....|                  component_flags_mask: 0 0x32c-0x330 (4)
0x0330|53 6f 75 6e 64 48 61 6e 64 6c 65 72 00         |SoundHandler.   |                  component_name: "SoundHandler" 0x330-0x33d (13)
      |                                               |                |                [2]{}: box 0x33d-0x443 (262)
0x0330|                                       00 00 01|             ...|                  size: 262 0x33d-0x341 (4)
0x0340|06                                             |.               |
0x0340|   6d 69 6e 66                                 | minf           |                  type: "minf" (Media information container) 0x341-0x345 (4)
      |                                               |                |                  boxes[0:3]: 0x345-0x443 (254)
      |                                               |                |                    [0]{}: box 0x345-0x355 (16)
0x0340|               00 00 00 10                     |     ....       |                      size: 16 0x345-0x349 (4)
0x0340|                           73 6d 68 64         |         smhd   |                      type: "smhd" (Sound media header, overall information (sound track only)) 0x349-0x34d (4)
0x0340|                                       00      |             .  |                      version: 0 0x34d-0x34e (1)
0x0340|                                          00 00|              ..|                      flags: 0 0x34e-0x351 (3)
0x0350|00                                             |.               |
0x0350|   00 00                                       | ..             |                      balance: 0 0x351-0x353 (2)
0x0350|         00 00                                 |   ..           |                      reserved: 0 0x353-0x355 (2)
      |                                               |                |                    [1]{}: box 0x355-0x379 (36)
0x0350|               00 00 00 24                     |     ...$       |                      size: 36 0x355-0x359 (4)
0x0350|                           64 69 6e 66         |         dinf   |                      type: "dinf" (Data information box, container) 0x359-0x35d (4)
      |                                               |                |                      boxes[0:1]: 0x35d-0x379 (28)
      |                                               |                |                        [0]{}: box 0x35d-0x379 (28)
0x0350|                                       00 00 00|             ...|                          size: 28 0x35d-0x361 (4)
0x0360|1c                                             |.               |
0x0360|   64 72 65 66                                 | dref           |                          type: "dref" (Data reference box, declares source(s) of media data in track) 0x361-0x365 (4)
0x0360|               00                              |     .          |                          version: 0 0x365-0x366 (1)
0x0360|                  00 00 00                     |      ...       |                          flags: 0 0x366-0x369 (3)
0x0360|                           00 00 00 01         |         ....   |                          entry_count: 1 0x369-0x36d (4)
      |                                               |                |                          boxes[0:1]: 0x36d-0x379 (12)
      |                                               |                |                            [0]{}: box 0x36d-0x379 (12)
0x0360|                                       00 00 00|             ...|                              size: 12 0x36d-0x371 (4)
0x0370|0c                                             |.               |
0x0370|   75 72 6c 20                                 | url            |                              type: "url" 0x371-0x375 (4)
0x0370|               00                              |     .          |                              version: 0 0x375-0x376 (1)
0x0370|                  00 00 01                     |      ...       |                              flags: 1 0x376-0x379 (3)
      |                                               |                |                              data: "" 0x379-0x379 (0)
      |                                               |                |                    [2]{}: box 0x379-0x443 (202)
0x0370|                           00 00 00 ca         |         ....   |                      size: 202 0x379-0x37d (4)
0x0370|                                       73 74 62|             stb|                      type: "stbl" (Sample table box, container for the time/space map) 0x37d-0x381 (4)
0x0380|6c                                             |l               |
      |                                               |                |                      boxes[0:5]: 0x381-0x443 (194)
      |                                               |                |                        [0]{}: box 0x381-0x3ff (126)
0x0380|   00 00 00 7e                                 | ...~           |                          size: 126 0x381-0x385 (4)
0x0380|               73 74 73 64                     |     stsd       |                          type: "stsd" (Sample descriptions (codec types, initialization etc.)) 0x385-0x389 (4)
0x0380|                           00                  |         .      |                          version: 0 0x389-0x38a (1)
0x0380|                              00 00 00         |          ...   |                          flags: 0 0x38a-0x38d (3)
0x0380|                                       00 00 00|             ...|                          entry_count: 1 0x38d-0x391 (4)
0x0390|01                                             |.               |
      |                                               |                |                          boxes[0:1]: 0x391-0x3ff (110)
      |                                               |                |                            [0]{}: box 0x391-0x3ff (110)
0x0390|   00 00 00 6e                                 | ...n           |                              size: 110 0x391-0x395 (4)
0x0390|               6d 70 34 61                     |     mp4a       |                              type: "mp4a" (MPEG-4 Audio) 0x395-0x399 (4)
0x0390|                           00 00 00 00 00 00   |         ...... |                              reserved0: raw bits 0x399-0x39f (6)
0x0390|                                             00|               .|                              data_reference_index: 1 0x39f-0x3a1 (2)
0x03a0|01                                             |.               |
0x03a0|   00 00 00 00                                 | ....           |                              reserved1: 0 0x3a1-0x3a5 (4)
0x03a0|               00 00 00 00                     |     ....       |                              reserved2: 0 0x3a5-0x3a9 (4)
0x03a0|                           00 01               |         ..     |                              channel_count: 1 0x3a9-0x3ab (2)
0x03a0|                                 00 10         |           ..   |                              sample_size: 16 0x3ab-0x3ad (2)
0x03a0|                                       00 00   |             .. |                              pre_defined: 0 0x3ad-0x3af (2)
0x03a0|                                             00|               .|                              reserved3: 0 0x3af-0x3b1 (2)
0x03b0|00                                             |.               |
0x03b0|   ac 44 00 00                                 | .D..           |                              sample_rate: 44100 0x3b1-0x3b5 (4)
      |                                               |                |                              boxes[0:2]: 0x3b5-0x3ff (74)
      |                                               |                |                                [0]{}: box 0x3b5-0x3eb (54)
0x03b0|               00 00 00 36                     |     ...6       |                                  size: 54 0x3b5-0x3b9 (4)
0x03b0|                           65 73 64 73         |         esds   |                                  type: "esds" (Elementary stream descriptor) 0x3b9-0x3bd (4)
0x03b0|                                       00 00 00|             ...|                                  version: 0 0x3bd-0x3c1 (4)
0x03c0|00                                             |.               |
      |00 01 02 03 04 05 06 07 08 09 0a 0b 0c 0d 0e 0f|0123456789abcdef|                                  descriptor{}: (mpeg_es) 0x3c1-0x3eb (42)
0x03c0|   03                                          | .              |                                    tag_id: "ES_DescrTag" (3) 0x3c1-0x3c2 (1)
0x03c0|      80 80 80 25                              |  ...%          |                                    length: 37 0x3c2-0x3c6 (4)
0x03c0|                  00 02                        |      ..        |                                    es_id: 2 0x3c6-0x3c8 (2)
0x03c0|                        00                     |        .       |                                    stream_dependency_flag: false 0x3c8-0x3c8.1 (0.1)
0x03c0|                        00                     |        .       |                                    url_flag: false 0x3c8.1-0x3c8.2 (0.1)
0x03c0|                        00                     |        .       |                                    ocr_stream_flag: false 0x3c8.2-0x3c8.3 (0.1)
0x03c0|                        00                     |        .       |                                    stream_priority: 0 0x3c8.3-0x3c9 (0.5)
      |                                               |                |                                    dec_config_descr{}: 0x3c9-0x3e5 (28)
0x03c0|                           04                  |         .      |                                      tag_id: "DecoderConfigDescrTag" (4) 0x3c9-0x3ca (1)
0x03c0|                              80 80 80 17      |          ....  |                                      length: 23 0x3ca-0x3ce (4)
0x03c0|                                          40   |              @ |                                      object_type_indication: "MPEGObjectTypeAAC" (64) 0x3ce-0x3cf (1)
0x03c0|                                             15|               .|                                      stream_type: "AudioStream" (5) 0x3cf-0x3cf.6 (0.6)
0x03c0|                                             15|               .|                                      upstream: false 0x3cf.6-0x3cf.7 (0.1)
0x03c0|                                             15|               .|                                      specific_info_flag: true 0x3cf.7-0x3d0 (0.1)
0x03d0|00 00 00                                       |...             |                                      buffer_size_db: 0 0x3d0-0x3d3 (3)
0x03d0|         00 01 0d 88                           |   ....         |                                      max_bit_rate: 69000 0x3d3-0x3d7 (4)
0x03d0|                     00 01 0d 88               |       ....     |                                      avg_bit_rate: 69000 0x3d7-0x3db (4)
      |                                               |                |                                      decoder_specific_info{}: 0x3db-0x3e5 (10)
0x03d0|                                 05            |           .    |                                        tag_id: "DecSpecificInfoTag" (5) 0x3db-0x3dc (1)
0x03d0|                                    80 80 80 05|            ....|                                        length: 5 0x3dc-0x3e0 (4)
      |00 01 02 03 04 05 06 07 08 09 0a 0b 0c 0d 0e 0f|0123456789abcdef|                                        audio_specific_config{}: (mpeg_asc) 0x3e0-0x3e5 (5)
0x03e0|12                                             |.               |                                          object_type: "aac_lc" (2) (AAC Low Complexity) 0x3e0-0x3e0.5 (0.5)
0x03e0|12 08                                          |..              |                                          sampling_frequency: 44100 (4) 0x3e0.5-0x3e1.1 (0.4)
0x03e0|   08                                          | .              |                                          channel_configuration: 1 (front-center) 0x3e1.1-0x3e1.5 (0.4)
0x03e0|   08 56 e5 00                                 | .V..           |                                          var_aot_or_byte_align: raw bits 0x3e1.5-0x3e5 (3.3)
      |                                               |                |                                    sl_config_descr{}: 0x3e5-0x3eb (6)
0x03e0|               06                              |     .          |                                      tag_id: "SLConfigDescrTag" (6) 0x3e5-0x3e6 (1)
0x03e0|                  80 80 80 01                  |      ....      |                                      length: 1 0x3e6-0x3ea (4)
0x03e0|                              02               |          .     |                                      data: raw bits 0x3ea-0x3eb (1)
      |                                               |                |                                [1]{}: box 0x3eb-0x3ff (20)
0x03e0|                                 00 00 00 14   |           .... |                                  size: 20 0x3eb-0x3ef (4)
0x03e0|                                             62|               b|                                  type: "btrt" (Bitrate) 0x3ef-0x3f3 (4)
0x03f0|74 72 74                                       |trt             |
0x03f0|         00 00 00 00                           |   ....         |                                  decoding_buffer_size: 0 0x3f3-0x3f7 (4)
0x03f0|                     00 01 0d 88               |       ....     |                                  max_bitrate: 69000 0x3f7-0x3fb (4)
0x03f0|                                 00 01 0d 88   |           .... |                                  avg_bitrate: 69000 0x3fb-0x3ff (4)
      |                                               |                |                        [1]{}: box 0x3ff-0x40f (16)
0x03f0|                                             00|               .|                          size: 16 0x3ff-0x403 (4)
0x0400|00 00 10                                       |...             |
0x0400|         73 74 74 73                           |   stts         |                          type: "stts" (Sample time-to-sample) 0x403-0x407 (4)
0x0400|                     00                        |       .        |                          version: 0 0x407-0x408 (1)
0x0400|                        00 00 00               |        ...     |                          flags: 0 0x408-0x40b (3)
0x0400|                                 00 00 00 00   |           .... |                          entry_count: 0 0x40b-0x40f (4)
      |                                               |                |                          entries[0:0]: 0x40f-0x40f (0)
      |                                               |                |                        [2]{}: box 0x40f-0x41f (16)
0x0400|                                             00|               .|                          size: 16 0x40f-0x413 (4)
0x0410|00 00 10                                       |...             |
0x0410|         73 74 73 63                           |   stsc         |                          type: "stsc" (Sample-to-chunk, partial data-offset information) 0x413-0x417 (4)
0x0410|                     00                        |       .        |                          version: 0 0x417-0x418 (1)
0x0410|                        00 00 00               |        ...     |                          flags: 0 0x418-0x41b (3)
0x0410|                                 00 00 00 00   |           .... |                          entry_count: 0 0x41b-0x41f (4)
      |                                               |                |                          entries[0:0]: 0x41f-0x41f (0)
      |                                               |                |                        [3]{}: box 0x41f-0x433 (20)
0x0410|                                             00|               .|                          size: 20 0x41f-0x423 (4)
0x0420|00 00 14                                       |...             |
0x0420|         73 74 73 7a                           |   stsz         |                          type: "stsz" (Sample sizes (framing)) 0x423-0x427 (4)
0x0420|                     00                        |       .        |                          version: 0 0x427-0x428 (1)
0x0420|                        00 00 00               |        ...     |                          flags: 0 0x428-0x42b (3)
0x0420|                                 00 00 00 00   |           .... |                          sample_size: 0 0x42b-0x42f (4)
0x0420|                                             00|               .|                          entry_count: 0 0x42f-0x433 (4)
0x0430|00 00 00                                       |...             |
      |                                               |                |                          entries[0:0]: 0x433-0x433 (0)
      |                                               |                |                        [4]{}: box 0x433-0x443 (16)
0x0430|         00 00 00 10                           |   ....         |                          size: 16 0x433-0x437 (4)
0x0430|                     73 74 63 6f               |       stco     |                          type: "stco" (Chunk offset, partial data-offset information) 0x437-0x43b (4)
0x0430|                                 00            |           .    |                          version: 0 0x43b-0x43c (1)
0x0430|                                    00 00 00   |            ... |                          flags: 0 0x43c-0x43f (3)
0x0430|                                             00|               .|                          entry_count: 0 0x43f-0x443 (4)
0x0440|00 00 00                                       |...             |
      |                                               |                |                          entries[0:0]: 0x443-0x443 (0)
      |                                               |                |        [3]{}: box 0x443-0x48b (72)
0x0440|         00 00 00 48                           |   ...H         |          size: 72 0x443-0x447 (4)
0x0440|                     6d 76 65 78               |       mvex     |          type: "mvex" (Movie extends box) 0x447-0x44b (4)
      |                                               |                |          boxes[0:2]: 0x44b-0x48b (64)
      |                                               |                |            [0]{}: box 0x44b-0x46b (32)
0x0440|                                 00 00 00 20   |           ...  |              size: 32 0x44b-0x44f (4)
0x0440|                                             74|               t|              type: "trex" (Track extends defaults) 0x44f-0x453 (4)
0x0450|72 65 78                                       |rex             |
0x0450|         00                                    |   .            |              version: 0 0x453-0x454 (1)
0x0450|            00 00 00                           |    ...         |              flags: 0 0x454-0x457 (3)
0x0450|                     00 00 00 01               |       ....     |              track_id: 1 0x457-0x45b (4)
0x0450|                                 00 00 00 01   |           .... |              default_sample_description_index: 1 0x45b-0x45f (4)
0x0450|                                             00|               .|              default_sample_duration: 0 0x45f-0x463 (4)
0x0460|00 00 00                                       |...             |
0x0460|         00 00 00 00                           |   ....         |              default_sample_size: 0 0x463-0x467 (4)
      |                                               |                |              default_sample_flags{}: 0x467-0x46b (4)
0x0460|                     00                        |       .        |                reserved0: 0 0x467-0x467.4 (0.4)
0x0460|                     00                        |       .        |                is_leading: 0 0x467.4-0x467.6 (0.2)
0x0460|                     00                        |       .        |                sample_depends_on: "unknown" (0) 0x467.6-0x468 (0.2)
0x0460|                        00                     |        .       |                sample_is_depended_on: "unknown" (0) 0x468-0x468.2 (0.2)
0x0460|                        00                     |        .       |                sample_has_redundancy: "unknown" (0) 0x468.2-0x468.4 (0.2)
0x0460|                        00                     |        .       |                sample_padding_value: 0 0x468.4-0x468.7 (0.3)
0x0460|                        00                     |        .       |                sample_is_non_sync_sample: 0 0x468.7-0x469 (0.1)
0x0460|                           00 00               |         ..     |                sample_degradation_priority: 0 0x469-0x46b (2)
      |                                               |                |            [1]{}: box 0x46b-0x48b (32)
0x0460|                                 00 00 00 20   |           ...  |              size: 32 0x46b-0x46f (4)
0x0460|                                             74|               t|              type: "trex" (Track extends defaults) 0x46f-0x473 (4)
0x0470|72 65 78                                       |rex             |
0x0470|         00                                    |   .            |              version: 0 0x473-0x474 (1)
0x0470|            00 00 00                           |    ...         |              flags: 0 0x474-0x477 (3)
0x0470|                     00 00 00 02               |       ....     |              track_id: 2 0x477-0x47b (4)
0x0470|                                 00 00 00 01   |           .... |              default_sample_description_index: 1 0x47b-0x47f (4)
0x0470|                                             00|               .|              default_sample_duration: 0 0x47f-0x483 (4)
0x0480|00 00 00                                       |...             |
0x0480|         00 00 00 00                           |   ....         |              default_sample_size: 0 0x483-0x487 (4)
      |                                               |                |              default_sample_flags{}: 0x487-0x48b (4)
0x0480|                     00                        |       .        |                reserved0: 0 0x487-0x487.4 (0.4)
0x0480|                     00                        |       .        |                is_leading: 0 0x487.4-0x487.6 (0.2)
0x0480|                     00                        |       .        |                sample_depends_on: "unknown" (0) 0x487.6-0x488 (0.2)
0x0480|                        00                     |        .       |                sample_is_depended_on: "unknown" (0) 0x488-0x488.2 (0.2)
0x0480|                        00                     |        .       |                sample_has_redundancy: "unknown" (0) 0x488.2-0x488.4 (0.2)
0x0480|                        00                     |        .       |                sample_padding_value: 0 0x488.4-0x488.7 (0.3)
0x0480|                        00                     |        .       |                sample_is_non_sync_sample: 0 0x488.7-0x489 (0.1)
0x0480|                           00 00               |         ..     |                sample_degradation_priority: 0 0x489-0x48b (2)
      |                                               |                |        [4]{}: box 0x48b-0x4ec (97)
0x0480|                                 00 00 00 61   |           ...a |          size: 97 0x48b-0x48f (4)
0x0480|                                             75|               u|          type: "udta" (User-data) 0x48f-0x493 (4)
0x0490|64 74 61                                       |dta             |
      |                                               |                |          boxes[0:1]: 0x493-0x4ec (89)
      |                                               |                |            [0]{}: box 0x493-0x4ec (89)
0x0490|         00 00 00 59                           |   ...Y         |              size: 89 0x493-0x497 (4)
0x0490|                     6d 65 74 61               |       meta     |              type: "meta" (Metadata container) 0x497-0x49b (4)
0x0490|                                 00 00 00 00   |           .... |              maybe_flags: 0 0x49b-0x49f (4)
      |                                               |                |              boxes[0:2]: 0x49f-0x4ec (77)
      |                                               |                |                [0]{}: box 0x49f-0x4c0 (33)
0x0490|                                             00|               .|                  size: 33 0x49f-0x4a3 (4)
0x04a0|00 00 21                                       |..!             |
0x04a0|         68 64 6c 72                           |   hdlr         |                  type: "hdlr" (Handler, declares the media (handler) type) 0x4a3-0x4a7 (4)
0x04a0|                     00                        |       .        |                  version: 0 0x4a7-0x4a8 (1)
0x04a0|                        00 00 00               |        ...     |                  flags: 0 0x4a8-0x4ab (3)
0x04a0|                                 00 00 00 00   |           .... |                  component_type: "" 0x4ab-0x4af (4)
0x04a0|                                             6d|               m|                  component_subtype: "mdir" (Metadata) 0x4af-0x4b3 (4)
0x04b0|64 69 72                                       |dir             |
0x04b0|         61 70 70 6c                           |   appl         |                  component_manufacturer: "appl" 0x4b3-0x4b7 (4)
0x04b0|                     00 00 00 00               |       ....     |                  component_flags: 0 0x4b7-0x4bb (4)
0x04b0|                                 00 00 00 00   |           .... |                  component_flags_mask: 0 0x4bb-0x4bf (4)
0x04b0|                                             00|               .|                  component_name: "" 0x4bf-0x4c0 (1)
      |                                               |                |                [1]{}: box 0x4c0-0x4ec (44)
0x04c0|00 00 00 2c                                    |...,            |                  size: 44 0x4c0-0x4c4 (4)
0x04c0|            69 6c 73 74                        |    ilst        |                  type: "ilst" 0x4c4-0x4c8 (4)
      |                                               |                |                  boxes[0:1]: 0x4c8-0x4ec (36)
      |                                               |                |                    [0]{}: box 0x4c8-0x4ec (36)
0x04c0|                        00 00 00 24            |        ...$    |                      size: 36 0x4c8-0x4cc (4)
0x04c0|                                    a9 74 6f 6f|            .too|                      type: "©too" (Encoder) 0x4cc-0x4d0 (4)
      |                                               |                |                      boxes[0:1]: 0x4d0-0x4ec (28)
      |                                               |                |                        [0]{}: box 0x4d0-0x4ec (28)
0x04d0|00 00 00 1c                                    |....            |                          size: 28 0x4d0-0x4d4 (4)
0x04d0|            64 61 74 61                        |    data        |                          type: "data" 0x4d4-0x4d8 (4)
0x04d0|                        00                     |        .       |                          version: 0 0x4d8-0x4d9 (1)
0x04d0|                           00 00 01            |         ...    |                          flags: 1 0x4d9-0x4dc (3)
0x04d0|                                    00 00 00 00|            ....|                          reserved: 0 0x4dc-0x4e0 (4)
0x04e0|4c 61 76 66 36 33 2e 31 2e 31 30 31            |Lavf63.1.101    |                          data: "Lavf63.1.101" 0x4e0-0x4ec (12)
      |                                               |                |    [2]{}: box 0x4ec-0x5bc (208)
0x04e0|                                    00 00 00 d0|            ....|      size: 208 0x4ec-0x4f0 (4)
0x04f0|6d 6f 6f 66                                    |moof            |      type: "moof" (Movie fragment) 0x4f0-0x4f4 (4)
      |                                               |                |      boxes[0:3]: 0x4f4-0x5bc (200)
      |                                               |                |        [0]{}: box 0x4f4-0x504 (16)
0x04f0|            00 00 00 10                        |    ....        |          size: 16 0x4f4-0x4f8 (4)
0x04f0|                        6d 66 68 64            |        mfhd    |          type: "mfhd" (Movie fragment header) 0x4f8-0x4fc (4)
0x04f0|                                    00         |            .   |          version: 0 0x4fc-0x4fd (1)
0x04f0|                                       00 00 00|             ...|          flags: 0 0x4fd-0x500 (3)
0x0500|00 00 00 01                                    |....            |          sequence_number: 1 0x500-0x504 (4)
      |                                               |                |        [1]{}: box 0x504-0x55c (88)
0x0500|            00 00 00 58                        |    ...X        |          size: 88 0x504-0x508 (4)
0x0500|                        74 72 61 66            |        traf    |          type: "traf" (Track fragment) 0x508-0x50c (4)
      |                                               |                |          boxes[0:3]: 0x50c-0x55c (80)
      |                                               |                |            [0]{}: box 0x50c-0x530 (36)
0x0500|                                    00 00 00 24|            ...$|              size: 36 0x50c-0x510 (4)
0x0510|74 66 68 64                                    |tfhd            |              type: "tfhd" (Track fragment header) 0x510-0x514 (4)
0x0510|            00                                 |    .           |              version: 0 0x514-0x515 (1)
      |                                               |                |              flags{}: 0x515-0x518 (3)
0x0510|               00                              |     .          |                unused0: 0 0x515-0x515.7 (0.7)
0x0510|               00                              |     .          |                duration_is_empty: false 0x515.7-0x516 (0.1)
0x0510|                  00 39                        |      .9        |                unused1: 0 0x516-0x517.2 (1.2)
0x0510|                     39                        |       9        |                default_sample_flags_present: true 0x517.2-0x517.3 (0.1)
0x0510|                     39                        |       9        |                default_sample_size_present: true 0x517.3-0x517.4 (0.1)
0x0510|                     39                        |       9        |                default_sample_duration_present: true 0x517.4-0x517.5 (0.1)
0x0510|                     39                        |       9        |                unused2: 0 0x517.5-0x517.6 (0.1)
0x0510|                     39                        |       9        |                sample_description_index_present: false 0x517.6-0x517.7 (0.1)
0x0510|                     39                        |       9        |                base_data_offset_present: true 0x517.7-0x518 (0.1)
0x0510|                        00 00 00 01            |        ....    |              track_id: 1 0x518-0x51c (4)
0x0510|                                    00 00 00 00|            ....|              base_data_offset: 1260 0x51c-0x524 (8)
0x0520|00 00 04 ec                                    |....            |
0x0520|            00 00 03 2a                        |    ...*        |              default_sample_duration: 810 0x524-0x528 (4)
0x0520|                        00 00 0d 89            |        ....    |              default_sample_size: 3465 0x528-0x52c (4)
      |                                               |                |              default_sample_flags{}: 0x52c-0x530 (4)
0x0520|                                    01         |            .   |                reserved0: 0 0x52c-0x52c.4 (0.4)
0x0520|                                    01         |            .   |                is_leading: 0 0x52c.4-0x52c.6 (0.2)
0x0520|                                    01         |            .   |                sample_depends_on: "other" (1) (Not I-picture) 0x52c.6-0x52d (0.2)
0x0520|                                       01      |             .  |                sample_is_depended_on: "unknown" (0) 0x52d-0x52d.2 (0.2)
0x0520|                                       01      |             .  |                sample_has_redundancy: "unknown" (0) 0x52d.2-0x52d.4 (0.2)
0x0520|                                       01      |             .  |                sample_padding_value: 0 0x52d.4-0x52d.7 (0.3)
0x0520|                                       01      |             .  |                sample_is_non_sync_sample: 1 0x52d.7-0x52e (0.1)
0x0520|                                          00 00|              ..|                sample_degradation_priority: 0 0x52e-0x530 (2)
      |                                               |                |            [1]{}: box 0x530-0x544 (20)
0x0530|00 00 00 14                                    |....            |              size: 20 0x530-0x534 (4)
0x0530|            74 66 64 74                        |    tfdt        |              type: "tfdt" (Track fragment decode time) 0x534-0x538 (4)
0x0530|                        01                     |        .       |              version: 1 0x538-0x539 (1)
0x0530|                           00 00 00            |         ...    |              flags: 0 0x539-0x53c (3)
0x0530|                                    00 00 00 00|            ....|              start_time: 0 0x53c-0x544 (8)
0x0540|00 00 00 00                                    |....            |
      |                                               |                |            [2]{}: box 0x544-0x55c (24)
0x0540|            00 00 00 18                        |    ....        |              size: 24 0x544-0x548 (4)
0x0540|                        74 72 75 6e            |        trun    |              type: "trun" (Track fragment run) 0x548-0x54c (4)
0x0540|                                    00         |            .   |              version: 0 0x54c-0x54d (1)
      |                                               |                |              flags{}: 0x54d-0x550 (3)
0x0540|                                       00 00   |             .. |                unused0: 0 0x54d-0x54e.4 (1.4)
0x0540|                                          00   |              . |                sample_composition_time_offsets_present: false 0x54e.4-0x54e.5 (0.1)
0x0540|                                          00   |              . |                sample_flags_present: false 0x54e.5-0x54e.6 (0.1)
0x0540|                                          00   |              . |                sample_size_present: false 0x54e.6-0x54e.7 (0.1)
0x0540|                                          00   |              . |                sample_duration_present: false 0x54e.7-0x54f (0.1)
0x0540|                                             05|               .|                unused1: 0 0x54f-0x54f.5 (0.5)
0x0540|                                             05|               .|                first_sample_flags_present: true 0x54f.5-0x54f.6 (0.1)
0x0540|                                             05|               .|                unused2: 0 0x54f.6-0x54f.7 (0.1)
0x0540|                                             05|               .|                data_offset_present: true 0x54f.7-0x550 (0.1)
0x0550|00 00 00 01                                    |....            |              sample_count: 1 0x550-0x554 (4)
0x0550|            00 00 00 d8                        |    ....        |              data_offset: 216 0x554-0x558 (4)
      |                                               |                |              first_sample_flags{}: 0x558-0x55c (4)
0x0550|                        02                     |        .       |                reserved0: 0 0x558-0x558.4 (0.4)
0x0550|                        02                     |        .       |                is_leading: 0 0x558.4-0x558.6 (0.2)
0x0550|                        02                     |        .       |                sample_depends_on: "none" (2) (Is I-picture) 0x558.6-0x559 (0.2)
0x0550|                           00                  |         .      |                sample_is_depended_on: "unknown" (0) 0x559-0x559.2 (0.2)
0x0550|                           00                  |         .      |                sample_has_redundancy: "unknown" (0) 0x559.2-0x559.4 (0.2)
0x0550|                           00                  |         .      |                sample_padding_value: 0 0x559.4-0x559.7 (0.3)
0x0550|                           00                  |         .      |                sample_is_non_sync_sample: 0 0x559.7-0x55a (0.1)
0x0550|                              00 00            |          ..    |                sample_degradation_priority: 0 0x55a-0x55c (2)
      |                                               |                |        [2]{}: box 0x55c-0x5bc (96)
0x0550|                                    00 00 00 60|            ...`|          size: 96 0x55c-0x560 (4)
0x0560|74 72 61 66                                    |traf            |          type: "traf" (Track fragment) 0x560-0x564 (4)
      |                                               |                |          boxes[0:3]: 0x564-0x5bc (88)
      |                                               |                |            [0]{}: box 0x564-0x588 (36)
0x0560|            00 00 00 24                        |    ...$        |              size: 36 0x564-0x568 (4)
0x0560|                        74 66 68 64            |        tfhd    |              type: "tfhd" (Track fragment header) 0x568-0x56c (4)
0x0560|                                    00         |            .   |              version: 0 0x56c-0x56d (1)
      |                                               |                |              flags{}: 0x56d-0x570 (3)
0x0560|                                       00      |             .  |                unused0: 0 0x56d-0x56d.7 (0.7)
0x0560|                                       00      |             .  |                duration_is_empty: false 0x56d.7-0x56e (0.1)
0x0560|                                          00 39|              .9|                unused1: 0 0x56e-0x56f.2 (1.2)
0x0560|                                             39|               9|                default_sample_flags_present: true 0x56f.2-0x56f.3 (0.1)
0x0560|                                             39|               9|                default_sample_size_present: true 0x56f.3-0x56f.4 (0.1)
0x0560|                                             39|               9|                default_sample_duration_present: true 0x56f.4-0x56f.5 (0.1)
0x0560|                                             39|               9|                unused2: 0 0x56f.5-0x56f.6 (0.1)
0x0560|                                             39|               9|                sample_description_index_present: false 0x56f.6-0x56f.7 (0.1)
0x0560|                                             39|               9|                base_data_offset_present: true 0x56f.7-0x570 (0.1)
0x0570|00 00 00 02                                    |....            |              track_id: 2 0x570-0x574 (4)
0x0570|            00 00 00 00 00 00 04 ec            |    ........    |              base_data_offset: 1260 0x574-0x57c (8)
0x0570|                                    00 00 04 00|            ....|              default_sample_duration: 1024 0x57c-0x580 (4)
0x0580|00 00 01 00                                    |....            |              default_sample_size: 256 0x580-0x584 (4)
      |                                               |                |              default_sample_flags{}: 0x584-0x588 (4)
0x0580|            02                                 |    .           |                reserved0: 0 0x584-0x584.4 (0.4)
0x0580|            02                                 |    .           |                is_leading: 0 0x584.4-0x584.6 (0.2)
0x0580|            02                                 |    .           |                sample_depends_on: "none" (2) (Is I-picture) 0x584.6-0x585 (0.2)
0x0580|               00                              |     .          |                sample_is_depended_on: "unknown" (0) 0x585-0x585.2 (0.2)
0x0580|               00                              |     .          |                sample_has_redundancy: "unknown" (0) 0x585.2-0x585.4 (0.2)
0x0580|               00                              |     .          |                sample_padding_value: 0 0x585.4-0x585.7 (0.3)
0x0580|               00                              |     .          |                sample_is_non_sync_sample: 0 0x585.7-0x586 (0.1)
0x0580|                  00 00                        |      ..        |                sample_degradation_priority: 0 0x586-0x588 (2)
      |                                               |                |            [1]{}: box 0x588-0x59c (20)
0x0580|                        00 00 00 14            |        ....    |              size: 20 0x588-0x58c (4)
0x0580|                                    74 66 64 74|            tfdt|              type: "tfdt" (Track fragment decode time) 0x58c-0x590 (4)
0x0590|01                                             |.               |              version: 1 0x590-0x591 (1)
0x0590|   00 00 00                                    | ...            |              flags: 0 0x591-0x594 (3)
0x0590|            00 00 00 00 00 00 00 00            |    ........    |              start_time: 0 0x594-0x59c (8)
      |                                               |                |            [2]{}: box 0x59c-0x5bc (32)
0x0590|                                    00 00 00 20|            ... |              size: 32 0x59c-0x5a0 (4)
0x05a0|74 72 75 6e                                    |trun            |              type: "trun" (Track fragment run) 0x5a0-0x5a4 (4)
0x05a0|            00                                 |    .           |              version: 0 0x5a4-0x5a5 (1)
      |                                               |                |              flags{}: 0x5a5-0x5a8 (3)
0x05a0|               00 02                           |     ..         |                unused0: 0 0x5a5-0x5a6.4 (1.4)
0x05a0|                  02                           |      .         |                sample_composition_time_offsets_present: false 0x5a6.4-0x5a6.5 (0.1)
0x05a0|                  02                           |      .         |                sample_flags_present: false 0x5a6.5-0x5a6.6 (0.1)
0x05a0|                  02                           |      .         |                sample_size_present: true 0x5a6.6-0x5a6.7 (0.1)
0x05a0|                  02                           |      .         |                sample_duration_present: false 0x5a6.7-0x5a7 (0.1)
0x05a0|                     01                        |       .        |                unused1: 0 0x5a7-0x5a7.5 (0.5)
0x05a0|                     01                        |       .        |                first_sample_flags_present: false 0x5a7.5-0x5a7.6 (0.1)
0x05a0|                     01                        |       .        |                unused2: 0 0x5a7.6-0x5a7.7 (0.1)
0x05a0|                     01                        |       .        |                data_offset_present: true 0x5a7.7-0x5a8 (0.1)
0x05a0|                        00 00 00 03            |        ....    |              sample_count: 3 0x5a8-0x5ac (4)
0x05a0|                                    00 00 0e 61|            ...a|              data_offset: 3681 0x5ac-0x5b0 (4)
      |                                               |                |              samples[0:3]: 0x5b0-0x5bc (12)
      |                                               |                |                [0]{}: sample 0x5b0-0x5b4 (4)
0x05b0|00 00 01 00                                    |....            |                  sample_size: 256 0x5b0-0x5b4 (4)
      |                                               |                |                [1]{}: sample 0x5b4-0x5b8 (4)
0x05b0|            00 00 01 02                        |    ....        |                  sample_size: 258 0x5b4-0x5b8 (4)
      |                                               |                |                [2]{}: sample 0x5b8-0x5bc (4)
0x05b0|                        00 00 00 99            |        ....    |                  sample_size: 153 0x5b8-0x5bc (4)
      |                                               |                |    [3]{}: box 0x5bc-0x15e8 (4140)
0x05b0|                                    00 00 10 2c|            ...,|      size: 4140 0x5bc-0x5c0 (4)
0x05c0|6d 64 61 74                                    |mdat            |      type: "mdat" (Media data container) 0x5c0-0x5c4 (4)
0x05c0|            00 00 02 5d 06 05 ff ff 59 dc 45 e9|    ...]....Y.E.|      data: raw bits 0x5c4-0x15e8 (4132)
0x05d0|bd e6 d9 48 b7 96 2c d8 20 d9 23 ee ef 78 32 36|...H..,. .#..x26|
*     |until 0x15e7.7 (4132)                          |                |
      |                                               |                |    [4]{}: box 0x15e8-0x16b4 (204)
0x15e0|                        00 00 00 cc            |        ....    |      size: 204 0x15e8-0x15ec (4)
0x15e0|                                    6d 6f 6f 66|            moof|      type: "moof" (Movie fragment) 0x15ec-0x15f0 (4)
      |                                               |                |      boxes[0:3]: 0x15f0-0x16b4 (196)
      |                                               |                |        [0]{}: box 0x15f0-0x1600 (16)
0x15f0|00 00 00 10                                    |....            |          size: 16 0x15f0-0x15f4 (4)
0x15f0|            6d 66 68 64                        |    mfhd        |          type: "mfhd" (Movie fragment header) 0x15f4-0x15f8 (4)
0x15f0|                        00                     |        .       |          version: 0 0x15f8-0x15f9 (1)
0x15f0|                           00 00 00            |         ...    |          flags: 0 0x15f9-0x15fc (3)
0x15f0|                                    00 00 00 02|            ....|          sequence_number: 2 0x15fc-0x1600 (4)
      |                                               |                |        [1]{}: box 0x1600-0x1658 (88)
0x1600|00 00 00 58                                    |...X            |          size: 88 0x1600-0x1604 (4)
0x1600|            74 72 61 66                        |    traf        |          type: "traf" (Track fragment) 0x1604-0x1608 (4)
      |                                               |                |          boxes[0:3]: 0x1608-0x1658 (80)
      |                                               |                |            [0]{}: box 0x1608-0x162c (36)
0x1600|                        00 00 00 24            |        ...$    |              size: 36 0x1608-0x160c (4)
0x1600|                                    74 66 68 64|            tfhd|              type: "tfhd" (Track fragment header) 0x160c-0x1610 (4)
0x1610|00                                             |.               |              version: 0 0x1610-0x1611 (1)
      |                                               |                |              flags{}: 0x1611-0x1614 (3)
0x1610|   00                                          | .              |                unused0: 0 0x1611-0x1611.7 (0.7)
0x1610|   00                                          | .              |                duration_is_empty: false 0x1611.7-0x1612 (0.1)
0x1610|      00 39                                    |  .9            |                unused1: 0 0x1612-0x1613.2 (1.2)
0x1610|         39                                    |   9            |                default_sample_flags_present: true 0x1613.2-0x1613.3 (0.1)
0x1610|         39                                    |   9            |                default_sample_size_present: true 0x1613.3-0x1613.4 (0.1)
0x1610|         39                                    |   9            |                default_sample_duration_present: true 0x1613.4-0x1613.5 (0.1)
0x1610|         39                                    |   9            |                unused2: 0 0x1613.5-0x1613.6 (0.1)
0x1610|         39                                    |   9            |                sample_description_index_present: false 0x1613.6-0x1613.7 (0.1)
0x1610|         39                                    |   9            |                base_data_offset_present: true 0x1613.7-0x1614 (0.1)
0x1610|            00 00 00 01                        |    ....        |              track_id: 1 0x1614-0x1618 (4)
0x1610|                        00 00 00 00 00 00 15 e8|        ........|              base_data_offset: 5608 0x1618-0x1620 (8)
0x1620|00 00 02 00                                    |....            |              default_sample_duration: 512 0x1620-0x1624 (4)
0x1620|            00 00 08 cb                        |    ....        |              default_sample_size: 2251 0x1624-0x1628 (4)
      |                                               |                |              default_sample_flags{}: 0x1628-0x162c (4)
0x1620|                        01                     |        .       |                reserved0: 0 0x1628-0x1628.4 (0.4)
0x1620|                        01                     |        .       |                is_leading: 0 0x1628.4-0x1628.6 (0.2)
0x1620|                        01                     |        .       |                sample_depends_on: "other" (1) (Not I-picture) 0x1628.6-0x1629 (0.2)
0x1620|                           01                  |         .      |                sample_is_depended_on: "unknown" (0) 0x1629-0x1629.2 (0.2)
0x1620|                           01                  |         .      |                sample_has_redundancy: "unknown" (0) 0x1629.2-0x1629.4 (0.2)
0x1620|                           01                  |         .      |                sample_padding_value: 0 0x1629.4-0x1629.7 (0.3)
0x1620|                           01                  |         .      |                sample_is_non_sync_sample: 1 0x1629.7-0x162a (0.1)
0x1620|                              00 00            |          ..    |                sample_degradation_priority: 0 0x162a-0x162c (2)
      |                                               |                |            [1]{}: box 0x162c-0x1640 (20)
0x1620|                                    00 00 00 14|            ....|              size: 20 0x162c-0x1630 (4)
0x1630|74 66 64 74                                    |tfdt            |              type: "tfdt" (Track fragment decode time) 0x1630-0x1634 (4)
0x1630|            01                                 |    .           |              version: 1 0x1634-0x1635 (1)
0x1630|               00 00 00                        |     ...        |              flags: 0 0x1635-0x1638 (3)
0x1630|                        00 00 00 00 00 00 03 2a|        .......*|              start_time: 810 0x1638-0x1640 (8)
      |                                               |                |            [2]{}: box 0x1640-0x1658 (24)
0x1640|00 00 00 18                                    |....            |              size: 24 0x1640-0x1644 (4)
0x1640|            74 72 75 6e                        |    trun        |              type: "trun" (Track fragment run) 0x1644-0x1648 (4)
0x1640|                        00                     |        .       |              version: 0 0x1648-0x1649 (1)
      |                                               |                |              flags{}: 0x1649-0x164c (3)
0x1640|                           00 00               |         ..     |                unused0: 0 0x1649-0x164a.4 (1.4)
0x1640|                              00               |          .     |                sample_composition_time_offsets_present: false 0x164a.4-0x164a.5 (0.1)
0x1640|                              00               |          .     |                sample_flags_present: false 0x164a.5-0x164a.6 (0.1)
0x1640|                              00               |          .     |                sample_size_present: false 0x164a.6-0x164a.7 (0.1)
0x1640|                              00               |          .     |                sample_duration_present: false 0x164a.7-0x164b (0.1)
0x1640|                                 05            |           .    |                unused1: 0 0x164b-0x164b.5 (0.5)
0x1640|                                 05            |           .    |                first_sample_flags_present: true 0x164b.5-0x164b.6 (0.1)
0x1640|                                 05            |           .    |                unused2: 0 0x164b.6-0x164b.7 (0.1)
0x1640|                                 05            |           .    |                data_offset_present: true 0x164b.7-0x164c (0.1)
0x1640|                                    00 00 00 01|            ....|              sample_count: 1 0x164c-0x1650 (4)
0x1650|00 00 00 d4                                    |....            |              data_offset: 212 0x1650-0x1654 (4)
      |                                               |                |              first_sample_flags{}: 0x1654-0x1658 (4)
0x1650|            02                                 |    .           |                reserved0: 0 0x1654-0x1654.4 (0.4)
0x1650|            02                                 |    .           |                is_leading: 0 0x1654.4-0x1654.6 (0.2)
0x1650|            02                                 |    .           |                sample_depends_on: "none" (2) (Is I-picture) 0x1654.6-0x1655 (0.2)
0x1650|               00                              |     .          |                sample_is_depended_on: "unknown" (0) 0x1655-0x1655.2 (0.2)
0x1650|               00                              |     .          |                sample_has_redundancy: "unknown" (0) 0x1655.2-0x1655.4 (0.2)
0x1650|               00                              |     .          |                sample_padding_value: 0 0x1655.4-0x1655.7 (0.3)
0x1650|               00                              |     .          |                sample_is_non_sync_sample: 0 0x1655.7-0x1656 (0.1)
0x1650|                  00 00                        |      ..        |                sample_degradation_priority: 0 0x1656-0x1658 (2)
      |                                               |                |        [2]{}: box 0x1658-0x16b4 (92)
0x1650|                        00 00 00 5c            |        ...\    |          size: 92 0x1658-0x165c (4)
0x1650|                                    74 72 61 66|            traf|          type: "traf" (Track fragment) 0x165c-0x1660 (4)
      |                                               |                |          boxes[0:3]: 0x1660-0x16b4 (84)
      |                                               |                |            [0]{}: box 0x1660-0x1684 (36)
0x1660|00 00 00 24                                    |...$            |              size: 36 0x1660-0x1664 (4)
0x1660|            74 66 68 64                        |    tfhd        |              type: "tfhd" (Track fragment header) 0x1664-0x1668 (4)
0x1660|                        00                     |        .       |              version: 0 0x1668-0x1669 (1)
      |                                               |                |              flags{}: 0x1669-0x166c (3)
0x1660|                           00                  |         .      |                unused0: 0 0x1669-0x1669.7 (0.7)
0x1660|                           00                  |         .      |                duration_is_empty: false 0x1669.7-0x166a (0.1)
0x1660|                              00 39            |          .9    |                unused1: 0 0x166a-0x166b.2 (1.2)
0x1660|                                 39            |           9    |                default_sample_flags_present: true 0x166b.2-0x166b.3 (0.1)
0x1660|                                 39            |           9    |                default_sample_size_present: true 0x166b.3-0x166b.4 (0.1)
0x1660|                                 39            |           9    |                default_sample_duration_present: true 0x166b.4-0x166b.5 (0.1)
0x1660|                                 39            |           9    |                unused2: 0 0x166b.5-0x166b.6 (0.1)
0x1660|                                 39            |           9    |                sample_description_index_present: false 0x166b.6-0x166b.7 (0.1)
0x1660|                                 39            |           9    |                base_data_offset_present: true 0x166b.7-0x166c (0.1)
0x1660|                                    00 00 00 02|            ....|              track_id: 2 0x166c-0x1670 (4)
0x1670|00 00 00 00 00 00 15 e8                        |........        |              base_data_offset: 5608 0x1670-0x1678 (8)
0x1670|                        00 00 04 00            |        ....    |              default_sample_duration: 1024 0x1678-0x167c (4)
0x1670|                                    00 00 00 b1|            ....|              default_sample_size: 177 0x167c-0x1680 (4)
      |                                               |                |              default_sample_flags{}: 0x1680-0x1684 (4)
0x1680|02                                             |.               |                reserved0: 0 0x1680-0x1680.4 (0.4)
0x1680|02                                             |.               |                is_leading: 0 0x1680.4-0x1680.6 (0.2)
0x1680|02                                             |.               |                sample_depends_on: "none" (2) (Is I-picture) 0x1680.6-0x1681 (0.2)
0x1680|   00                                          | .              |                sample_is_depended_on: "unknown" (0) 0x1681-0x1681.2 (0.2)
0x1680|   00                                          | .              |                sample_has_redundancy: "unknown" (0) 0x1681.2-0x1681.4 (0.2)
0x1680|   00                                          | .              |                sample_padding_value: 0 0x1681.4-0x1681.7 (0.3)
0x1680|   00                                          | .              |                sample_is_non_sync_sample: 0 0x1681.7-0x1682 (0.1)
0x1680|      00 00                                    |  ..            |                sample_degradation_priority: 0 0x1682-0x1684 (2)
      |                                               |                |            [1]{}: box 0x1684-0x1698 (20)
0x1680|            00 00 00 14                        |    ....        |              size: 20 0x1684-0x1688 (4)
0x1680|                        74 66 64 74            |        tfdt    |              type: "tfdt" (Track fragment decode time) 0x1688-0x168c (4)
0x1680|                                    01         |            .   |              version: 1 0x168c-0x168d (1)
0x1680|                                       00 00 00|             ...|              flags: 0 0x168d-0x1690 (3)
0x1690|00 00 00 00 00 00 0c 00                        |........        |              start_time: 3072 0x1690-0x1698 (8)
      |                                               |                |            [2]{}: box 0x1698-0x16b4 (28)
0x1690|                        00 00 00 1c            |        ....    |              size: 28 0x1698-0x169c (4)
0x1690|                                    74 72 75 6e|            trun|              type: "trun" (Track fragment run) 0x169c-0x16a0 (4)
0x16a0|00                                             |.               |              version: 0 0x16a0-0x16a1 (1)
      |                                               |                |              flags{}: 0x16a1-0x16a4 (3)
0x16a0|   00 02                                       | ..             |                unused0: 0 0x16a1-0x16a2.4 (1.4)
0x16a0|      02                                       |  .             |                sample_composition_time_offsets_present: false 0x16a2.4-0x16a2.5 (0.1)
0x16a0|      02                                       |  .             |                sample_flags_present: false 0x16a2.5-0x16a2.6 (0.1)
0x16a0|      02                                       |  .             |                sample_size_present: true 0x16a2.6-0x16a2.7 (0.1)
0x16a0|      02                                       |  .             |                sample_duration_present: false 0x16a2.7-0x16a3 (0.1)
0x16a0|         01                                    |   .            |                unused1: 0 0x16a3-0x16a3.5 (0.5)
0x16a0|         01                                    |   .            |                first_sample_flags_present: false 0x16a3.5-0x16a3.6 (0.1)
0x16a0|         01                                    |   .            |                unused2: 0 0x16a3.6-0x16a3.7 (0.1)
0x16a0|         01                                    |   .            |                data_offset_present: true 0x16a3.7-0x16a4 (0.1)
0x16a0|            00 00 00 02                        |    ....        |              sample_count: 2 0x16a4-0x16a8 (4)
0x16a0|                        00 00 09 9f            |        ....    |              data_offset: 2463 0x16a8-0x16ac (4)
      |                                               |                |              samples[0:2]: 0x16ac-0x16b4 (8)
      |                                               |                |                [0]{}: sample 0x16ac-0x16b0 (4)
0x16a0|                                    00 00 00 b1|            ....|                  sample_size: 177 0x16ac-0x16b0 (4)
      |                                               |                |                [1]{}: sample 0x16b0-0x16b4 (4)
0x16b0|00 00 01 10                                    |....            |                  sample_size: 272 0x16b0-0x16b4 (4)
      |                                               |                |    [5]{}: box 0x16b4-0x2148 (2708)
0x16b0|            00 00 0a 94                        |    ....        |      size: 2708 0x16b4-0x16b8 (4)
0x16b0|                        6d 64 61 74            |        mdat    |      type: "mdat" (Media data container) 0x16b8-0x16bc (4)
0x16b0|                                    00 00 08 c7|            ....|      data: raw bits 0x16bc-0x2148 (2700)
0x16c0|65 88 82 03 3f fe f6 86 f8 14 d8 53 23 af ff f2|e...?......S#...|
*     |until 0x2147.7 (2700)                          |                |
      |                                               |                |    [6]{}: box 0x2148-0x220c (196)
0x2140|                        00 00 00 c4            |        ....    |      size: 196 0x2148-0x214c (4)
0x2140|                                    6d 6f 6f 66|            moof|      type: "moof" (Movie fragment) 0x214c-0x2150 (4)
      |                                               |                |      boxes[0:3]: 0x2150-0x220c (188)
      |                                               |                |        [0]{}: box 0x2150-0x2160 (16)
0x2150|00 00 00 10                                    |....            |          size: 16 0x2150-0x2154 (4)
0x2150|            6d 66 68 64                        |    mfhd        |          type: "mfhd" (Movie fragment header) 0x2154-0x2158 (4)
0x2150|                        00                     |        .       |          version: 0 0x2158-0x2159 (1)
0x2150|                           00 00 00            |         ...    |          flags: 0 0x2159-0x215c (3)
0x2150|                                    00 00 00 03|            ....|          sequence_number: 3 0x215c-0x2160 (4)
      |                                               |                |        [1]{}: box 0x2160-0x21b8 (88)
0x2160|00 00 00 58                                    |...X            |          size: 88 0x2160-0x2164 (4)
0x2160|            74 72 61 66                        |    traf        |          type: "traf" (Track fragment) 0x2164-0x2168 (4)
      |                                               |                |          boxes[0:3]: 0x2168-0x21b8 (80)
      |                                               |                |            [0]{}: box 0x2168-0x218c (36)
0x2160|                        00 00 00 24            |        ...$    |              size: 36 0x2168-0x216c (4)
0x2160|                                    74 66 68 64|            tfhd|              type: "tfhd" (Track fragment header) 0x216c-0x2170 (4)
0x2170|00                                             |.               |              version: 0 0x2170-0x2171 (1)
      |                                               |                |              flags{}: 0x2171-0x2174 (3)
0x2170|   00                                          | .              |                unused0: 0 0x2171-0x2171.7 (0.7)
0x2170|   00                                          | .              |                duration_is_empty: false 0x2171.7-0x2172 (0.1)
0x2170|      00 39                                    |  .9            |                unused1: 0 0x2172-0x2173.2 (1.2)
0x2170|         39                                    |   9            |                default_sample_flags_present: true 0x2173.2-0x2173.3 (0.1)
0x2170|         39                                    |   9            |                default_sample_size_present: true 0x2173.3-0x2173.4 (0.1)
0x2170|         39                                    |   9            |                default_sample_duration_present: true 0x2173.4-0x2173.5 (0.1)
0x2170|         39                                    |   9            |                unused2: 0 0x2173.5-0x2173.6 (0.1)
0x2170|         39                                    |   9            |                sample_description_index_present: false 0x2173.6-0x2173.7 (0.1)
0x2170|         39                                    |   9            |                base_data_offset_present: true 0x2173.7-0x2174 (0.1)
0x2170|            00 00 00 01                        |    ....        |              track_id: 1 0x2174-0x2178 (4)
0x2170|                        00 00 00 00 00 00 21 48|        ......!H|              base_data_offset: 8520 0x2178-0x2180 (8)
0x2180|00 00 02 00                                    |....            |              default_sample_duration: 512 0x2180-0x2184 (4)
0x2180|            00 00 08 ba                        |    ....        |              default_sample_size: 2234 0x2184-0x2188 (4)
      |                                               |                |              default_sample_flags{}: 0x2188-0x218c (4)
0x2180|                        01                     |        .       |                reserved0: 0 0x2188-0x2188.4 (0.4)
0x2180|                        01                     |        .       |                is_leading: 0 0x2188.4-0x2188.6 (0.2)
0x2180|                        01                     |        .       |                sample_depends_on: "other" (1) (Not I-picture) 0x2188.6-0x2189 (0.2)
0x2180|                           01                  |         .      |                sample_is_depended_on: "unknown" (0) 0x2189-0x2189.2 (0.2)
0x2180|                           01                  |         .      |                sample_has_redundancy: "unknown" (0) 0x2189.2-0x2189.4 (0.2)
0x2180|                           01                  |         .      |                sample_padding_value: 0 0x2189.4-0x2189.7 (0.3)
0x2180|                           01                  |         .      |                sample_is_non_sync_sample: 1 0x2189.7-0x218a (0.1)
0x2180|                              00 00            |          ..    |                sample_degradation_priority: 0 0x218a-0x218c (2)
      |                                               |                |            [1]{}: box 0x218c-0x21a0 (20)
0x2180|                                    00 00 00 14|            ....|              size: 20 0x218c-0x2190 (4)
0x2190|74 66 64 74                                    |tfdt            |              type: "tfdt" (Track fragment decode time) 0x2190-0x2194 (4)
0x2190|            01                                 |    .           |              version: 1 0x2194-0x2195 (1)
0x2190|               00 00 00                        |     ...        |              flags: 0 0x2195-0x2198 (3)
0x2190|                        00 00 00 00 00 00 05 2a|        .......*|              start_time: 1322 0x2198-0x21a0 (8)
      |                                               |                |            [2]{}: box 0x21a0-0x21b8 (24)
0x21a0|00 00 00 18                                    |....            |              size: 24 0x21a0-0x21a4 (4)
0x21a0|            74 72 75 6e                        |    trun        |              type: "trun" (Track fragment run) 0x21a4-0x21a8 (4)
0x21a0|                        00                     |        .       |              version: 0 0x21a8-0x21a9 (1)
      |                                               |                |              flags{}: 0x21a9-0x21ac (3)
0x21a0|                           00 00               |         ..     |                unused0: 0 0x21a9-0x21aa.4 (1.4)
0x21a0|                              00               |          .     |                sample_composition_time_offsets_present: false 0x21aa.4-0x21aa.5 (0.1)
0x21a0|                              00               |          .     |                sample_flags_present: false 0x21aa.5-0x21aa.6 (0.1)
0x21a0|                              00               |          .     |                sample_size_present: false 0x21aa.6-0x21aa.7 (0.1)
0x21a0|                              00               |          .     |                sample_duration_present: false 0x21aa.7-0x21ab (0.1)
0x21a0|                                 05            |           .    |                unused1: 0 0x21ab-0x21ab.5 (0.5)
0x21a0|                                 05            |           .    |                first_sample_flags_present: true 0x21ab.5-0x21ab.6 (0.1)
0x21a0|                                 05            |           .    |                unused2: 0 0x21ab.6-0x21ab.7 (0.1)
0x21a0|                                 05            |           .    |                data_offset_present: true 0x21ab.7-0x21ac (0.1)
0x21a0|                                    00 00 00 01|            ....|              sample_count: 1 0x21ac-0x21b0 (4)
0x21b0|00 00 00 cc                                    |....            |              data_offset: 204 0x21b0-0x21b4 (4)
      |                                               |                |              first_sample_flags{}: 0x21b4-0x21b8 (4)
0x21b0|            02                                 |    .           |                reserved0: 0 0x21b4-0x21b4.4 (0.4)
0x21b0|            02                                 |    .           |                is_leading: 0 0x21b4.4-0x21b4.6 (0.2)
0x21b0|            02                                 |    .           |                sample_depends_on: "none" (2) (Is I-picture) 0x21b4.6-0x21b5 (0.2)
0x21b0|               00                              |     .          |                sample_is_depended_on: "unknown" (0) 0x21b5-0x21b5.2 (0.2)
0x21b0|               00                              |     .          |                sample_has_redundancy: "unknown" (0) 0x21b5.2-0x21b5.4 (0.2)
0x21b0|               00                              |     .          |                sample_padding_value: 0 0x21b5.4-0x21b5.7 (0.3)
0x21b0|               00                              |     .          |                sample_is_non_sync_sample: 0 0x21b5.7-0x21b6 (0.1)
0x21b0|                  00 00                        |      ..        |                sample_degradation_priority: 0 0x21b6-0x21b8 (2)
      |                                               |                |        [2]{}: box 0x21b8-0x220c (84)
0x21b0|                        00 00 00 54            |        ...T    |          size: 84 0x21b8-0x21bc (4)
0x21b0|                                    74 72 61 66|            traf|          type: "traf" (Track fragment) 0x21bc-0x21c0 (4)
      |                                               |                |          boxes[0:3]: 0x21c0-0x220c (76)
      |                                               |                |            [0]{}: box 0x21c0-0x21e4 (36)
0x21c0|00 00 00 24                                    |...$            |              size: 36 0x21c0-0x21c4 (4)
0x21c0|            74 66 68 64                        |    tfhd        |              type: "tfhd" (Track fragment header) 0x21c4-0x21c8 (4)
0x21c0|                        00                     |        .       |              version: 0 0x21c8-0x21c9 (1)
      |                                               |                |              flags{}: 0x21c9-0x21cc (3)
0x21c0|                           00                  |         .      |                unused0: 0 0x21c9-0x21c9.7 (0.7)
0x21c0|                           00                  |         .      |                duration_is_empty: false 0x21c9.7-0x21ca (0.1)
0x21c0|                              00 39            |          .9    |                unused1: 0 0x21ca-0x21cb.2 (1.2)
0x21c0|                                 39            |           9    |                default_sample_flags_present: true 0x21cb.2-0x21cb.3 (0.1)
0x21c0|                                 39            |           9    |                default_sample_size_present: true 0x21cb.3-0x21cb.4 (0.1)
0x21c0|                                 39            |           9    |                default_sample_duration_present: true 0x21cb.4-0x21cb.5 (0.1)
0x21c0|                                 39            |           9    |                unused2: 0 0x21cb.5-0x21cb.6 (0.1)
0x21c0|                                 39            |           9    |                sample_description_index_present: false 0x21cb.6-0x21cb.7 (0.1)
0x21c0|                                 39            |           9    |                base_data_offset_present: true 0x21cb.7-0x21cc (0.1)
0x21c0|                                    00 00 00 02|            ....|              track_id: 2 0x21cc-0x21d0 (4)
0x21d0|00 00 00 00 00 00 21 48                        |......!H        |              base_data_offset: 8520 0x21d0-0x21d8 (8)
0x21d0|                        00 00 01 3a            |        ...:    |              default_sample_duration: 314 0x21d8-0x21dc (4)
0x21d0|                                    00 00 00 05|            ....|              default_sample_size: 5 0x21dc-0x21e0 (4)
      |                                               |                |              default_sample_flags{}: 0x21e0-0x21e4 (4)
0x21e0|02                                             |.               |                reserved0: 0 0x21e0-0x21e0.4 (0.4)
0x21e0|02                                             |.               |                is_leading: 0 0x21e0.4-0x21e0.6 (0.2)
0x21e0|02                                             |.               |                sample_depends_on: "none" (2) (Is I-picture) 0x21e0.6-0x21e1 (0.2)
0x21e0|   00                                          | .              |                sample_is_depended_on: "unknown" (0) 0x21e1-0x21e1.2 (0.2)
0x21e0|   00                                          | .              |                sample_has_redundancy: "unknown" (0) 0x21e1.2-0x21e1.4 (0.2)
0x21e0|   00                                          | .              |                sample_padding_value: 0 0x21e1.4-0x21e1.7 (0.3)
0x21e0|   00                                          | .              |                sample_is_non_sync_sample: 0 0x21e1.7-0x21e2 (0.1)
0x21e0|      00 00                                    |  ..            |                sample_degradation_priority: 0 0x21e2-0x21e4 (2)
      |                                               |                |            [1]{}: box 0x21e4-0x21f8 (20)
0x21e0|            00 00 00 14                        |    ....        |              size: 20 0x21e4-0x21e8 (4)
0x21e0|                        74 66 64 74            |        tfdt    |              type: "tfdt" (Track fragment decode time) 0x21e8-0x21ec (4)
0x21e0|                                    01         |            .   |              version: 1 0x21ec-0x21ed (1)
0x21e0|                                       00 00 00|             ...|              flags: 0 0x21ed-0x21f0 (3)
0x21f0|00 00 00 00 00 00 14 00                        |........        |              start_time: 5120 0x21f0-0x21f8 (8)
      |                                               |                |            [2]{}: box 0x21f8-0x220c (20)
0x21f0|                        00 00 00 14            |        ....    |              size: 20 0x21f8-0x21fc (4)
0x21f0|                                    74 72 75 6e|            trun|              type: "trun" (Track fragment run) 0x21fc-0x2200 (4)
0x2200|00                                             |.               |              version: 0 0x2200-0x2201 (1)
      |                                               |                |              flags{}: 0x2201-0x2204 (3)
0x2200|   00 00                                       | ..             |                unused0: 0 0x2201-0x2202.4 (1.4)
0x2200|      00                                       |  .             |                sample_composition_time_offsets_present: false 0x2202.4-0x2202.5 (0.1)
0x2200|      00                                       |  .             |                sample_flags_present: false 0x2202.5-0x2202.6 (0.1)
0x2200|      00                                       |  .             |                sample_size_present: false 0x2202.6-0x2202.7 (0.1)
0x2200|      00                                       |  .             |                sample_duration_present: false 0x2202.7-0x2203 (0.1)
0x2200|         01                                    |   .            |                unused1: 0 0x2203-0x2203.5 (0.5)
0x2200|         01                                    |   .            |                first_sample_flags_present: false 0x2203.5-0x2203.6 (0.1)
0x2200|         01                                    |   .            |                unused2: 0 0x2203.6-0x2203.7 (0.1)
0x2200|         01                                    |   .            |                data_offset_present: true 0x2203.7-0x2204 (0.1)
0x2200|            00 00 00 01                        |    ....        |              sample_count: 1 0x2204-0x2208 (4)
0x2200|                        00 00 09 86            |        ....    |              data_offset: 2438 0x2208-0x220c (4)
      |                                               |                |    [7]{}: box 0x220c-0x2ad3 (2247)
0x2200|                                    00 00 08 c7|            ....|      size: 2247 0x220c-0x2210 (4)
0x2210|6d 64 61 74                                    |mdat            |      type: "mdat" (Media data container) 0x2210-0x2214 (4)
0x2210|            00 00 08 b6 65 88 84 0c ff fe f6 86|    ....e.......|      data: raw bits 0x2214-0x2ad3 (2239)
0x2220|f8 14 d8 53 23 af ff f2 50 06 7f 30 02 17 55 d4|...S#...P..0..U.|
*     |until 0x2ad2.7 (2239)                          |                |
      |                                               |                |    [8]{}: box 0x2ad3-0x2b8d (186)
0x2ad0|         00 00 00 ba                           |   ....         |      size: 186 0x2ad3-0x2ad7 (4)
0x2ad0|                     6d 66 72 61               |       mfra     |      type: "mfra" (Movie fragment random access) 0x2ad7-0x2adb (4)
      |                                               |                |      boxes[0:3]: 0x2adb-0x2b8d (178)
      |                                               |                |        [0]{}: box 0x2adb-0x2b2c (81)
0x2ad0|                                 00 00 00 51   |           ...Q |          size: 81 0x2adb-0x2adf (4)
0x2ad0|                                             74|               t|          type: "tfra" (Track fragment radom access) 0x2adf-0x2ae3 (4)
0x2ae0|66 72 61                                       |fra             |
0x2ae0|         01                                    |   .            |          version: 1 0x2ae3-0x2ae4 (1)
0x2ae0|            00 00 00                           |    ...         |          flags: 0 0x2ae4-0x2ae7 (3)
0x2ae0|                     00 00 00 01               |       ....     |          track_id: 1 0x2ae7-0x2aeb (4)
0x2ae0|                                 00 00 00 00   |           .... |          reserved: 0 0x2aeb-0x2aee.2 (3.2)
0x2ae0|                                          00   |              . |          length_size_of_traf_num: 0 0x2aee.2-0x2aee.4 (0.2)
0x2ae0|                                          00   |              . |          sample_length_size_of_trun_num: 0 0x2aee.4-0x2aee.6 (0.2)
0x2ae0|                                          00   |              . |          length_size_of_sample_num: 0 0x2aee.6-0x2aef (0.2)
0x2ae0|                                             00|               .|          entry_count: 3 0x2aef-0x2af3 (4)
0x2af0|00 00 03                                       |...             |
      |                                               |                |          entries[0:3]: 0x2af3-0x2b2c (57)
      |                                               |                |            [0]{}: entry 0x2af3-0x2b06 (19)
0x2af0|         00 00 00 00 00 00 00 00               |   ........     |              time: 0 0x2af3-0x2afb (8)
0x2af0|                                 00 00 00 00 00|           .....|              moof_offset: 1260 0x2afb-0x2b03 (8)
0x2b00|00 04 ec                                       |...             |
0x2b00|         01                                    |   .            |              traf_number: 1 0x2b03-0x2b04 (1)
0x2b00|            01                                 |    .           |              trun_number: 1 0x2b04-0x2b05 (1)
0x2b00|               01                              |     .          |              sample_number: 1 0x2b05-0x2b06 (1)
      |                                               |                |            [1]{}: entry 0x2b06-0x2b19 (19)
0x2b00|                  00 00 00 00 00 00 03 2a      |      .......*  |              time: 810 0x2b06-0x2b0e (8)
0x2b00|                                          00 00|              ..|              moof_offset: 5608 0x2b0e-0x2b16 (8)
0x2b10|00 00 00 00 15 e8                              |......          |
0x2b10|                  01                           |      .         |              traf_number: 1 0x2b16-0x2b17 (1)
0x2b10|                     01                        |       .        |              trun_number: 1 0x2b17-0x2b18 (1)
0x2b10|                        01                     |        .       |              sample_number: 1 0x2b18-0x2b19 (1)
      |                                               |                |            [2]{}: entry 0x2b19-0x2b2c (19)
0x2b10|                           00 00 00 00 00 00 05|         .......|              time: 1322 0x2b19-0x2b21 (8)
0x2b20|2a                                             |*               |
0x2b20|   00 00 00 00 00 00 21 48                     | ......!H       |              moof_offset: 8520 0x2b21-0x2b29 (8)
0x2b20|                           01                  |         .      |              traf_number: 1 0x2b29-0x2b2a (1)
0x2b20|                              01               |          .     |              trun_number: 1 0x2b2a-0x2b2b (1)
0x2b20|                                 01            |           .    |              sample_number: 1 0x2b2b-0x2b2c (1)
      |                                               |                |        [1]{}: box 0x2b2c-0x2b7d (81)
0x2b20|                                    00 00 00 51|            ...Q|          size: 81 0x2b2c-0x2b30 (4)
0x2b30|74 66 72 61                                    |tfra            |          type: "tfra" (Track fragment radom access) 0x2b30-0x2b34 (4)
0x2b30|            01                                 |    .           |          version: 1 0x2b34-0x2b35 (1)
0x2b30|               00 00 00                        |     ...        |          flags: 0 0x2b35-0x2b38 (3)
0x2b30|                        00 00 00 02            |        ....    |          track_id: 2 0x2b38-0x2b3c (4)
0x2b30|                                    00 00 00 00|            ....|          reserved: 0 0x2b3c-0x2b3f.2 (3.2)
0x2b30|                                             00|               .|          length_size_of_traf_num: 0 0x2b3f.2-0x2b3f.4 (0.2)
0x2b30|                                             00|               .|          sample_length_size_of_trun_num: 0 0x2b3f.4-0x2b3f.6 (0.2)
0x2b30|                                             00|               .|          length_size_of_sample_num: 0 0x2b3f.6-0x2b40 (0.2)
0x2b40|00 00 00 03                                    |....            |          entry_count: 3 0x2b40-0x2b44 (4)
      |                                               |                |          entries[0:3]: 0x2b44-0x2b7d (57)
      |                                               |                |            [0]{}: entry 0x2b44-0x2b57 (19)
0x2b40|            00 00 00 00 00 00 00 00            |    ........    |              time: 0 0x2b44-0x2b4c (8)
0x2b40|                                    00 00 00 00|            ....|              moof_offset: 1260 0x2b4c-0x2b54 (8)
0x2b50|00 00 04 ec                                    |....            |
0x2b50|            01                                 |    .           |              traf_number: 1 0x2b54-0x2b55 (1)
0x2b50|               01                              |     .          |              trun_number: 1 0x2b55-0x2b56 (1)
0x2b50|                  01                           |      .         |              sample_number: 1 0x2b56-0x2b57 (1)
      |                                               |                |            [1]{}: entry 0x2b57-0x2b6a (19)
0x2b50|                     00 00 00 00 00 00 0c 00   |       ........ |              time: 3072 0x2b57-0x2b5f (8)
0x2b50|                                             00|               .|              moof_offset: 5608 0x2b5f-0x2b67 (8)
0x2b60|00 00 00 00 00 15 e8                           |.......         |
0x2b60|                     01                        |       .        |              traf_number: 1 0x2b67-0x2b68 (1)
0x2b60|                        01                     |        .       |              trun_number: 1 0x2b68-0x2b69 (1)
0x2b60|                           01                  |         .      |              sample_number: 1 0x2b69-0x2b6a (1)
      |                                               |                |            [2]{}: entry 0x2b6a-0x2b7d (19)
0x2b60|                              00 00 00 00 00 00|          ......|              time: 5120 0x2b6a-0x2b72 (8)
0x2b70|14 00                                          |..              |
0x2b70|      00 00 00 00 00 00 21 48                  |  ......!H      |              moof_offset: 8520 0x2b72-0x2b7a (8)
0x2b70|                              01               |          .     |              traf_number: 1 0x2b7a-0x2b7b (1)
0x2b70|                                 01            |           .    |              trun_number: 1 0x2b7b-0x2b7c (1)
0x2b70|                                    01         |            .   |              sample_number: 1 0x2b7c-0x2b7d (1)
      |                                               |                |        [2]{}: box 0x2b7d-0x2b8d (16)
0x2b70|                                       00 00 00|             ...|          size: 16 0x2b7d-0x2b81 (4)
0x2b80|10                                             |.               |
0x2b80|   6d 66 72 6f                                 | mfro           |          type: "mfro" (Movie fragment random access offset) 0x2b81-0x2b85 (4)
0x2b80|               00                              |     .          |          version: 0 0x2b85-0x2b86 (1)
0x2b80|                  00 00 00                     |      ...       |          flags: 0 0x2b86-0x2b89 (3)
0x2b80|                           00 00 00 ba|        |         ....|  |          mfra_size: 186 0x2b89-0x2b8d (4)
      |                                               |                |  tracks[0:2]: 0x5c4-0x2ad3 (9487)
      |                                               |                |    [0]{}: track 0x5c4-0x2ace (9482)
      |                                               |                |      samples[0:3]: 0x5c4-0x2ace (9482)
      |00 01 02 03 04 05 06 07 08 09 0a 0b 0c 0d 0e 0f|0123456789abcdef|        [0][0:2]: sample (avc_au) 0x5c4-0x134d (3465)
      |                                               |                |          [0]{}: nalu 0x5c4-0x825 (609)
0x05c0|            00 00 02 5d                        |    ...]        |            length: 605 0x5c4-0x5c8 (4)
      |00 01 02 03 04 05 06 07 08 09 0a 0b 0c 0d 0e 0f|0123456789abcdef|            nalu{}: (avc_nalu) 0x5c8-0x825 (605)
0x05c0|                        06                     |        .       |              forbidden_zero_bit: false 0x5c8-0x5c8.1 (0.1)
0x05c0|                        06                     |        .       |              nal_ref_idc: 0 0x5c8.1-0x5c8.3 (0.2)
0x05c0|                        06                     |        .       |              nal_unit_type: "sei" (6) (Supplemental enhancement information) 0x5c8.3-0x5c9 (0.5)
      |                                               |                |              rbsp{}: 0x5c9-0x825 (604)
0x05c0|                           05                  |         .      |                payload_type: "user_data_unregistered" (5) 0x5c9-0x5ca (1)
0x05c0|                              ff ff 59         |          ..Y   |                payload_size: 599 0x5ca-0x5cd (3)
0x05c0|                                       dc 45 e9|             .E.|                uuid: "x264" (raw bits) 0x5cd-0x5dd (16)
0x05d0|bd e6 d9 48 b7 96 2c d8 20 d9 23 ee ef         |...H..,. .#..   |
0x05d0|                                       78 32 36|             x26|                data: raw bits 0x5dd-0x824 (583)
0x05e0|34 20 2d 20 63 6f 72 65 20 31 36 35 20 72 33 32|4 - core 165 r32|
*     |until 0x823.7 (583)                            |                |
0x0820|            80                                 |    .           |                trailing_bits: raw bits 0x824-0x825 (1)
      |                                               |                |          [1]{}: nalu 0x825-0x134d (2856)
0x0820|               00 00 0b 24                     |     ...$       |            length: 2852 0x825-0x829 (4)
      |00 01 02 03 04 05 06 07 08 09 0a 0b 0c 0d 0e 0f|0123456789abcdef|            nalu{}: (avc_nalu) 0x829-0x134d (2852)
0x0820|                           65                  |         e      |              forbidden_zero_bit: false 0x829-0x829.1 (0.1)
0x0820|                           65                  |         e      |              nal_ref_idc: 3 0x829.1-0x829.3 (0.2)
0x0820|                           65                  |         e      |              nal_unit_type: "idr_slice" (5) (Coded slice of an IDR picture) 0x829.3-0x82a (0.5)
      |                                               |                |              rbsp{}: 0x82a-0x82b.6 (1.6)
0x0820|                              88               |          .     |                first_mb_in_slice: 0 0x82a-0x82a.1 (0.1)
0x0820|                              88               |          .     |                slice_type: "i" (7) 0x82a.1-0x82b (0.7)
0x0820|                                 84            |           .    |                pic_parameter_set_id: 0 0x82b-0x82b.1 (0.1)
0x0820|                                 84            |           .    |                frame_num: 0 0x82b.1-0x82b.5 (0.4)
0x0820|                                 84            |           .    |                idr_pic_id: 0 0x82b.5-0x82b.6 (0.1)
0x0820|                                 84 04 bf fe f7|           .....|              gap0: raw bits 0x82b.6-0x134d (2849.2)
0x0830|84 7e 05 37 0c ac ff ea 87 fd 4f 9c 30 95 e0 00|.~.7......O.0...|
*     |until 0x134c.7 (2850)                          |                |
      |00 01 02 03 04 05 06 07 08 09 0a 0b 0c 0d 0e 0f|0123456789abcdef|        [1][0:1]: sample (avc_au) 0x16bc-0x1f87 (2251)
      |                                               |                |          [0]{}: nalu 0x16bc-0x1f87 (2251)
0x16b0|                                    00 00 08 c7|            ....|            length: 2247 0x16bc-0x16c0 (4)
      |00 01 02 03 04 05 06 07 08 09 0a 0b 0c 0d 0e 0f|0123456789abcdef|            nalu{}: (avc_nalu) 0x16c0-0x1f87 (2247)
0x16c0|65                                             |e               |              forbidden_zero_bit: false 0x16c0-0x16c0.1 (0.1)
0x16c0|65                                             |e               |              nal_ref_idc: 3 0x16c0.1-0x16c0.3 (0.2)
0x16c0|65                                             |e               |              nal_unit_type: "idr_slice" (5) (Coded slice of an IDR picture) 0x16c0.3-0x16c1 (0.5)
      |                                               |                |              rbsp{}: 0x16c1-0x16c3 (2)
0x16c0|   88                                          | .              |                first_mb_in_slice: 0 0x16c1-0x16c1.1 (0.1)
0x16c0|   88                                          | .              |                slice_type: "i" (7) 0x16c1.1-0x16c2 (0.7)
0x16c0|      82                                       |  .             |                pic_parameter_set_id: 0 0x16c2-0x16c2.1 (0.1)
0x16c0|      82                                       |  .             |                frame_num: 0 0x16c2.1-0x16c2.5 (0.4)
0x16c0|      82                                       |  .             |                idr_pic_id: 1 0x16c2.5-0x16c3 (0.3)
0x16c0|         03 3f fe f6 86 f8 14 d8 53 23 af ff f2|   .?......S#...|              gap0: raw bits 0x16c3-0x1f87 (2244)
0x16d0|50 06 7f 30 02 17 55 d4 5a 6f db ca e6 60 1d 51|P..0..U.Zo...`.Q|
*     |until 0x1f86.7 (2244)                          |                |
      |00 01 02 03 04 05 06 07 08 09 0a 0b 0c 0d 0e 0f|0123456789abcdef|        [2][0:1]: sample (avc_au) 0x2214-0x2ace (2234)
      |                                               |                |          [0]{}: nalu 0x2214-0x2ace (2234)
0x2210|            00 00 08 b6                        |    ....        |            length: 2230 0x2214-0x2218 (4)
      |00 01 02 03 04 05 06 07 08 09 0a 0b 0c 0d 0e 0f|0123456789abcdef|            nalu{}: (avc_nalu) 0x2218-0x2ace (2230)
0x2210|                        65                     |        e       |              forbidden_zero_bit: false 0x2218-0x2218.1 (0.1)
0x2210|                        65                     |        e       |              nal_ref_idc: 3 0x2218.1-0x2218.3 (0.2)
0x2210|                        65                     |        e       |              nal_unit_type: "idr_slice" (5) (Coded slice of an IDR picture) 0x2218.3-0x2219 (0.5)
      |                                               |                |              rbsp{}: 0x2219-0x221a.6 (1.6)
0x2210|                           88                  |         .      |                first_mb_in_slice: 0 0x2219-0x2219.1 (0.1)
0x2210|                           88                  |         .      |                slice_type: "i" (7) 0x2219.1-0x221a (0.7)
0x2210|                              84               |          .     |                pic_parameter_set_id: 0 0x221a-0x221a.1 (0.1)
0x2210|                              84               |          .     |                frame_num: 0 0x221a.1-0x221a.5 (0.4)
0x2210|                              84               |          .     |                idr_pic_id: 0 0x221a.5-0x221a.6 (0.1)
0x2210|                              84 0c ff fe f6 86|          ......|              gap0: raw bits 0x221a.6-0x2ace (2227.2)
0x2220|f8 14 d8 53 23 af ff f2 50 06 7f 30 02 17 55 d4|...S#...P..0..U.|
*     |until 0x2acd.7 (2228)                          |                |
      |                                               |                |      id: 1
      |                                               |                |      data_format: "avc1" (Advanced Video Coding)
      |                                               |                |    [1]{}: track 0x134d-0x2ad3 (6022)
      |                                               |                |      samples[0:6]: 0x134d-0x2ad3 (6022)
      |00 01 02 03 04 05 06 07 08 09 0a 0b 0c 0d 0e 0f|0123456789abcdef|        [0][0:4]: sample (aac_frame) 0x134d-0x144d (256)
      |                                               |                |          [0]{}: element 0x134d-0x135b.7 (14.7)
0x1340|                                       dc      |             .  |            syntax_element: "FIL" (6) 0x134d-0x134d.3 (0.3)
      |                                               |                |            cnt{}: 0x134d.3-0x134d.7 (0.4)
0x1340|                                       dc      |             .  |              count: 14 0x134d.3-0x134d.7 (0.4)
      |                                               |                |            payload_length: 14
      |                                               |                |            extension_payload{}: 0x134d.7-0x135b.7 (14)
0x1340|                                       dc 00   |             .. |              extension_type: "EXT_FILL" (0) 0x134d.7-0x134e.3 (0.4)
0x1340|                                          00   |              . |              fill_nibble: 0 0x134e.3-0x134e.7 (0.4)
0x1340|                                          00 4c|              .L|              fill_byte: raw bits 0x134e.7-0x135b.7 (13)
0x1350|61 76 63 36 33 2e 31 2e 31 30 31 00            |avc63.1.101.    |
      |                                               |                |          [1]{}: element 0x135b.7-0x135f.1 (3.2)
0x1350|                                 00 02         |           ..   |            syntax_element: "SCE" (0) 0x135b.7-0x135c.2 (0.3)
0x1350|                                    02         |            .   |            element_instance_tag: 0 0x135c.2-0x135c.6 (0.4)
0x1350|                                    02 60      |            .`  |            global_gain: 152 0x135c.6-0x135d.6 (1)
      |                                               |                |            ics_info{}: 0x135d.6-0x135f.1 (1.3)
0x1350|                                       60      |             `  |              ics_reserved_bit: 0 0x135d.6-0x135d.7 (0.1)
0x1350|                                       60 ac   |             `. |              window_sequence: "LONG_START_SEQUENCE" (1) 0x135d.7-0x135e.1 (0.2)
0x1350|                                          ac   |              . |              window_shape: 0 0x135e.1-0x135e.2 (0.1)
0x1350|                                          ac   |              . |              max_sfb: 44 0x135e.2-0x135f (0.6)
0x1350|                                             5b|               [|              predictor_data_present: false 0x135f-0x135f.1 (0.1)
0x1350|                                             5b|               [|          [2]: raw bits byte_align 0x135f.1-0x1360 (0.7)
0x1360|a9 50 72 26 a5 78 f5 e3 f7 ae b8 96 d5 49 6a 96|.Pr&.x.......Ij.|          [3]: raw bits data 0x1360-0x144d (237)
*     |until 0x144c.7 (237)                           |                |
      |00 01 02 03 04 05 06 07 08 09 0a 0b 0c 0d 0e 0f|0123456789abcdef|        [1][0:3]: sample (aac_frame) 0x144d-0x154f (258)
      |                                               |                |          [0]{}: element 0x144d-0x1450.6 (3.6)
0x1440|                                       01      |             .  |            syntax_element: "SCE" (0) 0x144d-0x144d.3 (0.3)
0x1440|                                       01      |             .  |            element_instance_tag: 0 0x144d.3-0x144d.7 (0.4)
0x1440|                                       01 34   |             .4 |            global_gain: 154 0x144d.7-0x144e.7 (1)
      |                                               |                |            ics_info{}: 0x144e.7-0x1450.6 (1.7)
0x1440|                                          34   |              4 |              ics_reserved_bit: 0 0x144e.7-0x144f (0.1)
0x1440|                                             9a|               .|              window_sequence: "EIGHT_SHORT_SEQUENCE" (2) 0x144f-0x144f.2 (0.2)
0x1440|                                             9a|               .|              window_shape: 0 0x144f.2-0x144f.3 (0.1)
0x1440|                                             9a|               .|              max_sfb: 13 0x144f.3-0x144f.7 (0.4)
0x1440|                                             9a|               .|              scale_factor_grouping: 54 0x144f.7-0x1450.6 (0.7)
0x1450|da                                             |.               |
0x1450|da                                             |.               |          [1]: raw bits byte_align 0x1450.6-0x1451 (0.2)
0x1450|   d2 4d c0 6c c5 4c 26 cc 54 a2 74 dd 4d a9 e7| .M.l.L&.T.t.M..|          [2]: raw bits data 0x1451-0x154f (254)
0x1460|eb 57 c3 6f 8d 5d d7 fe 9c 7e bf 57 05 de a7 ff|.W.o.]...~.W....|
*     |until 0x154e.7 (254)                           |                |
      |00 01 02 03 04 05 06 07 08 09 0a 0b 0c 0d 0e 0f|0123456789abcdef|        [2][0:3]: sample (aac_frame) 0x154f-0x15e8 (153)
      |                                               |                |          [0]{}: element 0x154f-0x1552.2 (3.2)
0x1540|                                             01|               .|            syntax_element: "SCE" (0) 0x154f-0x154f.3 (0.3)
0x1540|                                             01|               .|            element_instance_tag: 0 0x154f.3-0x154f.7 (0.4)
0x1540|                                             01|               .|            global_gain: 137 0x154f.7-0x1550.7 (1)
0x1550|12                                             |.               |
      |                                               |                |            ics_info{}: 0x1550.7-0x1552.2 (1.3)
0x1550|12                                             |.               |              ics_reserved_bit: 0 0x1550.7-0x1551 (0.1)
0x1550|   f6                                          | .              |              window_sequence: "LONG_STOP_SEQUENCE" (3) 0x1551-0x1551.2 (0.2)
0x1550|   f6                                          | .              |              window_shape: 1 0x1551.2-0x1551.3 (0.1)
0x1550|   f6 2c                                       | .,             |              max_sfb: 44 0x1551.3-0x1552.1 (0.6)
0x1550|      2c                                       |  ,             |              predictor_data_present: false 0x1552.1-0x1552.2 (0.1)
0x1550|      2c                                       |  ,             |          [1]: raw bits byte_align 0x1552.2-0x1553 (0.6)
0x1550|         f4 b6 31 17 50 21 d3 3e 6b d7 ce 7f 8d|   ..1.P!.>k....|          [2]: raw bits data 0x1553-0x15e8 (149)
0x1560|7b 35 c2 29 73 2e 26 e4 47 94 88 93 a9 74 ba 12|{5.)s.&.G....t..|
*     |until 0x15e7.7 (149)                           |                |
      |00 01 02 03 04 05 06 07 08 09 0a 0b 0c 0d 0e 0f|0123456789abcdef|        [3][0:3]: sample (aac_frame) 0x1f87-0x2038 (177)
      |                                               |                |          [0]{}: element 0x1f87-0x1f8a.2 (3.2)
0x1f80|                     01                        |       .        |            syntax_element: "SCE" (0) 0x1f87-0x1f87.3 (0.3)
0x1f80|                     01                        |       .        |            element_instance_tag: 0 0x1f87.3-0x1f87.7 (0.4)
0x1f80|                     01 12                     |       ..       |            global_gain: 137 0x1f87.7-0x1f88.7 (1)
      |                                               |                |            ics_info{}: 0x1f88.7-0x1f8a.2 (1.3)
0x1f80|                        12                     |        .       |              ics_reserved_bit: 0 0x1f88.7-0x1f89 (0.1)
0x1f80|                           56                  |         V      |              window_sequence: "LONG_START_SEQUENCE" (1) 0x1f89-0x1f89.2 (0.2)
0x1f80|                           56                  |         V      |              window_shape: 0 0x1f89.2-0x1f89.3 (0.1)
0x1f80|                           56 2d               |         V-     |              max_sfb: 44 0x1f89.3-0x1f8a.1 (0.6)
0x1f80|                              2d               |          -     |              predictor_data_present: false 0x1f8a.1-0x1f8a.2 (0.1)
0x1f80|                              2d               |          -     |          [1]: raw bits byte_align 0x1f8a.2-0x1f8b (0.6)
0x1f80|                                 94 ed 1b 07 5c|           ....\|          [2]: raw bits data 0x1f8b-0x2038 (173)
0x1f90|ef 2b 9f e9 ff 57 d6 71 c5 3c f3 72 ec 2c f3 97|.+...W.q.<.r.,..|
*     |until 0x2037.7 (173)                           |                |
      |00 01 02 03 04 05 06 07 08 09 0a 0b 0c 0d 0e 0f|0123456789abcdef|        [4][0:3]: sample (aac_frame) 0x2038-0x2148 (272)
      |                                               |                |          [0]{}: element 0x2038-0x203b.6 (3.6)
0x2030|                        01                     |        .       |            syntax_element: "SCE" (0) 0x2038-0x2038.3 (0.3)
0x2030|                        01                     |        .       |            element_instance_tag: 0 0x2038.3-0x2038.7 (0.4)
0x2030|                        01 2c                  |        .,      |            global_gain: 150 0x2038.7-0x2039.7 (1)
      |                                               |                |            ics_info{}: 0x2039.7-0x203b.6 (1.7)
0x2030|                           2c                  |         ,      |              ics_reserved_bit: 0 0x2039.7-0x203a (0.1)
0x2030|                              9b               |          .     |              window_sequence: "EIGHT_SHORT_SEQUENCE" (2) 0x203a-0x203a.2 (0.2)
0x2030|                              9b               |          .     |              window_shape: 0 0x203a.2-0x203a.3 (0.1)
0x2030|                              9b               |          .     |              max_sfb: 13 0x203a.3-0x203a.7 (0.4)
0x2030|                              9b b2            |          ..    |              scale_factor_grouping: 108 0x203a.7-0x203b.6 (0.7)
0x2030|                                 b2            |           .    |          [1]: raw bits byte_align 0x203b.6-0x203c (0.2)
0x2030|                                    db 44 82 ac|            .D..|          [2]: raw bits data 0x203c-0x2148 (268)
0x2040|d6 64 32 fa d8 1f 3e bc db 8b 4b 97 af ff b7 e7|.d2...>...K.....|
*     |until 0x2147.7 (268)                           |                |
      |00 01 02 03 04 05 06 07 08 09 0a 0b 0c 0d 0e 0f|0123456789abcdef|        [5][0:3]: sample (aac_frame) 0x2ace-0x2ad3 (5)
      |                                               |                |          [0]{}: element 0x2ace-0x2ad1.6 (3.6)
0x2ac0|                                          01   |              . |            syntax_element: "SCE" (0) 0x2ace-0x2ace.3 (0.3)
0x2ac0|                                          01   |              . |            element_instance_tag: 0 0x2ace.3-0x2ace.7 (0.4)
0x2ac0|                                          01 18|              ..|            global_gain: 140 0x2ace.7-0x2acf.7 (1)
      |                                               |                |            ics_info{}: 0x2acf.7-0x2ad1.6 (1.7)
0x2ac0|                                             18|               .|              ics_reserved_bit: 0 0x2acf.7-0x2ad0 (0.1)
0x2ad0|81                                             |.               |              window_sequence: "EIGHT_SHORT_SEQUENCE" (2) 0x2ad0-0x2ad0.2 (0.2)
0x2ad0|81                                             |.               |              window_shape: 0 0x2ad0.2-0x2ad0.3 (0.1)
0x2ad0|81                                             |.               |              max_sfb: 0 0x2ad0.3-0x2ad0.7 (0.4)
0x2ad0|81 b4                                          |..              |              scale_factor_grouping: 109 0x2ad0.7-0x2ad1.6 (0.7)
0x2ad0|   b4                                          | .              |          [1]: raw bits byte_align 0x2ad1.6-0x2ad2 (0.2)
0x2ad0|      70                                       |  p             |          [2]: raw bits data 0x2ad2-0x2ad3 (1)
      |                                               |                |      id: 2
      |                                               |                |      data_format: "mp4a" (MPEG-4 Audio)
