# ffmpeg -y -f lavfi -i sine -metadata title=test -t 10ms mdir_tags.mp4
$ fq 'grep_by(.type=="meta") | dv' mdir_tags.mp4
     |00 01 02 03 04 05 06 07 08 09 0a 0b 0c 0d 0e 0f|0123456789abcdef|.boxes[3].boxes[2].boxes[0]{}: box 0x4c9-0x53f (118)
0x4c0|                           00 00 00 76         |         ...v   |  size: 118 0x4c9-0x4cd (4)
0x4c0|                                       6d 65 74|             met|  type: "meta" (Metadata container) 0x4cd-0x4d1 (4)
0x4d0|61                                             |a               |
0x4d0|   00 00 00 00                                 | ....           |  maybe_flags: 0 0x4d1-0x4d5 (4)
     |                                               |                |  boxes[0:2]: 0x4d5-0x53f (106)
     |                                               |                |    [0]{}: box 0x4d5-0x4f6 (33)
0x4d0|               00 00 00 21                     |     ...!       |      size: 33 0x4d5-0x4d9 (4)
0x4d0|                           68 64 6c 72         |         hdlr   |      type: "hdlr" (Handler, declares the media (handler) type) 0x4d9-0x4dd (4)
0x4d0|                                       00      |             .  |      version: 0 0x4dd-0x4de (1)
0x4d0|                                          00 00|              ..|      flags: 0 0x4de-0x4e1 (3)
0x4e0|00                                             |.               |
0x4e0|   00 00 00 00                                 | ....           |      component_type: "" 0x4e1-0x4e5 (4)
0x4e0|               6d 64 69 72                     |     mdir       |      component_subtype: "mdir" (Metadata) 0x4e5-0x4e9 (4)
0x4e0|                           61 70 70 6c         |         appl   |      component_manufacturer: "appl" 0x4e9-0x4ed (4)
0x4e0|                                       00 00 00|             ...|      component_flags: 0 0x4ed-0x4f1 (4)
0x4f0|00                                             |.               |
0x4f0|   00 00 00 00                                 | ....           |      component_flags_mask: 0 0x4f1-0x4f5 (4)
0x4f0|               00                              |     .          |      component_name: "" 0x4f5-0x4f6 (1)
     |                                               |                |    [1]{}: box 0x4f6-0x53f (73)
0x4f0|                  00 00 00 49                  |      ...I      |      size: 73 0x4f6-0x4fa (4)
0x4f0|                              69 6c 73 74      |          ilst  |      type: "ilst" 0x4fa-0x4fe (4)
     |                                               |                |      boxes[0:2]: 0x4fe-0x53f (65)
     |                                               |                |        [0]{}: box 0x4fe-0x51a (28)
0x4f0|                                          00 00|              ..|          size: 28 0x4fe-0x502 (4)
0x500|00 1c                                          |..              |
0x500|      a9 6e 61 6d                              |  .nam          |          type: "©nam" (Title) 0x502-0x506 (4)
     |                                               |                |          boxes[0:1]: 0x506-0x51a (20)
     |                                               |                |            [0]{}: box 0x506-0x51a (20)
0x500|                  00 00 00 14                  |      ....      |              size: 20 0x506-0x50a (4)
0x500|                              64 61 74 61      |          data  |              type: "data" 0x50a-0x50e (4)
0x500|                                          00   |              . |              version: 0 0x50e-0x50f (1)
0x500|                                             00|               .|              flags: 1 0x50f-0x512 (3)
0x510|00 01                                          |..              |
0x510|      00 00 00 00                              |  ....          |              reserved: 0 0x512-0x516 (4)
0x510|                  74 65 73 74                  |      test      |              data: "test" 0x516-0x51a (4)
     |                                               |                |        [1]{}: box 0x51a-0x53f (37)
0x510|                              00 00 00 25      |          ...%  |          size: 37 0x51a-0x51e (4)
0x510|                                          a9 74|              .t|          type: "©too" (Encoder) 0x51e-0x522 (4)
0x520|6f 6f                                          |oo              |
     |                                               |                |          boxes[0:1]: 0x522-0x53f (29)
     |                                               |                |            [0]{}: box 0x522-0x53f (29)
0x520|      00 00 00 1d                              |  ....          |              size: 29 0x522-0x526 (4)
0x520|                  64 61 74 61                  |      data      |              type: "data" 0x526-0x52a (4)
0x520|                              00               |          .     |              version: 0 0x52a-0x52b (1)
0x520|                                 00 00 01      |           ...  |              flags: 1 0x52b-0x52e (3)
0x520|                                          00 00|              ..|              reserved: 0 0x52e-0x532 (4)
0x530|00 00                                          |..              |
0x530|      4c 61 76 66 35 39 2e 32 37 2e 31 30 30|  |  Lavf59.27.100||              data: "Lavf59.27.100" 0x532-0x53f (13)
