$ fq -d mp4 ddv mvhd-tkhd-mdhd-mehd-v1
     |00 01 02 03 04 05 06 07 08 09 0a 0b 0c 0d 0e 0f|0123456789abcdef|.{}: mvhd-tkhd-mdhd-mehd-v1 (mp4) 0x0-0x138 (312)
     |                                               |                |  boxes[0:5]: 0x0-0x138 (312)
     |                                               |                |    [0]{}: box 0x0-0x18 (24)
0x000|00 00 00 18                                    |....            |      size: 24 0x0-0x4 (4)
0x000|            66 74 79 70                        |    ftyp        |      type: "ftyp" (File type and compatibility) 0x4-0x8 (4)
0x000|                        69 73 6d 6c            |        isml    |      major_brand: "isml" 0x8-0xc (4)
0x000|                                    00 00 00 01|            ....|      minor_version: 1 0xc-0x10 (4)
     |                                               |                |      brands[0:2]: 0x10-0x18 (8)
0x010|70 69 66 66                                    |piff            |        [0]: "piff" brand (Protected Interoperable File Format) 0x10-0x14 (4)
0x010|            69 73 6f 32                        |    iso2        |        [1]: "iso2" brand (All files based on the 2004 edition of the ISO file format) 0x14-0x18 (4)
     |                                               |                |    [1]{}: box 0x18-0x90 (120)
0x010|                        00 00 00 78            |        ...x    |      size: 120 0x18-0x1c (4)
0x010|                                    6d 76 68 64|            mvhd|      type: "mvhd" (Movie header, overall declarations) 0x1c-0x20 (4)
0x020|01                                             |.               |      version: 1 0x20-0x21 (1)
0x020|   00 00 00                                    | ...            |      flags: 0 0x21-0x24 (3)
0x020|            00 00 00 00 62 79 64 94            |    ....byd.    |      creation_time: 1652122772 (1956-05-08T18:59:32Z) 0x24-0x2c (8)
0x020|                                    00 00 00 00|            ....|      modification_time: 1652122772 (1956-05-08T18:59:32Z) 0x2c-0x34 (8)
0x030|62 79 64 94                                    |byd.            |
0x030|            00 98 96 80                        |    ....        |      time_scale: 10000000 0x34-0x38 (4)
0x030|                        00 00 00 06 2c e9 8a ab|        ....,...|      duration: 26523306667 0x38-0x40 (8)
0x040|00 01 00 00                                    |....            |      preferred_rate: 1 0x40-0x44 (4)
0x040|            01 00                              |    ..          |      preferred_volume: 1 0x44-0x46 (2)
0x040|                  00 00 00 00 00 00 00 00 00 00|      ..........|      reserved: "\x00\x00\x00\x00\x00\x00\x00\x00\x00\x00" 0x46-0x50 (10)
     |                                               |                |      matrix_structure{}: 0x50-0x74 (36)
0x050|00 01 00 00                                    |....            |        a: 1 0x50-0x54 (4)
0x050|            00 00 00 00                        |    ....        |        b: 0 0x54-0x58 (4)
0x050|                        00 00 00 00            |        ....    |        u: 0 0x58-0x5c (4)
0x050|                                    00 00 00 00|            ....|        c: 0 0x5c-0x60 (4)
0x060|00 01 00 00                                    |....            |        d: 1 0x60-0x64 (4)
0x060|            00 00 00 00                        |    ....        |        v: 0 0x64-0x68 (4)
0x060|                        00 00 00 00            |        ....    |        x: 0 0x68-0x6c (4)
0x060|                                    00 00 00 00|            ....|        y: 0 0x6c-0x70 (4)
0x070|40 00 00 00                                    |@...            |        w: 1 0x70-0x74 (4)
0x070|            00 00 00 00                        |    ....        |      preview_time: 0 0x74-0x78 (4)
0x070|                        00 00 00 00            |        ....    |      preview_duration: 0 0x78-0x7c (4)
0x070|                                    00 00 00 00|            ....|      poster_time: 0 0x7c-0x80 (4)
0x080|00 00 00 00                                    |....            |      selection_time: 0 0x80-0x84 (4)
0x080|            00 00 00 00                        |    ....        |      selection_duration: 0 0x84-0x88 (4)
0x080|                        00 00 00 00            |        ....    |      current_time: 0 0x88-0x8c (4)
0x080|                                    ff ff ff ff|            ....|      next_track_id: 4294967295 0x8c-0x90 (4)
     |                                               |                |    [2]{}: box 0x90-0xf8 (104)
0x090|00 00 00 68                                    |...h            |      size: 104 0x90-0x94 (4)
0x090|            74 6b 68 64                        |    tkhd        |      type: "tkhd" (Track header, overall information about the track) 0x94-0x98 (4)
0x090|                        01                     |        .       |      version: 1 0x98-0x99 (1)
     |                                               |                |      flags{}: 0x99-0x9c (3)
0x090|                           00 00 07            |         ...    |        unused: 0 0x99-0x9b.4 (2.4)
0x090|                                 07            |           .    |        size_is_aspect_ratio: false 0x9b.4-0x9b.5 (0.1)
0x090|                                 07            |           .    |        in_preview: true 0x9b.5-0x9b.6 (0.1)
0x090|                                 07            |           .    |        in_movie: true 0x9b.6-0x9b.7 (0.1)
0x090|                                 07            |           .    |        enabled: true 0x9b.7-0x9c (0.1)
0x090|                                    00 00 00 00|            ....|      creation_time: 1652122772 (1956-05-08T18:59:32Z) 0x9c-0xa4 (8)
0x0a0|62 79 64 94                                    |byd.            |
0x0a0|            00 00 00 00 62 79 64 94            |    ....byd.    |      modification_time: 1652122772 (1956-05-08T18:59:32Z) 0xa4-0xac (8)
0x0a0|                                    00 00 00 01|            ....|      track_id: 1 0xac-0xb0 (4)
0x0b0|00 00 00 00                                    |....            |      reserved1: 0 0xb0-0xb4 (4)
0x0b0|            00 00 00 06 2c e9 8a ab            |    ....,...    |      duration: 26523306667 0xb4-0xbc (8)
0x0b0|                                    00 00 00 00|            ....|      reserved2: raw bits 0xbc-0xc4 (8)
0x0c0|00 00 00 00                                    |....            |
0x0c0|            00 00                              |    ..          |      layer: 0 0xc4-0xc6 (2)
0x0c0|                  00 00                        |      ..        |      alternate_group: 0 0xc6-0xc8 (2)
0x0c0|                        00 00                  |        ..      |      volume: 0 0xc8-0xca (2)
0x0c0|                              00 00            |          ..    |      reserved3: 0 0xca-0xcc (2)
     |                                               |                |      matrix_structure{}: 0xcc-0xf0 (36)
0x0c0|                                    00 01 00 00|            ....|        a: 1 0xcc-0xd0 (4)
0x0d0|00 00 00 00                                    |....            |        b: 0 0xd0-0xd4 (4)
0x0d0|            00 00 00 00                        |    ....        |        u: 0 0xd4-0xd8 (4)
0x0d0|                        00 00 00 00            |        ....    |        c: 0 0xd8-0xdc (4)
0x0d0|                                    00 01 00 00|            ....|        d: 1 0xdc-0xe0 (4)
0x0e0|00 00 00 00                                    |....            |        v: 0 0xe0-0xe4 (4)
0x0e0|            00 00 00 00                        |    ....        |        x: 0 0xe4-0xe8 (4)
0x0e0|                        00 00 00 00            |        ....    |        y: 0 0xe8-0xec (4)
0x0e0|                                    40 00 00 00|            @...|        w: 1 0xec-0xf0 (4)
0x0f0|00 00 00 00                                    |....            |      track_width: 0 0xf0-0xf4 (4)
0x0f0|            00 00 00 00                        |    ....        |      track_height: 0 0xf4-0xf8 (4)
     |                                               |                |    [3]{}: box 0xf8-0x124 (44)
0x0f0|                        00 00 00 2c            |        ...,    |      size: 44 0xf8-0xfc (4)
0x0f0|                                    6d 64 68 64|            mdhd|      type: "mdhd" (Media header, overall information about the media) 0xfc-0x100 (4)
0x100|01                                             |.               |      version: 1 0x100-0x101 (1)
0x100|   00 00 00                                    | ...            |      flags: 0 0x101-0x104 (3)
0x100|            00 00 00 00 62 79 64 94            |    ....byd.    |      creation_time: 1652122772 (1956-05-08T18:59:32Z) 0x104-0x10c (8)
0x100|                                    00 00 00 00|            ....|      modification_time: 1652122772 (1956-05-08T18:59:32Z) 0x10c-0x114 (8)
0x110|62 79 64 94                                    |byd.            |
0x110|            00 98 96 80                        |    ....        |      time_scale: 10000000 0x114-0x118 (4)
0x110|                        00 00 00 06 2c e9 8a ab|        ....,...|      duration: 26523306667 0x118-0x120 (8)
0x120|4e e5                                          |N.              |      language: "swe" 0x120-0x122 (2)
0x120|      00 00                                    |  ..            |      quality: 0 0x122-0x124 (2)
     |                                               |                |    [4]{}: box 0x124-0x138 (20)
0x120|            00 00 00 14                        |    ....        |      size: 20 0x124-0x128 (4)
0x120|                        6d 65 68 64            |        mehd    |      type: "mehd" (Movie extends header box) 0x128-0x12c (4)
0x120|                                    01         |            .   |      version: 1 0x12c-0x12d (1)
0x120|                                       00 00 00|             ...|      flags: 0 0x12d-0x130 (3)
0x130|00 00 00 06 2c e9 8a ab|                       |....,...|       |      fragment_duration: 26523306667 0x130-0x138 (8)
