# GIMP-created rainbow HEVC HEIF image with embedded sRGB ICC profile and XMP metadata
# https://github.com/strukturag/libheif/blob/master/tests/data/rainbow-451x461.heic
$ fq -d heif dv rainbow-451x461.heic
      |00 01 02 03 04 05 06 07 08 09 0a 0b 0c 0d 0e 0f|0123456789abcdef|.{}: rainbow-451x461.heic (heif) 0x0-0x1ba8 (7080)
      |                                               |                |  boxes[0:3]: 0x0-0x1ba8 (7080)
      |                                               |                |    [0]{}: box 0x0-0x18 (24)
0x0000|00 00 00 18                                    |....            |      size: 24 0x0-0x4 (4)
0x0000|            66 74 79 70                        |    ftyp        |      type: "ftyp" (File type and compatibility) 0x4-0x8 (4)
0x0000|                        68 65 69 63            |        heic    |      major_brand: "heic" 0x8-0xc (4)
0x0000|                                    00 00 00 00|            ....|      minor_version: 0 0xc-0x10 (4)
      |                                               |                |      brands[0:2]: 0x10-0x18 (8)
0x0010|6d 69 66 31                                    |mif1            |        [0]: "mif1" brand (High Efficiency Image Format still image (.HEIF)) 0x10-0x14 (4)
0x0010|            68 65 69 63                        |    heic        |        [1]: "heic" brand (High Efficiency Image Format HEVC still image (.HEIC)) 0x14-0x18 (4)
      |                                               |                |    [1]{}: box 0x18-0x486 (1134)
0x0010|                        00 00 04 6e            |        ...n    |      size: 1134 0x18-0x1c (4)
0x0010|                                    6d 65 74 61|            meta|      type: "meta" (Metadata container) 0x1c-0x20 (4)
0x0020|00 00 00 00                                    |....            |      maybe_flags: 0 0x20-0x24 (4)
      |                                               |                |      boxes[0:6]: 0x24-0x486 (1122)
      |                                               |                |        [0]{}: box 0x24-0x45 (33)
0x0020|            00 00 00 21                        |    ...!        |          size: 33 0x24-0x28 (4)
0x0020|                        68 64 6c 72            |        hdlr    |          type: "hdlr" (Handler, declares the media (handler) type) 0x28-0x2c (4)
0x0020|                                    00         |            .   |          version: 0 0x2c-0x2d (1)
0x0020|                                       00 00 00|             ...|          flags: 0 0x2d-0x30 (3)
0x0030|00 00 00 00                                    |....            |          component_type: "" 0x30-0x34 (4)
0x0030|            70 69 63 74                        |    pict        |          component_subtype: "pict" (Picture) 0x34-0x38 (4)
0x0030|                        00 00 00 00            |        ....    |          component_manufacturer: "" 0x38-0x3c (4)
0x0030|                                    00 00 00 00|            ....|          component_flags: 0 0x3c-0x40 (4)
0x0040|00 00 00 00                                    |....            |          component_flags_mask: 0 0x40-0x44 (4)
0x0040|            00                                 |    .           |          component_name: "" 0x44-0x45 (1)
      |                                               |                |        [1]{}: box 0x45-0x79 (52)
0x0040|               00 00 00 34                     |     ...4       |          size: 52 0x45-0x49 (4)
0x0040|                           69 6c 6f 63         |         iloc   |          type: "iloc" (Item location) 0x49-0x4d (4)
0x0040|                                       00      |             .  |          version: 0 0x4d-0x4e (1)
0x0040|                                          00 00|              ..|          flags: 0 0x4e-0x51 (3)
0x0050|00                                             |.               |
0x0050|   44                                          | D              |          offset_size: 4 0x51-0x51.4 (0.4)
0x0050|   44                                          | D              |          length_size: 4 0x51.4-0x52 (0.4)
0x0050|      40                                       |  @             |          base_offset_size: 4 0x52-0x52.4 (0.4)
0x0050|      40                                       |  @             |          reserved: 0 0x52.4-0x53 (0.4)
0x0050|         00 02                                 |   ..           |          item_count: 2 0x53-0x55 (2)
      |                                               |                |          items[0:2]: 0x55-0x79 (36)
      |                                               |                |            [0]{}: item 0x55-0x67 (18)
0x0050|               00 01                           |     ..         |              id: 1 0x55-0x57 (2)
0x0050|                     00 00                     |       ..       |              data_reference_index: 0 0x57-0x59 (2)
0x0050|                           00 00 04 8e         |         ....   |              base_offset: 1166 0x59-0x5d (4)
0x0050|                                       00 01   |             .. |              extent_count: 1 0x5d-0x5f (2)
      |                                               |                |              extends[0:1]: 0x5f-0x67 (8)
      |                                               |                |                [0]{}: extent 0x5f-0x67 (8)
0x0050|                                             00|               .|                  offset: 0 0x5f-0x63 (4)
0x0060|00 00 00                                       |...             |
0x0060|         00 00 09 46                           |   ...F         |                  length: 2374 0x63-0x67 (4)
      |                                               |                |            [1]{}: item 0x67-0x79 (18)
0x0060|                     00 02                     |       ..       |              id: 2 0x67-0x69 (2)
0x0060|                           00 00               |         ..     |              data_reference_index: 0 0x69-0x6b (2)
0x0060|                                 00 00 0d d4   |           .... |              base_offset: 3540 0x6b-0x6f (4)
0x0060|                                             00|               .|              extent_count: 1 0x6f-0x71 (2)
0x0070|01                                             |.               |
      |                                               |                |              extends[0:1]: 0x71-0x79 (8)
      |                                               |                |                [0]{}: extent 0x71-0x79 (8)
0x0070|   00 00 00 00                                 | ....           |                  offset: 0 0x71-0x75 (4)
0x0070|               00 00 0d d4                     |     ....       |                  length: 3540 0x75-0x79 (4)
      |                                               |                |        [2]{}: box 0x79-0xc6 (77)
0x0070|                           00 00 00 4d         |         ...M   |          size: 77 0x79-0x7d (4)
0x0070|                                       69 69 6e|             iin|          type: "iinf" (Item information) 0x7d-0x81 (4)
0x0080|66                                             |f               |
0x0080|   00                                          | .              |          version: 0 0x81-0x82 (1)
0x0080|      00 00 00                                 |  ...           |          flags: 0 0x82-0x85 (3)
0x0080|               00 02                           |     ..         |          entry_count: 2 0x85-0x87 (2)
      |                                               |                |          boxes[0:2]: 0x87-0xc6 (63)
      |                                               |                |            [0]{}: box 0x87-0x9c (21)
0x0080|                     00 00 00 15               |       ....     |              size: 21 0x87-0x8b (4)
0x0080|                                 69 6e 66 65   |           infe |              type: "infe" (Item information entry) 0x8b-0x8f (4)
0x0080|                                             02|               .|              version: 2 0x8f-0x90 (1)
0x0090|00 00 00                                       |...             |              flags: 0 0x90-0x93 (3)
0x0090|         00 01                                 |   ..           |              item_id: 1 0x93-0x95 (2)
0x0090|               00 00                           |     ..         |              item_protection_index: 0 0x95-0x97 (2)
0x0090|                     68 76 63 31               |       hvc1     |              item_type: "hvc1" 0x97-0x9b (4)
0x0090|                                 00            |           .    |              item_name: "" 0x9b-0x9c (1)
      |                                               |                |            [1]{}: box 0x9c-0xc6 (42)
0x0090|                                    00 00 00 2a|            ...*|              size: 42 0x9c-0xa0 (4)
0x00a0|69 6e 66 65                                    |infe            |              type: "infe" (Item information entry) 0xa0-0xa4 (4)
0x00a0|            02                                 |    .           |              version: 2 0xa4-0xa5 (1)
0x00a0|               00 00 01                        |     ...        |              flags: 1 0xa5-0xa8 (3)
0x00a0|                        00 02                  |        ..      |              item_id: 2 0xa8-0xaa (2)
0x00a0|                              00 00            |          ..    |              item_protection_index: 0 0xaa-0xac (2)
0x00a0|                                    6d 69 6d 65|            mime|              item_type: "mime" 0xac-0xb0 (4)
0x00b0|00                                             |.               |              item_name: "" 0xb0-0xb1 (1)
0x00b0|   61 70 70 6c 69 63 61 74 69 6f 6e 2f 72 64 66| application/rdf|              content_type: "application/rdf+xml" 0xb1-0xc5 (20)
0x00c0|2b 78 6d 6c 00                                 |+xml.           |
0x00c0|               00                              |     .          |              content_encoding: "" 0xc5-0xc6 (1)
      |                                               |                |        [3]{}: box 0xc6-0xd4 (14)
0x00c0|                  00 00 00 0e                  |      ....      |          size: 14 0xc6-0xca (4)
0x00c0|                              70 69 74 6d      |          pitm  |          type: "pitm" (Primary item reference) 0xca-0xce (4)
0x00c0|                                          00   |              . |          version: 0 0xce-0xcf (1)
0x00c0|                                             00|               .|          flags: 0 0xcf-0xd2 (3)
0x00d0|00 00                                          |..              |
0x00d0|      00 01                                    |  ..            |          item_id: 1 0xd2-0xd4 (2)
      |                                               |                |        [4]{}: box 0xd4-0x46c (920)
0x00d0|            00 00 03 98                        |    ....        |          size: 920 0xd4-0xd8 (4)
0x00d0|                        69 70 72 70            |        iprp    |          type: "iprp" (Item Properties Box) 0xd8-0xdc (4)
      |                                               |                |          boxes[0:2]: 0xdc-0x46c (912)
      |                                               |                |            [0]{}: box 0xdc-0x454 (888)
0x00d0|                                    00 00 03 78|            ...x|              size: 888 0xdc-0xe0 (4)
0x00e0|69 70 63 6f                                    |ipco            |              type: "ipco" (ItemPropertyContainerBox) 0xe0-0xe4 (4)
      |                                               |                |              boxes[0:5]: 0xe4-0x454 (880)
      |                                               |                |                [0]{}: box 0xe4-0x15e (122)
0x00e0|            00 00 00 7a                        |    ...z        |                  size: 122 0xe4-0xe8 (4)
0x00e0|                        68 76 63 43            |        hvcC    |                  type: "hvcC" 0xe8-0xec (4)
      |00 01 02 03 04 05 06 07 08 09 0a 0b 0c 0d 0e 0f|0123456789abcdef|                  descriptor{}: (hevc_dcr) 0xec-0x15e (114)
0x00e0|                                    01         |            .   |                    configuration_version: 1 0xec-0xed (1)
0x00e0|                                       03      |             .  |                    general_profile_space: 0 0xed-0xed.2 (0.2)
0x00e0|                                       03      |             .  |                    general_tier_flag: 0 0xed.2-0xed.3 (0.1)
0x00e0|                                       03      |             .  |                    general_profile_idc: 3 0xed.3-0xee (0.5)
0x00e0|                                          70 00|              p.|                    general_profile_compatibility_flags: 1879048192 0xee-0xf2 (4)
0x00f0|00 00                                          |..              |
0x00f0|      00 00 00 00 00 00                        |  ......        |                    general_constraint_indicator_flags: 0 0xf2-0xf8 (6)
0x00f0|                        3f                     |        ?       |                    general_level_idc: 63 0xf8-0xf9 (1)
0x00f0|                           f0                  |         .      |                    reserved0: 15 0xf9-0xf9.4 (0.4)
0x00f0|                           f0 00               |         ..     |                    min_spatial_segmentation_idc: 0 0xf9.4-0xfb (1.4)
0x00f0|                                 fc            |           .    |                    reserved1: 63 0xfb-0xfb.6 (0.6)
0x00f0|                                 fc            |           .    |                    parallelism_type: 0 0xfb.6-0xfc (0.2)
0x00f0|                                    fd         |            .   |                    reserved2: 63 0xfc-0xfc.6 (0.6)
0x00f0|                                    fd         |            .   |                    chroma_format_idc: 1 0xfc.6-0xfd (0.2)
0x00f0|                                       f8      |             .  |                    reserved3: 31 0xfd-0xfd.5 (0.5)
0x00f0|                                       f8      |             .  |                    bit_depth_luma: 8 0xfd.5-0xfe (0.3)
0x00f0|                                          f8   |              . |                    reserved4: 31 0xfe-0xfe.5 (0.5)
0x00f0|                                          f8   |              . |                    bit_depth_chroma: 8 0xfe.5-0xff (0.3)
0x00f0|                                             00|               .|                    avg_frame_rate: 0 0xff-0x101 (2)
0x0100|00                                             |.               |
0x0100|   0f                                          | .              |                    constant_frame_rate: 0 0x101-0x101.2 (0.2)
0x0100|   0f                                          | .              |                    num_temporal_layers: 1 0x101.2-0x101.5 (0.3)
0x0100|   0f                                          | .              |                    temporal_id_nested: 1 0x101.5-0x101.6 (0.1)
0x0100|   0f                                          | .              |                    length_size: 4 0x101.6-0x102 (0.2)
0x0100|      03                                       |  .             |                    num_of_arrays: 3 0x102-0x103 (1)
      |                                               |                |                    arrays[0:3]: 0x103-0x15e (91)
      |                                               |                |                      [0]{}: array 0x103-0x120 (29)
0x0100|         60                                    |   `            |                        array_completeness: 0 0x103-0x103.1 (0.1)
0x0100|         60                                    |   `            |                        reserved0: 1 0x103.1-0x103.2 (0.1)
0x0100|         60                                    |   `            |                        nal_unit_type: "VPS_NUT" (32) 0x103.2-0x104 (0.6)
0x0100|            00 01                              |    ..          |                        num_nalus: 1 0x104-0x106 (2)
      |                                               |                |                        nals[0:1]: 0x106-0x120 (26)
      |                                               |                |                          [0]{}: nal 0x106-0x120 (26)
0x0100|                  00 18                        |      ..        |                            nal_unit_length: 24 0x106-0x108 (2)
      |00 01 02 03 04 05 06 07 08 09 0a 0b 0c 0d 0e 0f|0123456789abcdef|                            nal{}: (hevc_nalu) 0x108-0x120 (24)
      |00 01 02 03 04 05 06 07 08 09 0a 0b 0c 0d 0e 0f|0123456789abcdef|                              rbsp{}: 0x0-0x13 (19)
  0x00|0c                                             |.               |                                vps_video_parameter_set_id: 0 0x0-0x0.4 (0.4)
  0x00|0c                                             |.               |                                vps_base_layer_internal_flag: true 0x0.4-0x0.5 (0.1)
  0x00|0c                                             |.               |                                vps_base_layer_available_flag: true 0x0.5-0x0.6 (0.1)
  0x00|0c 01                                          |..              |                                vps_max_layers_minus1: 0 0x0.6-0x1.4 (0.6)
  0x00|   01                                          | .              |                                vps_max_sub_layers_minus1: 0 0x1.4-0x1.7 (0.3)
  0x00|   01                                          | .              |                                vps_temporal_id_nesting_flag: true 0x1.7-0x2 (0.1)
  0x00|      ff ff                                    |  ..            |                                vps_reserved_0xffff_16bits: 65535 0x2-0x4 (2)
  0x00|            03                                 |    .           |                                general_profile_space: 0 0x4-0x4.2 (0.2)
  0x00|            03                                 |    .           |                                general_tier_flag: 0 0x4.2-0x4.3 (0.1)
  0x00|            03                                 |    .           |                                general_profile_idc: 3 0x4.3-0x5 (0.5)
      |                                               |                |                                general_profile_compatibility_flags[0:32]: 0x5-0x9 (4)
  0x00|               70                              |     p          |                                  [0]: false general_profile_compatibility_flag 0x5-0x5.1 (0.1)
  0x00|               70                              |     p          |                                  [1]: true general_profile_compatibility_flag 0x5.1-0x5.2 (0.1)
  0x00|               70                              |     p          |                                  [2]: true general_profile_compatibility_flag 0x5.2-0x5.3 (0.1)
  0x00|               70                              |     p          |                                  [3]: true general_profile_compatibility_flag 0x5.3-0x5.4 (0.1)
  0x00|               70                              |     p          |                                  [4]: false general_profile_compatibility_flag 0x5.4-0x5.5 (0.1)
  0x00|               70                              |     p          |                                  [5]: false general_profile_compatibility_flag 0x5.5-0x5.6 (0.1)
  0x00|               70                              |     p          |                                  [6]: false general_profile_compatibility_flag 0x5.6-0x5.7 (0.1)
  0x00|               70                              |     p          |                                  [7]: false general_profile_compatibility_flag 0x5.7-0x6 (0.1)
  0x00|                  00                           |      .         |                                  [8]: false general_profile_compatibility_flag 0x6-0x6.1 (0.1)
  0x00|                  00                           |      .         |                                  [9]: false general_profile_compatibility_flag 0x6.1-0x6.2 (0.1)
  0x00|                  00                           |      .         |                                  [10]: false general_profile_compatibility_flag 0x6.2-0x6.3 (0.1)
  0x00|                  00                           |      .         |                                  [11]: false general_profile_compatibility_flag 0x6.3-0x6.4 (0.1)
  0x00|                  00                           |      .         |                                  [12]: false general_profile_compatibility_flag 0x6.4-0x6.5 (0.1)
  0x00|                  00                           |      .         |                                  [13]: false general_profile_compatibility_flag 0x6.5-0x6.6 (0.1)
  0x00|                  00                           |      .         |                                  [14]: false general_profile_compatibility_flag 0x6.6-0x6.7 (0.1)
  0x00|                  00                           |      .         |                                  [15]: false general_profile_compatibility_flag 0x6.7-0x7 (0.1)
  0x00|                     00                        |       .        |                                  [16]: false general_profile_compatibility_flag 0x7-0x7.1 (0.1)
  0x00|                     00                        |       .        |                                  [17]: false general_profile_compatibility_flag 0x7.1-0x7.2 (0.1)
  0x00|                     00                        |       .        |                                  [18]: false general_profile_compatibility_flag 0x7.2-0x7.3 (0.1)
  0x00|                     00                        |       .        |                                  [19]: false general_profile_compatibility_flag 0x7.3-0x7.4 (0.1)
  0x00|                     00                        |       .        |                                  [20]: false general_profile_compatibility_flag 0x7.4-0x7.5 (0.1)
  0x00|                     00                        |       .        |                                  [21]: false general_profile_compatibility_flag 0x7.5-0x7.6 (0.1)
  0x00|                     00                        |       .        |                                  [22]: false general_profile_compatibility_flag 0x7.6-0x7.7 (0.1)
  0x00|                     00                        |       .        |                                  [23]: false general_profile_compatibility_flag 0x7.7-0x8 (0.1)
  0x00|                        00                     |        .       |                                  [24]: false general_profile_compatibility_flag 0x8-0x8.1 (0.1)
  0x00|                        00                     |        .       |                                  [25]: false general_profile_compatibility_flag 0x8.1-0x8.2 (0.1)
  0x00|                        00                     |        .       |                                  [26]: false general_profile_compatibility_flag 0x8.2-0x8.3 (0.1)
  0x00|                        00                     |        .       |                                  [27]: false general_profile_compatibility_flag 0x8.3-0x8.4 (0.1)
  0x00|                        00                     |        .       |                                  [28]: false general_profile_compatibility_flag 0x8.4-0x8.5 (0.1)
  0x00|                        00                     |        .       |                                  [29]: false general_profile_compatibility_flag 0x8.5-0x8.6 (0.1)
  0x00|                        00                     |        .       |                                  [30]: false general_profile_compatibility_flag 0x8.6-0x8.7 (0.1)
  0x00|                        00                     |        .       |                                  [31]: false general_profile_compatibility_flag 0x8.7-0x9 (0.1)
  0x00|                           90                  |         .      |                                general_progressive_source_flag: true 0x9-0x9.1 (0.1)
  0x00|                           90                  |         .      |                                general_interlaced_source_flag: false 0x9.1-0x9.2 (0.1)
  0x00|                           90                  |         .      |                                general_non_packed_constraint_flag: false 0x9.2-0x9.3 (0.1)
  0x00|                           90                  |         .      |                                general_frame_only_constraint_flag: true 0x9.3-0x9.4 (0.1)
  0x00|                           90 00 00 00 00 00   |         ...... |                                general_reserved_zero_43bits: 0 0x9.4-0xe.7 (5.3)
  0x00|                                          00   |              . |                                general_inbld_flag: false 0xe.7-0xf (0.1)
  0x00|                                             3f|               ?|                                general_level_idc: 63 0xf-0x10 (1)
      |                                               |                |                                sub_layer_presents[0:0]: 0x10-0x10 (0)
      |                                               |                |                                sub_layers[0:0]: 0x10-0x10 (0)
  0x01|ba                                             |.               |                                vps_sub_layer_ordering_info_present_flag: true 0x10-0x10.1 (0.1)
      |                                               |                |                                vps_sub_layer_ordering_infos[0:1]: 0x10.1-0x11 (0.7)
      |                                               |                |                                  [0]{}: sps_sub_layer_ordering_info 0x10.1-0x11 (0.7)
  0x01|ba                                             |.               |                                    sps_max_dec_pic_buffering_minus1: 2 0x10.1-0x10.4 (0.3)
  0x01|ba                                             |.               |                                    sps_max_num_reorder_pics: 0 0x10.4-0x10.5 (0.1)
  0x01|ba                                             |.               |                                    sps_max_latency_increase_plus1: 1 0x10.5-0x11 (0.3)
  0x01|   02                                          | .              |                                vps_max_layer_id: 0 0x11-0x11.6 (0.6)
  0x01|   02                                          | .              |                                vps_num_layer_sets_minus1: 0 0x11.6-0x11.7 (0.1)
      |                                               |                |                                layer_id_included_sets_flags[0:1]: 0x11.7-0x12 (0.1)
      |                                               |                |                                  [0][0:1]: layer_id_included_sets_flags 0x11.7-0x12 (0.1)
  0x01|   02                                          | .              |                                    [0]: false layer_id_included_flag_sets_flag 0x11.7-0x12 (0.1)
  0x01|      40|                                      |  @|            |                                vps_timing_info_present_flag: false 0x12-0x12.1 (0.1)
  0x01|      40|                                      |  @|            |                                unknown: raw bits 0x12.1-0x13 (0.7)
0x0100|                        40                     |        @       |                              forbidden_zero_bit: false 0x108-0x108.1 (0.1)
0x0100|                        40                     |        @       |                              nal_unit_type: "VPS_NUT" (32) 0x108.1-0x108.7 (0.6)
0x0100|                        40 01                  |        @.      |                              nuh_layer_id: 0 0x108.7-0x109.5 (0.6)
0x0100|                           01                  |         .      |                              nuh_temporal_id_plus1: 1 0x109.5-0x10a (0.3)
0x0100|                              0c 01 ff ff 03 70|          .....p|                              gap0: raw bits 0x10a-0x120 (22)
0x0110|00 00 03 00 90 00 00 03 00 00 03 00 3f ba 02 40|............?..@|
      |                                               |                |                      [1]{}: array 0x120-0x152 (50)
0x0120|61                                             |a               |                        array_completeness: 0 0x120-0x120.1 (0.1)
0x0120|61                                             |a               |                        reserved0: 1 0x120.1-0x120.2 (0.1)
0x0120|61                                             |a               |                        nal_unit_type: "SPS_NUT" (33) 0x120.2-0x121 (0.6)
0x0120|   00 01                                       | ..             |                        num_nalus: 1 0x121-0x123 (2)
      |                                               |                |                        nals[0:1]: 0x123-0x152 (47)
      |                                               |                |                          [0]{}: nal 0x123-0x152 (47)
0x0120|         00 2d                                 |   .-           |                            nal_unit_length: 45 0x123-0x125 (2)
      |00 01 02 03 04 05 06 07 08 09 0a 0b 0c 0d 0e 0f|0123456789abcdef|                            nal{}: (hevc_nalu) 0x125-0x152 (45)
      |00 01 02 03 04 05 06 07 08 09 0a 0b 0c 0d 0e 0f|0123456789abcdef|                              rbsp{}: 0x0-0x26 (38)
  0x00|01                                             |.               |                                sps_video_parameter_set_id: 0 0x0-0x0.4 (0.4)
  0x00|01                                             |.               |                                sps_max_sub_layers_minus1: 0 0x0.4-0x0.7 (0.3)
  0x00|01                                             |.               |                                sps_temporal_id_nesting_flag: true 0x0.7-0x1 (0.1)
  0x00|   03                                          | .              |                                general_profile_space: 0 0x1-0x1.2 (0.2)
  0x00|   03                                          | .              |                                general_tier_flag: 0 0x1.2-0x1.3 (0.1)
  0x00|   03                                          | .              |                                general_profile_idc: 3 0x1.3-0x2 (0.5)
      |                                               |                |                                general_profile_compatibility_flags[0:32]: 0x2-0x6 (4)
  0x00|      70                                       |  p             |                                  [0]: false general_profile_compatibility_flag 0x2-0x2.1 (0.1)
  0x00|      70                                       |  p             |                                  [1]: true general_profile_compatibility_flag 0x2.1-0x2.2 (0.1)
  0x00|      70                                       |  p             |                                  [2]: true general_profile_compatibility_flag 0x2.2-0x2.3 (0.1)
  0x00|      70                                       |  p             |                                  [3]: true general_profile_compatibility_flag 0x2.3-0x2.4 (0.1)
  0x00|      70                                       |  p             |                                  [4]: false general_profile_compatibility_flag 0x2.4-0x2.5 (0.1)
  0x00|      70                                       |  p             |                                  [5]: false general_profile_compatibility_flag 0x2.5-0x2.6 (0.1)
  0x00|      70                                       |  p             |                                  [6]: false general_profile_compatibility_flag 0x2.6-0x2.7 (0.1)
  0x00|      70                                       |  p             |                                  [7]: false general_profile_compatibility_flag 0x2.7-0x3 (0.1)
  0x00|         00                                    |   .            |                                  [8]: false general_profile_compatibility_flag 0x3-0x3.1 (0.1)
  0x00|         00                                    |   .            |                                  [9]: false general_profile_compatibility_flag 0x3.1-0x3.2 (0.1)
  0x00|         00                                    |   .            |                                  [10]: false general_profile_compatibility_flag 0x3.2-0x3.3 (0.1)
  0x00|         00                                    |   .            |                                  [11]: false general_profile_compatibility_flag 0x3.3-0x3.4 (0.1)
  0x00|         00                                    |   .            |                                  [12]: false general_profile_compatibility_flag 0x3.4-0x3.5 (0.1)
  0x00|         00                                    |   .            |                                  [13]: false general_profile_compatibility_flag 0x3.5-0x3.6 (0.1)
  0x00|         00                                    |   .            |                                  [14]: false general_profile_compatibility_flag 0x3.6-0x3.7 (0.1)
  0x00|         00                                    |   .            |                                  [15]: false general_profile_compatibility_flag 0x3.7-0x4 (0.1)
  0x00|            00                                 |    .           |                                  [16]: false general_profile_compatibility_flag 0x4-0x4.1 (0.1)
  0x00|            00                                 |    .           |                                  [17]: false general_profile_compatibility_flag 0x4.1-0x4.2 (0.1)
  0x00|            00                                 |    .           |                                  [18]: false general_profile_compatibility_flag 0x4.2-0x4.3 (0.1)
  0x00|            00                                 |    .           |                                  [19]: false general_profile_compatibility_flag 0x4.3-0x4.4 (0.1)
  0x00|            00                                 |    .           |                                  [20]: false general_profile_compatibility_flag 0x4.4-0x4.5 (0.1)
  0x00|            00                                 |    .           |                                  [21]: false general_profile_compatibility_flag 0x4.5-0x4.6 (0.1)
  0x00|            00                                 |    .           |                                  [22]: false general_profile_compatibility_flag 0x4.6-0x4.7 (0.1)
  0x00|            00                                 |    .           |                                  [23]: false general_profile_compatibility_flag 0x4.7-0x5 (0.1)
  0x00|               00                              |     .          |                                  [24]: false general_profile_compatibility_flag 0x5-0x5.1 (0.1)
  0x00|               00                              |     .          |                                  [25]: false general_profile_compatibility_flag 0x5.1-0x5.2 (0.1)
  0x00|               00                              |     .          |                                  [26]: false general_profile_compatibility_flag 0x5.2-0x5.3 (0.1)
  0x00|               00                              |     .          |                                  [27]: false general_profile_compatibility_flag 0x5.3-0x5.4 (0.1)
  0x00|               00                              |     .          |                                  [28]: false general_profile_compatibility_flag 0x5.4-0x5.5 (0.1)
  0x00|               00                              |     .          |                                  [29]: false general_profile_compatibility_flag 0x5.5-0x5.6 (0.1)
  0x00|               00                              |     .          |                                  [30]: false general_profile_compatibility_flag 0x5.6-0x5.7 (0.1)
  0x00|               00                              |     .          |                                  [31]: false general_profile_compatibility_flag 0x5.7-0x6 (0.1)
  0x00|                  90                           |      .         |                                general_progressive_source_flag: true 0x6-0x6.1 (0.1)
  0x00|                  90                           |      .         |                                general_interlaced_source_flag: false 0x6.1-0x6.2 (0.1)
  0x00|                  90                           |      .         |                                general_non_packed_constraint_flag: false 0x6.2-0x6.3 (0.1)
  0x00|                  90                           |      .         |                                general_frame_only_constraint_flag: true 0x6.3-0x6.4 (0.1)
  0x00|                  90 00 00 00 00 00            |      ......    |                                general_reserved_zero_43bits: 0 0x6.4-0xb.7 (5.3)
  0x00|                                 00            |           .    |                                general_inbld_flag: false 0xb.7-0xc (0.1)
  0x00|                                    3f         |            ?   |                                general_level_idc: 63 0xc-0xd (1)
      |                                               |                |                                sub_layer_presents[0:0]: 0xd-0xd (0)
      |                                               |                |                                sub_layers[0:0]: 0xd-0xd (0)
  0x00|                                       a0      |             .  |                                sps_seq_parameter_set_id: 0 0xd-0xd.1 (0.1)
  0x00|                                       a0      |             .  |                                chroma_format_idc: "4:2:0" (1) 0xd.1-0xd.4 (0.3)
  0x00|                                       a0 0e 48|             ..H|                                pic_width_in_luma_samples: 456 0xd.4-0xf.5 (2.1)
  0x00|                                             48|               H|                                pic_height_in_luma_samples: 464 0xf.5-0x11.6 (2.1)
  0x01|07 47                                          |.G              |
  0x01|   47                                          | G              |                                conformance_window_flag: true 0x11.6-0x11.7 (0.1)
  0x01|   47                                          | G              |                                conf_win_left_offset: 0 0x11.7-0x12 (0.1)
  0x01|      75                                       |  u             |                                conf_win_right_offset: 2 0x12-0x12.3 (0.3)
  0x01|      75                                       |  u             |                                conf_win_top_offset: 0 0x12.3-0x12.4 (0.1)
  0x01|      75                                       |  u             |                                conf_win_bottom_offset: 1 0x12.4-0x12.7 (0.3)
  0x01|      75                                       |  u             |                                bit_depth_luma_minus8: 0 0x12.7-0x13 (0.1)
  0x01|         96                                    |   .            |                                bit_depth_chroma_minus8: 0 0x13-0x13.1 (0.1)
  0x01|         96                                    |   .            |                                log2_max_pic_order_cnt_lsb_minus4: 4 0x13.1-0x13.6 (0.5)
  0x01|         96                                    |   .            |                                sps_sub_layer_ordering_info_present_flag: true 0x13.6-0x13.7 (0.1)
      |                                               |                |                                sps_sub_layer_ordering_infos[0:1]: 0x13.7-0x14.6 (0.7)
      |                                               |                |                                  [0]{}: sps_sub_layer_ordering_info 0x13.7-0x14.6 (0.7)
  0x01|         96 ea                                 |   ..           |                                    sps_max_dec_pic_buffering_minus1: 2 0x13.7-0x14.2 (0.3)
  0x01|            ea                                 |    .           |                                    sps_max_num_reorder_pics: 0 0x14.2-0x14.3 (0.1)
  0x01|            ea                                 |    .           |                                    sps_max_latency_increase_plus1: 1 0x14.3-0x14.6 (0.3)
  0x01|            ea                                 |    .           |                                log2_min_luma_coding_block_size_minus3: 0 0x14.6-0x14.7 (0.1)
  0x01|            ea 49                              |    .I          |                                log2_diff_max_min_luma_coding_block_size: 3 0x14.7-0x15.4 (0.5)
  0x01|               49                              |     I          |                                log2_min_luma_transform_block_size_minus2: 0 0x15.4-0x15.5 (0.1)
  0x01|               49 29                           |     I)         |                                log2_diff_max_min_luma_transform_block_size: 3 0x15.5-0x16.2 (0.5)
  0x01|                  29                           |      )         |                                max_transform_hierarchy_depth_inter: 0 0x16.2-0x16.3 (0.1)
  0x01|                  29                           |      )         |                                max_transform_hierarchy_depth_intra: 1 0x16.3-0x16.6 (0.3)
  0x01|                  29                           |      )         |                                scaling_list_enabled_flag: false 0x16.6-0x16.7 (0.1)
  0x01|                  29                           |      )         |                                amp_enabled_flag: true 0x16.7-0x17 (0.1)
  0x01|                     ae                        |       .        |                                sample_adaptive_offset_enabled_flag: true 0x17-0x17.1 (0.1)
  0x01|                     ae                        |       .        |                                pcm_enabled_flag: false 0x17.1-0x17.2 (0.1)
  0x01|                     ae                        |       .        |                                num_short_term_ref_pic_sets: 0 0x17.2-0x17.3 (0.1)
  0x01|                     ae                        |       .        |                                long_term_ref_pics_present_flag: false 0x17.3-0x17.4 (0.1)
  0x01|                     ae                        |       .        |                                sps_temporal_mvp_enabled_flag: true 0x17.4-0x17.5 (0.1)
  0x01|                     ae                        |       .        |                                strong_intra_smoothing_enabled_flag: true 0x17.5-0x17.6 (0.1)
  0x01|                     ae                        |       .        |                                vui_parameters_present_flag: true 0x17.6-0x17.7 (0.1)
      |                                               |                |                                vui_parameters{}: 0x17.7-0x25 (13.1)
  0x01|                     ae                        |       .        |                                  aspect_ratio_info_present_flag: false 0x17.7-0x18 (0.1)
  0x01|                        6e                     |        n       |                                  overscan_info_present_flag: false 0x18-0x18.1 (0.1)
  0x01|                        6e                     |        n       |                                  video_signal_type_present_flag: true 0x18.1-0x18.2 (0.1)
  0x01|                        6e                     |        n       |                                  video_format: "unspecified" (5) 0x18.2-0x18.5 (0.3)
  0x01|                        6e                     |        n       |                                  video_full_range_flag: true 0x18.5-0x18.6 (0.1)
  0x01|                        6e                     |        n       |                                  colour_description_present_flag: true 0x18.6-0x18.7 (0.1)
  0x01|                        6e 02                  |        n.      |                                  colour_primaries: "bt709" (1) (ITU-R BT1361 / IEC 61966-2-4 / SMPTE RP 177 Annex B) 0x18.7-0x19.7 (1)
  0x01|                           02 1a               |         ..     |                                  transfer_characteristics: "iec61966_2_1" (13) (IEC 61966-2-1 (sRGB or sYCC)) 0x19.7-0x1a.7 (1)
  0x01|                              1a 0c            |          ..    |                                  matrix_coefficients: "smpte170m" (6) (ITU-R BT601-6 525 / ITU-R BT1358 525 / ITU-R BT1700 NTSC) 0x1a.7-0x1b.7 (1)
  0x01|                                 0c            |           .    |                                  chroma_loc_info_present_flag: false 0x1b.7-0x1c (0.1)
  0x01|                                    08         |            .   |                                  neutral_chroma_indication_flag: false 0x1c-0x1c.1 (0.1)
  0x01|                                    08         |            .   |                                  field_seq_flag: false 0x1c.1-0x1c.2 (0.1)
  0x01|                                    08         |            .   |                                  frame_field_info_present_flag: false 0x1c.2-0x1c.3 (0.1)
  0x01|                                    08         |            .   |                                  default_display_window_flag: false 0x1c.3-0x1c.4 (0.1)
  0x01|                                    08         |            .   |                                  vui_timing_info_present_flag: true 0x1c.4-0x1c.5 (0.1)
  0x01|                                    08 00 00 00|            ....|                                  vui_num_units_in_tick: 25 0x1c.5-0x20.5 (4)
  0x02|c8                                             |.               |
  0x02|c8 00 00 00 08                                 |.....           |                                  vui_time_scale: 1 0x20.5-0x24.5 (4)
  0x02|            08                                 |    .           |                                  vui_poc_proportional_to_timing_flag: false 0x24.5-0x24.6 (0.1)
  0x02|            08                                 |    .           |                                  vui_hrd_parameters_present_flag: false 0x24.6-0x24.7 (0.1)
  0x02|            08                                 |    .           |                                  bitstream_restriction_flag: false 0x24.7-0x25 (0.1)
  0x02|               40|                             |     @|         |                                sps_extension_present_flag: false 0x25-0x25.1 (0.1)
  0x02|               40|                             |     @|         |                                unknown: raw bits 0x25.1-0x26 (0.7)
0x0120|               42                              |     B          |                              forbidden_zero_bit: false 0x125-0x125.1 (0.1)
0x0120|               42                              |     B          |                              nal_unit_type: "SPS_NUT" (33) 0x125.1-0x125.7 (0.6)
0x0120|               42 01                           |     B.         |                              nuh_layer_id: 0 0x125.7-0x126.5 (0.6)
0x0120|                  01                           |      .         |                              nuh_temporal_id_plus1: 1 0x126.5-0x127 (0.3)
0x0120|                     01 03 70 00 00 03 00 90 00|       ..p......|                              gap0: raw bits 0x127-0x152 (43)
0x0130|00 03 00 00 03 00 3f a0 0e 48 07 47 75 96 ea 49|......?..H.Gu..I|
*     |until 0x151.7 (43)                             |                |
      |                                               |                |                      [2]{}: array 0x152-0x15e (12)
0x0150|      62                                       |  b             |                        array_completeness: 0 0x152-0x152.1 (0.1)
0x0150|      62                                       |  b             |                        reserved0: 1 0x152.1-0x152.2 (0.1)
0x0150|      62                                       |  b             |                        nal_unit_type: "PPS_NUT" (34) 0x152.2-0x153 (0.6)
0x0150|         00 01                                 |   ..           |                        num_nalus: 1 0x153-0x155 (2)
      |                                               |                |                        nals[0:1]: 0x155-0x15e (9)
      |                                               |                |                          [0]{}: nal 0x155-0x15e (9)
0x0150|               00 07                           |     ..         |                            nal_unit_length: 7 0x155-0x157 (2)
      |00 01 02 03 04 05 06 07 08 09 0a 0b 0c 0d 0e 0f|0123456789abcdef|                            nal{}: (hevc_nalu) 0x157-0x15e (7)
0x0150|                     44                        |       D        |                              forbidden_zero_bit: false 0x157-0x157.1 (0.1)
0x0150|                     44                        |       D        |                              nal_unit_type: "PPS_NUT" (34) 0x157.1-0x157.7 (0.6)
0x0150|                     44 01                     |       D.       |                              nuh_layer_id: 0 0x157.7-0x158.5 (0.6)
0x0150|                        01                     |        .       |                              nuh_temporal_id_plus1: 1 0x158.5-0x159 (0.3)
      |                                               |                |                              rbsp{}: 0x159-0x15e (5)
0x0150|                           c1                  |         .      |                                pps_pic_parameter_set_id: 0 0x159-0x159.1 (0.1)
0x0150|                           c1                  |         .      |                                pps_seq_parameter_set_id: 0 0x159.1-0x159.2 (0.1)
0x0150|                           c1                  |         .      |                                dependent_slice_segments_enabled_flag: false 0x159.2-0x159.3 (0.1)
0x0150|                           c1                  |         .      |                                output_flag_present_flag: false 0x159.3-0x159.4 (0.1)
0x0150|                           c1                  |         .      |                                num_extra_slice_header_bits: 0 0x159.4-0x159.7 (0.3)
0x0150|                           c1                  |         .      |                                sign_data_hiding_enabled_flag: true 0x159.7-0x15a (0.1)
0x0150|                              72               |          r     |                                cabac_init_present_flag: false 0x15a-0x15a.1 (0.1)
0x0150|                              72               |          r     |                                num_ref_idx_l0_default_active_minus1: 0 0x15a.1-0x15a.2 (0.1)
0x0150|                              72               |          r     |                                num_ref_idx_l1_default_active_minus1: 0 0x15a.2-0x15a.3 (0.1)
0x0150|                              72               |          r     |                                init_qp_minus26: 0 0x15a.3-0x15a.4 (0.1)
0x0150|                              72               |          r     |                                constrained_intra_pred_flag: false 0x15a.4-0x15a.5 (0.1)
0x0150|                              72               |          r     |                                transform_skip_enabled_flag: false 0x15a.5-0x15a.6 (0.1)
0x0150|                              72               |          r     |                                cu_qp_delta_enabled_flag: true 0x15a.6-0x15a.7 (0.1)
0x0150|                              72 b0            |          r.    |                                diff_cu_qp_delta_depth: 1 0x15a.7-0x15b.2 (0.3)
0x0150|                                 b0            |           .    |                                pps_cb_qp_offset: 0 0x15b.2-0x15b.3 (0.1)
0x0150|                                 b0            |           .    |                                pps_cr_qp_offset: 0 0x15b.3-0x15b.4 (0.1)
0x0150|                                 b0            |           .    |                                pps_slice_chroma_qp_offsets_present_flag: false 0x15b.4-0x15b.5 (0.1)
0x0150|                                 b0            |           .    |                                weighted_pred_flag: false 0x15b.5-0x15b.6 (0.1)
0x0150|                                 b0            |           .    |                                weighted_bipred_flag: false 0x15b.6-0x15b.7 (0.1)
0x0150|                                 b0            |           .    |                                transquant_bypass_enabled_flag: false 0x15b.7-0x15c (0.1)
0x0150|                                    62         |            b   |                                tiles_enabled_flag: false 0x15c-0x15c.1 (0.1)
0x0150|                                    62         |            b   |                                entropy_coding_sync_enabled_flag: true 0x15c.1-0x15c.2 (0.1)
0x0150|                                    62         |            b   |                                pps_loop_filter_across_slices_enabled_flag: true 0x15c.2-0x15c.3 (0.1)
0x0150|                                    62         |            b   |                                deblocking_filter_control_present_flag: false 0x15c.3-0x15c.4 (0.1)
0x0150|                                    62         |            b   |                                pps_scaling_list_data_present_flag: false 0x15c.4-0x15c.5 (0.1)
0x0150|                                    62         |            b   |                                lists_modification_present_flag: false 0x15c.5-0x15c.6 (0.1)
0x0150|                                    62         |            b   |                                log2_parallel_merge_level_minus2: 0 0x15c.6-0x15c.7 (0.1)
0x0150|                                    62         |            b   |                                slice_segment_header_extension_present_flag: false 0x15c.7-0x15d (0.1)
0x0150|                                       40      |             @  |                                pps_extension_present_flag: false 0x15d-0x15d.1 (0.1)
0x0150|                                       40      |             @  |                                unknown: raw bits 0x15d.1-0x15e (0.7)
      |                                               |                |                [1]{}: box 0x15e-0x40a (684)
0x0150|                                          00 00|              ..|                  size: 684 0x15e-0x162 (4)
0x0160|02 ac                                          |..              |
0x0160|      63 6f 6c 72                              |  colr          |                  type: "colr" (Specifies the colourspace of the image) 0x162-0x166 (4)
0x0160|                  70 72 6f 66                  |      prof      |                  parameter_type: "prof" 0x166-0x16a (4)
      |00 01 02 03 04 05 06 07 08 09 0a 0b 0c 0d 0e 0f|0123456789abcdef|                  profile{}: (icc_profile) 0x16a-0x40a (672)
      |                                               |                |                    header{}: 0x16a-0x1ea (128)
0x0160|                              00 00 02 a0      |          ....  |                      size: 672 0x16a-0x16e (4)
0x0160|                                          6c 63|              lc|                      cmm_type_signature: "lcms" 0x16e-0x172 (4)
0x0170|6d 73                                          |ms              |
0x0170|      04                                       |  .             |                      version_major: 4 0x172-0x173 (1)
0x0170|         30                                    |   0            |                      version_minor: 30 0x173-0x174 (1)
0x0170|            00 00                              |    ..          |                      version_reserved: 0 0x174-0x176 (2)
0x0170|                  6d 6e 74 72                  |      mntr      |                      device_class_signature: "mntr" 0x176-0x17a (4)
0x0170|                              52 47 42 20      |          RGB   |                      color_space: "RGB" 0x17a-0x17e (4)
0x0170|                                          58 59|              XY|                      connection_space: "XYZ" 0x17e-0x182 (4)
0x0180|5a 20                                          |Z               |
      |                                               |                |                      timestamp{}: 0x182-0x18e (12)
0x0180|      07 e8                                    |  ..            |                        year: 2024 0x182-0x184 (2)
0x0180|            00 0b                              |    ..          |                        month: 11 0x184-0x186 (2)
0x0180|                  00 19                        |      ..        |                        day: 25 0x186-0x188 (2)
0x0180|                        00 0a                  |        ..      |                        hours: 10 0x188-0x18a (2)
0x0180|                              00 2e            |          ..    |                        minutes: 46 0x18a-0x18c (2)
0x0180|                                    00 11      |            ..  |                        seconds: 17 0x18c-0x18e (2)
0x0180|                                          61 63|              ac|                      file_signature: "acsp" 0x18e-0x192 (4)
0x0190|73 70                                          |sp              |
0x0190|      41 50 50 4c                              |  APPL          |                      primary_platform: "APPL" 0x192-0x196 (4)
0x0190|                  00 00 00 00                  |      ....      |                      flags: 0 0x196-0x19a (4)
0x0190|                              00 00 00 00      |          ....  |                      device_manufacturer: "" 0x19a-0x19e (4)
0x0190|                                          00 00|              ..|                      device_model: "" 0x19e-0x1a2 (4)
0x01a0|00 00                                          |..              |
0x01a0|      00 00 00 00 00 00 00 00                  |  ........      |                      device_attribute: "" 0x1a2-0x1aa (8)
0x01a0|                              00 00 00 00      |          ....  |                      render_intent: "" 0x1aa-0x1ae (4)
0x01a0|                                          00 00|              ..|                      xyz_illuminant: "" 0x1ae-0x1ba (12)
0x01b0|f6 d6 00 01 00 00 00 00 d3 2d                  |.........-      |
0x01b0|                              6c 63 6d 73      |          lcms  |                      profile_creator_signature: "lcms" 0x1ba-0x1be (4)
0x01b0|                                          00 00|              ..|                      profile_id: "" 0x1be-0x1ce (16)
0x01c0|00 00 00 00 00 00 00 00 00 00 00 00 00 00      |..............  |
0x01c0|                                          00 00|              ..|                      reserved: raw bits (all zero) 0x1ce-0x1ea (28)
0x01d0|00 00 00 00 00 00 00 00 00 00 00 00 00 00 00 00|................|
0x01e0|00 00 00 00 00 00 00 00 00 00                  |..........      |
      |                                               |                |                    tag_table{}: 0x1ea-0x40a (544)
0x01e0|                              00 00 00 0d      |          ....  |                      count: 13 0x1ea-0x1ee (4)
      |                                               |                |                      table[0:13]: 0x1ee-0x40a (540)
      |                                               |                |                        [0]{}: element 0x1ee-0x2ca (220)
0x01e0|                                          64 65|              de|                          signature: "desc" 0x1ee-0x1f2 (4)
0x01f0|73 63                                          |sc              |
0x01f0|      00 00 01 20                              |  ...           |                          offset: 288 0x1f2-0x1f6 (4)
0x01f0|                  00 00 00 40                  |      ...@      |                          size: 64 0x1f6-0x1fa (4)
0x0280|                              6d 6c 75 63      |          mluc  |                          type: "mluc" 0x28a-0x28e (4)
0x0280|                                          00 00|              ..|                          reserved: 0 0x28e-0x292 (4)
0x0290|00 00                                          |..              |
0x0290|      00 00 00 01                              |  ....          |                          number_of_names: 1 0x292-0x296 (4)
0x0290|                  00 00 00 0c                  |      ....      |                          record_size: 12 0x296-0x29a (4)
      |                                               |                |                          names[0:1]: 0x29a-0x2ca (48)
      |                                               |                |                            [0]{}: name 0x29a-0x2ca (48)
0x0290|                              65 6e            |          en    |                              language_code: "en" 0x29a-0x29c (2)
0x0290|                                    55 53      |            US  |                              country_code: "US" 0x29c-0x29e (2)
0x0290|                                          00 00|              ..|                              name_length: 36 0x29e-0x2a2 (4)
0x02a0|00 24                                          |.$              |
0x02a0|      00 00 00 1c                              |  ....          |                              name_offset: 28 0x2a2-0x2a6 (4)
0x02a0|                  00 47 00 49 00 4d 00 50 00 20|      .G.I.M.P. |                              value: "GIMP built-in sRGB" 0x2a6-0x2ca (36)
0x02b0|00 62 00 75 00 69 00 6c 00 74 00 2d 00 69 00 6e|.b.u.i.l.t.-.i.n|
0x02c0|00 20 00 73 00 52 00 47 00 42                  |. .s.R.G.B      |
      |                                               |                |                        [1]{}: element 0x1fa-0x302 (264)
0x01f0|                              63 70 72 74      |          cprt  |                          signature: "cprt" 0x1fa-0x1fe (4)
0x01f0|                                          00 00|              ..|                          offset: 352 0x1fe-0x202 (4)
0x0200|01 60                                          |.`              |
0x0200|      00 00 00 36                              |  ...6          |                          size: 54 0x202-0x206 (4)
0x02c0|                              6d 6c 75 63      |          mluc  |                          type: "mluc" 0x2ca-0x2ce (4)
0x02c0|                                          00 00|              ..|                          reserved: 0 0x2ce-0x2d2 (4)
0x02d0|00 00                                          |..              |
0x02d0|      00 00 00 01                              |  ....          |                          number_of_names: 1 0x2d2-0x2d6 (4)
0x02d0|                  00 00 00 0c                  |      ....      |                          record_size: 12 0x2d6-0x2da (4)
      |                                               |                |                          names[0:1]: 0x2da-0x300 (38)
      |                                               |                |                            [0]{}: name 0x2da-0x300 (38)
0x02d0|                              65 6e            |          en    |                              language_code: "en" 0x2da-0x2dc (2)
0x02d0|                                    55 53      |            US  |                              country_code: "US" 0x2dc-0x2de (2)
0x02d0|                                          00 00|              ..|                              name_length: 26 0x2de-0x2e2 (4)
0x02e0|00 1a                                          |..              |
0x02e0|      00 00 00 1c                              |  ....          |                              name_offset: 28 0x2e2-0x2e6 (4)
0x02e0|                  00 50 00 75 00 62 00 6c 00 69|      .P.u.b.l.i|                              value: "Public Domain" 0x2e6-0x300 (26)
0x02f0|00 63 00 20 00 44 00 6f 00 6d 00 61 00 69 00 6e|.c. .D.o.m.a.i.n|
0x0300|00 00                                          |..              |                          alignment: raw bits 0x300-0x302 (2)
      |                                               |                |                        [2]{}: element 0x206-0x316 (272)
0x0200|                  77 74 70 74                  |      wtpt      |                          signature: "wtpt" 0x206-0x20a (4)
0x0200|                              00 00 01 98      |          ....  |                          offset: 408 0x20a-0x20e (4)
0x0200|                                          00 00|              ..|                          size: 20 0x20e-0x212 (4)
0x0210|00 14                                          |..              |
0x0300|      58 59 5a 20                              |  XYZ           |                          type: "XYZ" 0x302-0x306 (4)
0x0300|                  00 00 00 00                  |      ....      |                          reserved: 0 0x306-0x30a (4)
0x0300|                              00 00 f6 d6      |          ....  |                          x: 0.964202880859375 0x30a-0x30e (4)
0x0300|                                          00 01|              ..|                          y: 1 0x30e-0x312 (4)
0x0310|00 00                                          |..              |
0x0310|      00 00 d3 2d                              |  ...-          |                          z: 0.8249053955078125 0x312-0x316 (4)
      |                                               |                |                        [3]{}: element 0x212-0x342 (304)
0x0210|      63 68 61 64                              |  chad          |                          signature: "chad" 0x212-0x216 (4)
0x0210|                  00 00 01 ac                  |      ....      |                          offset: 428 0x216-0x21a (4)
0x0210|                              00 00 00 2c      |          ...,  |                          size: 44 0x21a-0x21e (4)
0x0310|                  73 66 33 32                  |      sf32      |                          type: "sf32" 0x316-0x31a (4)
0x0310|                              00 00 00 00      |          ....  |                          reserved: 0 0x31a-0x31e (4)
0x0310|                                          00 01|              ..|                          data: raw bits 0x31e-0x342 (36)
0x0320|0c 42 00 00 05 de ff ff f3 25 00 00 07 93 00 00|.B.......%......|
*     |until 0x341.7 (36)                             |                |
      |                                               |                |                        [4]{}: element 0x21e-0x356 (312)
0x0210|                                          72 58|              rX|                          signature: "rXYZ" 0x21e-0x222 (4)
0x0220|59 5a                                          |YZ              |
0x0220|      00 00 01 d8                              |  ....          |                          offset: 472 0x222-0x226 (4)
0x0220|                  00 00 00 14                  |      ....      |                          size: 20 0x226-0x22a (4)
0x0340|      58 59 5a 20                              |  XYZ           |                          type: "XYZ" 0x342-0x346 (4)
0x0340|                  00 00 00 00                  |      ....      |                          reserved: 0 0x346-0x34a (4)
0x0340|                              00 00 6f a0      |          ..o.  |                          x: 0.43603515625 0x34a-0x34e (4)
0x0340|                                          00 00|              ..|                          y: 0.2224884033203125 0x34e-0x352 (4)
0x0350|38 f5                                          |8.              |
0x0350|      00 00 03 90                              |  ....          |                          z: 0.013916015625 0x352-0x356 (4)
      |                                               |                |                        [5]{}: element 0x22a-0x36a (320)
0x0220|                              62 58 59 5a      |          bXYZ  |                          signature: "bXYZ" 0x22a-0x22e (4)
0x0220|                                          00 00|              ..|                          offset: 492 0x22e-0x232 (4)
0x0230|01 ec                                          |..              |
0x0230|      00 00 00 14                              |  ....          |                          size: 20 0x232-0x236 (4)
0x0350|                  58 59 5a 20                  |      XYZ       |                          type: "XYZ" 0x356-0x35a (4)
0x0350|                              00 00 00 00      |          ....  |                          reserved: 0 0x35a-0x35e (4)
0x0350|                                          00 00|              ..|                          x: 0.1430511474609375 0x35e-0x362 (4)
0x0360|24 9f                                          |$.              |
0x0360|      00 00 0f 84                              |  ....          |                          y: 0.06060791015625 0x362-0x366 (4)
0x0360|                  00 00 b6 c4                  |      ....      |                          z: 0.71392822265625 0x366-0x36a (4)
      |                                               |                |                        [6]{}: element 0x236-0x37e (328)
0x0230|                  67 58 59 5a                  |      gXYZ      |                          signature: "gXYZ" 0x236-0x23a (4)
0x0230|                              00 00 02 00      |          ....  |                          offset: 512 0x23a-0x23e (4)
0x0230|                                          00 00|              ..|                          size: 20 0x23e-0x242 (4)
0x0240|00 14                                          |..              |
0x0360|                              58 59 5a 20      |          XYZ   |                          type: "XYZ" 0x36a-0x36e (4)
0x0360|                                          00 00|              ..|                          reserved: 0 0x36e-0x372 (4)
0x0370|00 00                                          |..              |
0x0370|      00 00 62 97                              |  ..b.          |                          x: 0.3851165771484375 0x372-0x376 (4)
0x0370|                  00 00 b7 87                  |      ....      |                          y: 0.7169036865234375 0x376-0x37a (4)
0x0370|                              00 00 18 d9      |          ....  |                          z: 0.0970611572265625 0x37a-0x37e (4)
      |                                               |                |                        [7]{}: element 0x242-0x39e (348)
0x0240|      72 54 52 43                              |  rTRC          |                          signature: "rTRC" 0x242-0x246 (4)
0x0240|                  00 00 02 14                  |      ....      |                          offset: 532 0x246-0x24a (4)
0x0240|                              00 00 00 20      |          ...   |                          size: 32 0x24a-0x24e (4)
0x0370|                                          70 61|              pa|                          type: "para" 0x37e-0x382 (4)
0x0380|72 61                                          |ra              |
0x0380|      00 00 00 00                              |  ....          |                          reserved: 0 0x382-0x386 (4)
0x0380|                  00 03 00 00                  |      ....      |                          reserved0: 196608 0x386-0x38a (4)
0x0380|                              00 02            |          ..    |                          function_type: 2 0x38a-0x38c (2)
0x0380|                                    66 66      |            ff  |                          reserved1: 26214 0x38c-0x38e (2)
0x0380|                                          00 00|              ..|                          parameters: raw bits 0x38e-0x39e (16)
0x0390|f2 a7 00 00 0d 59 00 00 13 d0 00 00 0a 5b      |.....Y.......[  |
      |                                               |                |                        [8]{}: element 0x24e-0x39e (336)
0x0240|                                          67 54|              gT|                          signature: "gTRC" 0x24e-0x252 (4)
0x0250|52 43                                          |RC              |
0x0250|      00 00 02 14                              |  ....          |                          offset: 532 0x252-0x256 (4)
0x0250|                  00 00 00 20                  |      ...       |                          size: 32 0x256-0x25a (4)
0x0370|                                          70 61|              pa|                          type: "para" 0x37e-0x382 (4)
0x0380|72 61                                          |ra              |
0x0380|      00 00 00 00                              |  ....          |                          reserved: 0 0x382-0x386 (4)
0x0380|                  00 03 00 00                  |      ....      |                          reserved0: 196608 0x386-0x38a (4)
0x0380|                              00 02            |          ..    |                          function_type: 2 0x38a-0x38c (2)
0x0380|                                    66 66      |            ff  |                          reserved1: 26214 0x38c-0x38e (2)
0x0380|                                          00 00|              ..|                          parameters: raw bits 0x38e-0x39e (16)
0x0390|f2 a7 00 00 0d 59 00 00 13 d0 00 00 0a 5b      |.....Y.......[  |
      |                                               |                |                        [9]{}: element 0x25a-0x39e (324)
0x0250|                              62 54 52 43      |          bTRC  |                          signature: "bTRC" 0x25a-0x25e (4)
0x0250|                                          00 00|              ..|                          offset: 532 0x25e-0x262 (4)
0x0260|02 14                                          |..              |
0x0260|      00 00 00 20                              |  ...           |                          size: 32 0x262-0x266 (4)
0x0370|                                          70 61|              pa|                          type: "para" 0x37e-0x382 (4)
0x0380|72 61                                          |ra              |
0x0380|      00 00 00 00                              |  ....          |                          reserved: 0 0x382-0x386 (4)
0x0380|                  00 03 00 00                  |      ....      |                          reserved0: 196608 0x386-0x38a (4)
0x0380|                              00 02            |          ..    |                          function_type: 2 0x38a-0x38c (2)
0x0380|                                    66 66      |            ff  |                          reserved1: 26214 0x38c-0x38e (2)
0x0380|                                          00 00|              ..|                          parameters: raw bits 0x38e-0x39e (16)
0x0390|f2 a7 00 00 0d 59 00 00 13 d0 00 00 0a 5b      |.....Y.......[  |
      |                                               |                |                        [10]{}: element 0x266-0x3c2 (348)
0x0260|                  63 68 72 6d                  |      chrm      |                          signature: "chrm" 0x266-0x26a (4)
0x0260|                              00 00 02 34      |          ...4  |                          offset: 564 0x26a-0x26e (4)
0x0260|                                          00 00|              ..|                          size: 36 0x26e-0x272 (4)
0x0270|00 24                                          |.$              |
0x0390|                                          63 68|              ch|                          type: "chrm" 0x39e-0x3a2 (4)
0x03a0|72 6d                                          |rm              |
0x03a0|      00 00 00 00                              |  ....          |                          reserved: 0 0x3a2-0x3a6 (4)
0x03a0|                  00 03 00 00 00 00 a3 d7 00 00|      ..........|                          data: raw bits 0x3a6-0x3c2 (28)
0x03b0|54 7c 00 00 4c cd 00 00 99 9a 00 00 26 67 00 00|T|..L.......&g..|
0x03c0|0f 5c                                          |.\              |
      |                                               |                |                        [11]{}: element 0x272-0x3e6 (372)
0x0270|      64 6d 6e 64                              |  dmnd          |                          signature: "dmnd" 0x272-0x276 (4)
0x0270|                  00 00 02 58                  |      ...X      |                          offset: 600 0x276-0x27a (4)
0x0270|                              00 00 00 24      |          ...$  |                          size: 36 0x27a-0x27e (4)
0x03c0|      6d 6c 75 63                              |  mluc          |                          type: "mluc" 0x3c2-0x3c6 (4)
0x03c0|                  00 00 00 00                  |      ....      |                          reserved: 0 0x3c6-0x3ca (4)
0x03c0|                              00 00 00 01      |          ....  |                          number_of_names: 1 0x3ca-0x3ce (4)
0x03c0|                                          00 00|              ..|                          record_size: 12 0x3ce-0x3d2 (4)
0x03d0|00 0c                                          |..              |
      |                                               |                |                          names[0:1]: 0x3d2-0x3e6 (20)
      |                                               |                |                            [0]{}: name 0x3d2-0x3e6 (20)
0x03d0|      65 6e                                    |  en            |                              language_code: "en" 0x3d2-0x3d4 (2)
0x03d0|            55 53                              |    US          |                              country_code: "US" 0x3d4-0x3d6 (2)
0x03d0|                  00 00 00 08                  |      ....      |                              name_length: 8 0x3d6-0x3da (4)
0x03d0|                              00 00 00 1c      |          ....  |                              name_offset: 28 0x3da-0x3de (4)
0x03d0|                                          00 47|              .G|                              value: "GIMP" 0x3de-0x3e6 (8)
0x03e0|00 49 00 4d 00 50                              |.I.M.P          |
      |                                               |                |                        [12]{}: element 0x27e-0x40a (396)
0x0270|                                          64 6d|              dm|                          signature: "dmdd" 0x27e-0x282 (4)
0x0280|64 64                                          |dd              |
0x0280|      00 00 02 7c                              |  ...|          |                          offset: 636 0x282-0x286 (4)
0x0280|                  00 00 00 24                  |      ...$      |                          size: 36 0x286-0x28a (4)
0x03e0|                  6d 6c 75 63                  |      mluc      |                          type: "mluc" 0x3e6-0x3ea (4)
0x03e0|                              00 00 00 00      |          ....  |                          reserved: 0 0x3ea-0x3ee (4)
0x03e0|                                          00 00|              ..|                          number_of_names: 1 0x3ee-0x3f2 (4)
0x03f0|00 01                                          |..              |
0x03f0|      00 00 00 0c                              |  ....          |                          record_size: 12 0x3f2-0x3f6 (4)
      |                                               |                |                          names[0:1]: 0x3f6-0x40a (20)
      |                                               |                |                            [0]{}: name 0x3f6-0x40a (20)
0x03f0|                  65 6e                        |      en        |                              language_code: "en" 0x3f6-0x3f8 (2)
0x03f0|                        55 53                  |        US      |                              country_code: "US" 0x3f8-0x3fa (2)
0x03f0|                              00 00 00 08      |          ....  |                              name_length: 8 0x3fa-0x3fe (4)
0x03f0|                                          00 00|              ..|                              name_offset: 28 0x3fe-0x402 (4)
0x0400|00 1c                                          |..              |
0x0400|      00 73 00 52 00 47 00 42                  |  .s.R.G.B      |                              value: "sRGB" 0x402-0x40a (8)
      |                                               |                |                [2]{}: box 0x40a-0x41e (20)
0x0400|                              00 00 00 14      |          ....  |                  size: 20 0x40a-0x40e (4)
0x0400|                                          69 73|              is|                  type: "ispe" (Image spatial extents) 0x40e-0x412 (4)
0x0410|70 65                                          |pe              |
0x0410|      00                                       |  .             |                  version: 0 0x412-0x413 (1)
0x0410|         00 00 00                              |   ...          |                  flags: 0 0x413-0x416 (3)
0x0410|                  00 00 01 c4                  |      ....      |                  image_width: 452 0x416-0x41a (4)
0x0410|                              00 00 01 ce      |          ....  |                  image_height: 462 0x41a-0x41e (4)
      |                                               |                |                [3]{}: box 0x41e-0x446 (40)
0x0410|                                          00 00|              ..|                  size: 40 0x41e-0x422 (4)
0x0420|00 28                                          |.(              |
0x0420|      63 6c 61 70                              |  clap          |                  type: "clap" 0x422-0x426 (4)
0x0420|                  00 00 01 c3                  |      ....      |                  aperture_width_n: 451 0x426-0x42a (4)
0x0420|                              00 00 00 01      |          ....  |                  aperture_width_d: 1 0x42a-0x42e (4)
0x0420|                                          00 00|              ..|                  aperture_height_n: 461 0x42e-0x432 (4)
0x0430|01 cd                                          |..              |
0x0430|      00 00 00 01                              |  ....          |                  aperture_height_d: 1 0x432-0x436 (4)
0x0430|                  ff ff ff ff                  |      ....      |                  horiz_off_n: 4294967295 0x436-0x43a (4)
0x0430|                              00 00 00 02      |          ....  |                  horiz_off_d: 2 0x43a-0x43e (4)
0x0430|                                          ff ff|              ..|                  vert_off_n: 4294967295 0x43e-0x442 (4)
0x0440|ff ff                                          |..              |
0x0440|      00 00 00 02                              |  ....          |                  vert_off_d: 2 0x442-0x446 (4)
      |                                               |                |                [4]{}: box 0x446-0x454 (14)
0x0440|                  00 00 00 0e                  |      ....      |                  size: 14 0x446-0x44a (4)
0x0440|                              70 69 78 69      |          pixi  |                  type: "pixi" (Pixel information) 0x44a-0x44e (4)
0x0440|                                          00 00|              ..|                  data: raw bits 0x44e-0x454 (6)
0x0450|00 00 01 08                                    |....            |
      |                                               |                |            [1]{}: box 0x454-0x46c (24)
0x0450|            00 00 00 18                        |    ....        |              size: 24 0x454-0x458 (4)
0x0450|                        69 70 6d 61            |        ipma    |              type: "ipma" (ItemPropertyAssociation) 0x458-0x45c (4)
0x0450|                                    00         |            .   |              version: 0 0x45c-0x45d (1)
0x0450|                                       00 00 00|             ...|              flags: 0 0x45d-0x460 (3)
0x0460|00 00 00 01                                    |....            |              entry_count: 1 0x460-0x464 (4)
      |                                               |                |              entries[0:1]: 0x464-0x46c (8)
      |                                               |                |                [0]{}: entry 0x464-0x46c (8)
0x0460|            00 01                              |    ..          |                  item_id: 1 0x464-0x466 (2)
0x0460|                  05                           |      .         |                  association_count: 5 0x466-0x467 (1)
      |                                               |                |                  associations[0:5]: 0x467-0x46c (5)
      |                                               |                |                    [0]{}: association 0x467-0x468 (1)
0x0460|                     81                        |       .        |                      essential: true 0x467-0x467.1 (0.1)
0x0460|                     81                        |       .        |                      property_index: 1 0x467.1-0x468 (0.7)
      |                                               |                |                    [1]{}: association 0x468-0x469 (1)
0x0460|                        02                     |        .       |                      essential: false 0x468-0x468.1 (0.1)
0x0460|                        02                     |        .       |                      property_index: 2 0x468.1-0x469 (0.7)
      |                                               |                |                    [2]{}: association 0x469-0x46a (1)
0x0460|                           03                  |         .      |                      essential: false 0x469-0x469.1 (0.1)
0x0460|                           03                  |         .      |                      property_index: 3 0x469.1-0x46a (0.7)
      |                                               |                |                    [3]{}: association 0x46a-0x46b (1)
0x0460|                              05               |          .     |                      essential: false 0x46a-0x46a.1 (0.1)
0x0460|                              05               |          .     |                      property_index: 5 0x46a.1-0x46b (0.7)
      |                                               |                |                    [4]{}: association 0x46b-0x46c (1)
0x0460|                                 84            |           .    |                      essential: true 0x46b-0x46b.1 (0.1)
0x0460|                                 84            |           .    |                      property_index: 4 0x46b.1-0x46c (0.7)
      |                                               |                |        [5]{}: box 0x46c-0x486 (26)
0x0460|                                    00 00 00 1a|            ....|          size: 26 0x46c-0x470 (4)
0x0470|69 72 65 66                                    |iref            |          type: "iref" (Item reference) 0x470-0x474 (4)
0x0470|            00                                 |    .           |          version: 0 0x474-0x475 (1)
0x0470|               00 00 00                        |     ...        |          flags: 0 0x475-0x478 (3)
      |                                               |                |          boxes[0:1]: 0x478-0x486 (14)
      |                                               |                |            [0]{}: box 0x478-0x486 (14)
0x0470|                        00 00 00 0e            |        ....    |              size: 14 0x478-0x47c (4)
0x0470|                                    63 64 73 63|            cdsc|              type: "cdsc" (Content description) 0x47c-0x480 (4)
0x0480|00 02                                          |..              |              from_id: 2 0x480-0x482 (2)
0x0480|      00 01                                    |  ..            |              count: 1 0x482-0x484 (2)
      |                                               |                |              ids[0:1]: 0x484-0x486 (2)
0x0480|            00 01                              |    ..          |                [0]: 1 id 0x484-0x486 (2)
      |                                               |                |    [2]{}: box 0x486-0x1ba8 (5922)
0x0480|                  00 00 17 22                  |      ..."      |      size: 5922 0x486-0x48a (4)
0x0480|                              6d 64 61 74      |          mdat  |      type: "mdat" (Media data container) 0x48a-0x48e (4)
0x0480|                                          00 00|              ..|      data: raw bits 0x48e-0x1ba8 (5914)
0x0490|09 42 28 01 af 13 10 26 79 3b b6 48 e9 53 19 cc|.B(....&y;.H.S..|
*     |until 0x1ba7.7 (end) (5914)                    |                |
      |                                               |                |  items[0:2]: 0x48e-0x1ba8 (5914)
      |                                               |                |    [0]{}: item 0x48e-0x1ba8 (5914)
      |00 01 02 03 04 05 06 07 08 09 0a 0b 0c 0d 0e 0f|0123456789abcdef|      data[0:1]: (hevc_au) 0x48e-0xdd4 (2374)
      |                                               |                |        [0]{}: nalu 0x48e-0xdd4 (2374)
0x0480|                                          00 00|              ..|          length: 2370 0x48e-0x492 (4)
0x0490|09 42                                          |.B              |
      |00 01 02 03 04 05 06 07 08 09 0a 0b 0c 0d 0e 0f|0123456789abcdef|          nalu{}: (hevc_nalu) 0x492-0xdd4 (2370)
0x0490|      28                                       |  (             |            forbidden_zero_bit: false 0x492-0x492.1 (0.1)
0x0490|      28                                       |  (             |            nal_unit_type: "IDR_N_LP" (20) 0x492.1-0x492.7 (0.6)
0x0490|      28 01                                    |  (.            |            nuh_layer_id: 0 0x492.7-0x493.5 (0.6)
0x0490|         01                                    |   .            |            nuh_temporal_id_plus1: 1 0x493.5-0x494 (0.3)
      |                                               |                |            rbsp{}: 0x494-0xdd4 (2368)
0x0490|            af 13 10 26 79 3b b6 48 e9 53 19 cc|    ...&y;.H.S..|              data: raw bits 0x494-0xdd4 (2368)
0x04a0|5a 52 1e 72 b9 df 46 e9 d2 97 61 12 f6 71 2d b6|ZR.r..F...a..q-.|
*     |until 0xdd3.7 (2368)                           |                |
      |                                               |                |      id: 1
      |                                               |                |      type: "hvc1"
      |                                               |                |      properties[0:5]: 0x1ba8-0x1ba8 (0)
      |                                               |                |        [0]{}: property 0x1ba8-0x1ba8 (0)
      |                                               |                |          index: 1
      |                                               |                |          essential: true
      |                                               |                |          type: "hvcC"
      |                                               |                |        [1]{}: property 0x1ba8-0x1ba8 (0)
      |                                               |                |          index: 2
      |                                               |                |          essential: false
      |                                               |                |          type: "colr"
      |                                               |                |        [2]{}: property 0x1ba8-0x1ba8 (0)
      |                                               |                |          index: 3
      |                                               |                |          essential: false
      |                                               |                |          type: "ispe"
      |                                               |                |        [3]{}: property 0x1ba8-0x1ba8 (0)
      |                                               |                |          index: 5
      |                                               |                |          essential: false
      |                                               |                |          type: "pixi"
      |                                               |                |        [4]{}: property 0x1ba8-0x1ba8 (0)
      |                                               |                |          index: 4
      |                                               |                |          essential: true
      |                                               |                |          type: "clap"
      |                                               |                |    [1]{}: item 0xdd4-0x1ba8 (3540)
0x0dd0|            3c 3f 78 70 61 63 6b 65 74 20 62 65|    <?xpacket be|      data: raw bits 0xdd4-0x1ba8 (3540)
0x0de0|67 69 6e 3d 22 ef bb bf 22 20 69 64 3d 22 57 35|gin="..." id="W5|
*     |until 0x1ba7.7 (end) (3540)                    |                |
      |                                               |                |      id: 2
      |                                               |                |      type: "mime"
      |                                               |                |      content_type: "application/rdf+xml"
      |                                               |                |      properties[0:0]: 0x1ba8-0x1ba8 (0)
