# https://github.com/link-u/avif-sample-images/blob/master/star-8bpc.avifs
$ fq dv star-8bpc.avifs
      |00 01 02 03 04 05 06 07 08 09 0a 0b 0c 0d 0e 0f|0123456789abcdef|.{}: star-8bpc.avifs (heif) 0x0-0x3d3f (15679)
      |                                               |                |  boxes[0:5]: 0x0-0x3d3f (15679)
      |                                               |                |    [0]{}: box 0x0-0x20 (32)
0x0000|00 00 00 20                                    |...             |      size: 32 0x0-0x4 (4)
0x0000|            66 74 79 70                        |    ftyp        |      type: "ftyp" (File type and compatibility) 0x4-0x8 (4)
0x0000|                        61 76 69 73            |        avis    |      major_brand: "avis" 0x8-0xc (4)
0x0000|                                    00 00 00 00|            ....|      minor_version: 0 0xc-0x10 (4)
      |                                               |                |      brands[0:4]: 0x10-0x20 (16)
0x0010|61 76 69 73                                    |avis            |        [0]: "avis" brand 0x10-0x14 (4)
0x0010|            6d 73 66 31                        |    msf1        |        [1]: "msf1" brand (High Efficiency Image Format sequence (.HEIFS)) 0x14-0x18 (4)
0x0010|                        6d 69 61 66            |        miaf    |        [2]: "miaf" brand 0x18-0x1c (4)
0x0010|                                    4d 41 31 42|            MA1B|        [3]: "MA1B" brand 0x1c-0x20 (4)
      |                                               |                |    [1]{}: box 0x20-0x126 (262)
0x0020|00 00 01 06                                    |....            |      size: 262 0x20-0x24 (4)
0x0020|            6d 65 74 61                        |    meta        |      type: "meta" (Metadata container) 0x24-0x28 (4)
0x0020|                        00 00 00 00            |        ....    |      maybe_flags: 0 0x28-0x2c (4)
      |                                               |                |      boxes[0:5]: 0x2c-0x126 (250)
      |                                               |                |        [0]{}: box 0x2c-0x5e (50)
0x0020|                                    00 00 00 32|            ...2|          size: 50 0x2c-0x30 (4)
0x0030|68 64 6c 72                                    |hdlr            |          type: "hdlr" (Handler, declares the media (handler) type) 0x30-0x34 (4)
0x0030|            00                                 |    .           |          version: 0 0x34-0x35 (1)
0x0030|               00 00 00                        |     ...        |          flags: 0 0x35-0x38 (3)
0x0030|                        00 00 00 00            |        ....    |          component_type: "" 0x38-0x3c (4)
0x0030|                                    70 69 63 74|            pict|          component_subtype: "pict" (Picture) 0x3c-0x40 (4)
0x0040|00 00 00 00                                    |....            |          component_manufacturer: "" 0x40-0x44 (4)
0x0040|            00 00 00 00                        |    ....        |          component_flags: 0 0x44-0x48 (4)
0x0040|                        00 00 00 00            |        ....    |          component_flags_mask: 0 0x48-0x4c (4)
0x0040|                                    47 50 41 43|            GPAC|          component_name: "GPAC pict Handler" 0x4c-0x5e (18)
0x0050|20 70 69 63 74 20 48 61 6e 64 6c 65 72 00      | pict Handler.  |
      |                                               |                |        [1]{}: box 0x5e-0x6c (14)
0x0050|                                          00 00|              ..|          size: 14 0x5e-0x62 (4)
0x0060|00 0e                                          |..              |
0x0060|      70 69 74 6d                              |  pitm          |          type: "pitm" (Primary item reference) 0x62-0x66 (4)
0x0060|                  00                           |      .         |          version: 0 0x66-0x67 (1)
0x0060|                     00 00 00                  |       ...      |          flags: 0 0x67-0x6a (3)
0x0060|                              00 01            |          ..    |          item_id: 1 0x6a-0x6c (2)
      |                                               |                |        [2]{}: box 0x6c-0x8a (30)
0x0060|                                    00 00 00 1e|            ....|          size: 30 0x6c-0x70 (4)
0x0070|69 6c 6f 63                                    |iloc            |          type: "iloc" (Item location) 0x70-0x74 (4)
0x0070|            00                                 |    .           |          version: 0 0x74-0x75 (1)
0x0070|               00 00 00                        |     ...        |          flags: 0 0x75-0x78 (3)
0x0070|                        04                     |        .       |          offset_size: 0 0x78-0x78.4 (0.4)
0x0070|                        04                     |        .       |          length_size: 4 0x78.4-0x79 (0.4)
0x0070|                           40                  |         @      |          base_offset_size: 4 0x79-0x79.4 (0.4)
0x0070|                           40                  |         @      |          reserved: 0 0x79.4-0x7a (0.4)
0x0070|                              00 01            |          ..    |          item_count: 1 0x7a-0x7c (2)
      |                                               |                |          items[0:1]: 0x7c-0x8a (14)
      |                                               |                |            [0]{}: item 0x7c-0x8a (14)
0x0070|                                    00 01      |            ..  |              id: 1 0x7c-0x7e (2)
0x0070|                                          00 00|              ..|              data_reference_index: 0 0x7e-0x80 (2)
0x0080|00 00 04 1b                                    |....            |              base_offset: 1051 0x80-0x84 (4)
0x0080|            00 01                              |    ..          |              extent_count: 1 0x84-0x86 (2)
      |                                               |                |              extends[0:1]: 0x86-0x8a (4)
      |                                               |                |                [0]{}: extent 0x86-0x8a (4)
      |                                               |                |                  offset: 0 0x86-0x86 (0)
0x0080|                  00 00 0d 3a                  |      ...:      |                  length: 3386 0x86-0x8a (4)
      |                                               |                |        [3]{}: box 0x8a-0xb2 (40)
0x0080|                              00 00 00 28      |          ...(  |          size: 40 0x8a-0x8e (4)
0x0080|                                          69 69|              ii|          type: "iinf" (Item information) 0x8e-0x92 (4)
0x0090|6e 66                                          |nf              |
0x0090|      00                                       |  .             |          version: 0 0x92-0x93 (1)
0x0090|         00 00 00                              |   ...          |          flags: 0 0x93-0x96 (3)
0x0090|                  00 01                        |      ..        |          entry_count: 1 0x96-0x98 (2)
      |                                               |                |          boxes[0:1]: 0x98-0xb2 (26)
      |                                               |                |            [0]{}: box 0x98-0xb2 (26)
0x0090|                        00 00 00 1a            |        ....    |              size: 26 0x98-0x9c (4)
0x0090|                                    69 6e 66 65|            infe|              type: "infe" (Item information entry) 0x9c-0xa0 (4)
0x00a0|02                                             |.               |              version: 2 0xa0-0xa1 (1)
0x00a0|   00 00 00                                    | ...            |              flags: 0 0xa1-0xa4 (3)
0x00a0|            00 01                              |    ..          |              item_id: 1 0xa4-0xa6 (2)
0x00a0|                  00 00                        |      ..        |              item_protection_index: 0 0xa6-0xa8 (2)
0x00a0|                        61 76 30 31            |        av01    |              item_type: "av01" 0xa8-0xac (4)
0x00a0|                                    49 6d 61 67|            Imag|              item_name: "Image" 0xac-0xb2 (6)
0x00b0|65 00                                          |e.              |
      |                                               |                |        [4]{}: box 0xb2-0x126 (116)
0x00b0|      00 00 00 74                              |  ...t          |          size: 116 0xb2-0xb6 (4)
0x00b0|                  69 70 72 70                  |      iprp      |          type: "iprp" (Item Properties Box) 0xb6-0xba (4)
      |                                               |                |          boxes[0:2]: 0xba-0x126 (108)
      |                                               |                |            [0]{}: box 0xba-0x10f (85)
0x00b0|                              00 00 00 55      |          ...U  |              size: 85 0xba-0xbe (4)
0x00b0|                                          69 70|              ip|              type: "ipco" (ItemPropertyContainerBox) 0xbe-0xc2 (4)
0x00c0|63 6f                                          |co              |
      |                                               |                |              boxes[0:4]: 0xc2-0x10f (77)
      |                                               |                |                [0]{}: box 0xc2-0xd6 (20)
0x00c0|      00 00 00 14                              |  ....          |                  size: 20 0xc2-0xc6 (4)
0x00c0|                  69 73 70 65                  |      ispe      |                  type: "ispe" (Image spatial extents) 0xc6-0xca (4)
0x00c0|                              00               |          .     |                  version: 0 0xca-0xcb (1)
0x00c0|                                 00 00 00      |           ...  |                  flags: 0 0xcb-0xce (3)
0x00c0|                                          00 00|              ..|                  image_width: 159 0xce-0xd2 (4)
0x00d0|00 9f                                          |..              |
0x00d0|      00 00 00 9f                              |  ....          |                  image_height: 159 0xd2-0xd6 (4)
      |                                               |                |                [1]{}: box 0xd6-0xe6 (16)
0x00d0|                  00 00 00 10                  |      ....      |                  size: 16 0xd6-0xda (4)
0x00d0|                              70 61 73 70      |          pasp  |                  type: "pasp" (Pixel aspect ratio) 0xda-0xde (4)
0x00d0|                                          00 00|              ..|                  h_spacing: 1 0xde-0xe2 (4)
0x00e0|00 01                                          |..              |
0x00e0|      00 00 00 01                              |  ....          |                  v_spacing: 1 0xe2-0xe6 (4)
      |                                               |                |                [2]{}: box 0xe6-0xff (25)
0x00e0|                  00 00 00 19                  |      ....      |                  size: 25 0xe6-0xea (4)
0x00e0|                              61 76 31 43      |          av1C  |                  type: "av1C" 0xea-0xee (4)
      |00 01 02 03 04 05 06 07 08 09 0a 0b 0c 0d 0e 0f|0123456789abcdef|                  descriptor{}: (av1_ccr) 0xee-0xff (17)
0x00e0|                                          81   |              . |                    marker: 1 0xee-0xee.1 (0.1)
0x00e0|                                          81   |              . |                    version: 1 0xee.1-0xef (0.7)
0x00e0|                                             00|               .|                    seq_profile: 0 0xef-0xef.3 (0.3)
0x00e0|                                             00|               .|                    seq_level_idx_0: 0 0xef.3-0xf0 (0.5)
0x00f0|0c                                             |.               |                    seq_tier_0: 0 0xf0-0xf0.1 (0.1)
0x00f0|0c                                             |.               |                    high_bitdepth: 0 0xf0.1-0xf0.2 (0.1)
0x00f0|0c                                             |.               |                    twelve_bit: 0 0xf0.2-0xf0.3 (0.1)
0x00f0|0c                                             |.               |                    monochrome: 0 0xf0.3-0xf0.4 (0.1)
0x00f0|0c                                             |.               |                    chroma_subsampling_x: 1 0xf0.4-0xf0.5 (0.1)
0x00f0|0c                                             |.               |                    chroma_subsampling_y: 1 0xf0.5-0xf0.6 (0.1)
0x00f0|0c                                             |.               |                    chroma_sample_position: 0 0xf0.6-0xf1 (0.2)
0x00f0|   00                                          | .              |                    reserved = 0: 0 0xf1-0xf1.3 (0.3)
0x00f0|   00                                          | .              |                    initial_presentation_delay_present: false 0xf1.3-0xf1.4 (0.1)
0x00f0|   00                                          | .              |                    reserved: 0 0xf1.4-0xf2 (0.4)
      |                                               |                |                    config_obus[0:1]: 0xf2-0xff (13)
      |00 01 02 03 04 05 06 07 08 09 0a 0b 0c 0d 0e 0f|0123456789abcdef|                      [0]{}: config_obu (av1_obu) 0xf2-0xff (13)
      |                                               |                |                        header{}: 0xf2-0xf3 (1)
0x00f0|      0a                                       |  .             |                          forbidden_bit: 0 0xf2-0xf2.1 (0.1)
0x00f0|      0a                                       |  .             |                          type: "sequence_header" (1) 0xf2.1-0xf2.5 (0.4)
0x00f0|      0a                                       |  .             |                          extension_flag: false 0xf2.5-0xf2.6 (0.1)
0x00f0|      0a                                       |  .             |                          has_size_field: true 0xf2.6-0xf2.7 (0.1)
0x00f0|      0a                                       |  .             |                          reserved_1bit: 0 0xf2.7-0xf3 (0.1)
0x00f0|         0b                                    |   .            |                        size: 11 0xf3-0xf4 (1)
0x00f0|            00                                 |    .           |                        seq_profile: "main" (0) 0xf4-0xf4.3 (0.3)
0x00f0|            00                                 |    .           |                        still_picture: 0 0xf4.3-0xf4.4 (0.1)
0x00f0|            00                                 |    .           |                        reduced_still_picture_header: 0 0xf4.4-0xf4.5 (0.1)
0x00f0|            00                                 |    .           |                        timing_info_present_flag: 0 0xf4.5-0xf4.6 (0.1)
0x00f0|            00                                 |    .           |                        initial_display_delay_present_flag: 0 0xf4.6-0xf4.7 (0.1)
0x00f0|            00 00                              |    ..          |                        operating_points_cnt_minus_1: 0 0xf4.7-0xf5.4 (0.5)
      |                                               |                |                        operating_points[0:1]: 0xf5.4-0xf7.5 (2.1)
      |                                               |                |                          [0]{}: operating_point 0xf5.4-0xf7.5 (2.1)
0x00f0|               00 00                           |     ..         |                            operating_point_idc: 0 0xf5.4-0xf7 (1.4)
0x00f0|                     03                        |       .        |                            seq_level_idx: 0 0xf7-0xf7.5 (0.5)
0x00f0|                     03 bc                     |       ..       |                        frame_width_bits_minus_1: 7 0xf7.5-0xf8.1 (0.4)
0x00f0|                        bc                     |        .       |                        frame_height_bits_minus_1: 7 0xf8.1-0xf8.5 (0.4)
0x00f0|                        bc f4                  |        ..      |                        max_frame_width_minus_1: 158 0xf8.5-0xf9.5 (1)
0x00f0|                           f4 f3               |         ..     |                        max_frame_height_minus_1: 158 0xf9.5-0xfa.5 (1)
      |                                               |                |                        frame_width: 159
      |                                               |                |                        frame_height: 159
0x00f0|                              f3               |          .     |                        frame_id_numbers_present_flag: 0 0xfa.5-0xfa.6 (0.1)
0x00f0|                              f3               |          .     |                        use_128x128_superblock: 1 0xfa.6-0xfa.7 (0.1)
0x00f0|                              f3               |          .     |                        enable_filter_intra: 1 0xfa.7-0xfb (0.1)
0x00f0|                                 ff            |           .    |                        enable_intra_edge_filter: 1 0xfb-0xfb.1 (0.1)
0x00f0|                                 ff            |           .    |                        enable_interintra_compound: 1 0xfb.1-0xfb.2 (0.1)
0x00f0|                                 ff            |           .    |                        enable_masked_compound: 1 0xfb.2-0xfb.3 (0.1)
0x00f0|                                 ff            |           .    |                        enable_warped_motion: 1 0xfb.3-0xfb.4 (0.1)
0x00f0|                                 ff            |           .    |                        enable_dual_filter: 1 0xfb.4-0xfb.5 (0.1)
0x00f0|                                 ff            |           .    |                        enable_order_hint: 1 0xfb.5-0xfb.6 (0.1)
0x00f0|                                 ff            |           .    |                        enable_jnt_comp: 1 0xfb.6-0xfb.7 (0.1)
0x00f0|                                 ff            |           .    |                        enable_ref_frame_mvs: 1 0xfb.7-0xfc (0.1)
0x00f0|                                    f3         |            .   |                        seq_choose_screen_content_tools: 1 0xfc-0xfc.1 (0.1)
0x00f0|                                    f3         |            .   |                        seq_choose_integer_mv: 1 0xfc.1-0xfc.2 (0.1)
0x00f0|                                    f3         |            .   |                        order_hint_bits_minus_1: 6 0xfc.2-0xfc.5 (0.3)
0x00f0|                                    f3         |            .   |                        enable_superres: 0 0xfc.5-0xfc.6 (0.1)
0x00f0|                                    f3         |            .   |                        enable_cdef: 1 0xfc.6-0xfc.7 (0.1)
0x00f0|                                    f3         |            .   |                        enable_restoration: 1 0xfc.7-0xfd (0.1)
      |                                               |                |                        color_config{}: 0xfd-0xfd.7 (0.7)
0x00f0|                                       10      |             .  |                          high_bitdepth: 0 0xfd-0xfd.1 (0.1)
      |                                               |                |                          bit_depth: 8
0x00f0|                                       10      |             .  |                          mono_chrome: 0 0xfd.1-0xfd.2 (0.1)
0x00f0|                                       10      |             .  |                          color_description_present_flag: 0 0xfd.2-0xfd.3 (0.1)
      |                                               |                |                          color_primaries: "unspecified" (2)
      |                                               |                |                          transfer_characteristics: "unspecified" (2)
      |                                               |                |                          matrix_coefficients: "unspecified" (2)
0x00f0|                                       10      |             .  |                          color_range: 1 0xfd.3-0xfd.4 (0.1)
      |                                               |                |                          subsampling_x: 1
      |                                               |                |                          subsampling_y: 1
0x00f0|                                       10      |             .  |                          chroma_sample_position: 0 0xfd.4-0xfd.6 (0.2)
0x00f0|                                       10      |             .  |                          separate_uv_delta_q: 0 0xfd.6-0xfd.7 (0.1)
0x00f0|                                       10      |             .  |                        film_grain_params_present: 0 0xfd.7-0xfe (0.1)
0x00f0|                                          80   |              . |                        data: raw bits 0xfe-0xff (1)
      |                                               |                |                [3]{}: box 0xff-0x10f (16)
0x00f0|                                             00|               .|                  size: 16 0xff-0x103 (4)
0x0100|00 00 10                                       |...             |
0x0100|         70 69 78 69                           |   pixi         |                  type: "pixi" (Pixel information) 0x103-0x107 (4)
0x0100|                     00 00 00 00 03 08 08 08   |       ........ |                  data: raw bits 0x107-0x10f (8)
      |                                               |                |            [1]{}: box 0x10f-0x126 (23)
0x0100|                                             00|               .|              size: 23 0x10f-0x113 (4)
0x0110|00 00 17                                       |...             |
0x0110|         69 70 6d 61                           |   ipma         |              type: "ipma" (ItemPropertyAssociation) 0x113-0x117 (4)
0x0110|                     00                        |       .        |              version: 0 0x117-0x118 (1)
0x0110|                        00 00 00               |        ...     |              flags: 0 0x118-0x11b (3)
0x0110|                                 00 00 00 01   |           .... |              entry_count: 1 0x11b-0x11f (4)
      |                                               |                |              entries[0:1]: 0x11f-0x126 (7)
      |                                               |                |                [0]{}: entry 0x11f-0x126 (7)
0x0110|                                             00|               .|                  item_id: 1 0x11f-0x121 (2)
0x0120|01                                             |.               |
0x0120|   04                                          | .              |                  association_count: 4 0x121-0x122 (1)
      |                                               |                |                  associations[0:4]: 0x122-0x126 (4)
      |                                               |                |                    [0]{}: association 0x122-0x123 (1)
0x0120|      01                                       |  .             |                      essential: false 0x122-0x122.1 (0.1)
0x0120|      01                                       |  .             |                      property_index: 1 0x122.1-0x123 (0.7)
      |                                               |                |                    [1]{}: association 0x123-0x124 (1)
0x0120|         02                                    |   .            |                      essential: false 0x123-0x123.1 (0.1)
0x0120|         02                                    |   .            |                      property_index: 2 0x123.1-0x124 (0.7)
      |                                               |                |                    [2]{}: association 0x124-0x125 (1)
0x0120|            83                                 |    .           |                      essential: true 0x124-0x124.1 (0.1)
0x0120|            83                                 |    .           |                      property_index: 3 0x124.1-0x125 (0.7)
      |                                               |                |                    [3]{}: association 0x125-0x126 (1)
0x0120|               84                              |     .          |                      essential: true 0x125-0x125.1 (0.1)
0x0120|               84                              |     .          |                      property_index: 4 0x125.1-0x126 (0.7)
      |                                               |                |    [2]{}: box 0x126-0x413 (749)
0x0120|                  00 00 02 ed                  |      ....      |      size: 749 0x126-0x12a (4)
0x0120|                              6d 6f 6f 76      |          moov  |      type: "moov" (Container for all the meta-data) 0x12a-0x12e (4)
      |                                               |                |      boxes[0:3]: 0x12e-0x413 (741)
      |                                               |                |        [0]{}: box 0x12e-0x19a (108)
0x0120|                                          00 00|              ..|          size: 108 0x12e-0x132 (4)
0x0130|00 6c                                          |.l              |
0x0130|      6d 76 68 64                              |  mvhd          |          type: "mvhd" (Movie header, overall declarations) 0x132-0x136 (4)
0x0130|                  00                           |      .         |          version: 0 0x136-0x137 (1)
0x0130|                     00 00 00                  |       ...      |          flags: 0 0x137-0x13a (3)
0x0130|                              da b2 5d 39      |          ..]9  |          creation_time: 3669122361 (2020-04-07T16:39:21Z) 0x13a-0x13e (4)
0x0130|                                          da b2|              ..|          modification_time: 3669122361 (2020-04-07T16:39:21Z) 0x13e-0x142 (4)
0x0140|5d 39                                          |]9              |
0x0140|      00 00 03 e8                              |  ....          |          time_scale: 1000 0x142-0x146 (4)
0x0140|                  00 00 01 f4                  |      ....      |          duration: 500 0x146-0x14a (4)
0x0140|                              00 01 00 00      |          ....  |          preferred_rate: 1 0x14a-0x14e (4)
0x0140|                                          01 00|              ..|          preferred_volume: 1 0x14e-0x150 (2)
0x0150|00 00 00 00 00 00 00 00 00 00                  |..........      |          reserved: "\x00\x00\x00\x00\x00\x00\x00\x00\x00\x00" 0x150-0x15a (10)
      |                                               |                |          matrix_structure{}: 0x15a-0x17e (36)
0x0150|                              00 01 00 00      |          ....  |            a: 1 0x15a-0x15e (4)
0x0150|                                          00 00|              ..|            b: 0 0x15e-0x162 (4)
0x0160|00 00                                          |..              |
0x0160|      00 00 00 00                              |  ....          |            u: 0 0x162-0x166 (4)
0x0160|                  00 00 00 00                  |      ....      |            c: 0 0x166-0x16a (4)
0x0160|                              00 01 00 00      |          ....  |            d: 1 0x16a-0x16e (4)
0x0160|                                          00 00|              ..|            v: 0 0x16e-0x172 (4)
0x0170|00 00                                          |..              |
0x0170|      00 00 00 00                              |  ....          |            x: 0 0x172-0x176 (4)
0x0170|                  00 00 00 00                  |      ....      |            y: 0 0x176-0x17a (4)
0x0170|                              40 00 00 00      |          @...  |            w: 1 0x17a-0x17e (4)
0x0170|                                          00 00|              ..|          preview_time: 0 0x17e-0x182 (4)
0x0180|00 00                                          |..              |
0x0180|      00 00 00 00                              |  ....          |          preview_duration: 0 0x182-0x186 (4)
0x0180|                  00 00 00 00                  |      ....      |          poster_time: 0 0x186-0x18a (4)
0x0180|                              00 00 00 00      |          ....  |          selection_time: 0 0x18a-0x18e (4)
0x0180|                                          00 00|              ..|          selection_duration: 0 0x18e-0x192 (4)
0x0190|00 00                                          |..              |
0x0190|      00 00 00 00                              |  ....          |          current_time: 0 0x192-0x196 (4)
0x0190|                  00 00 00 02                  |      ....      |          next_track_id: 2 0x196-0x19a (4)
      |                                               |                |        [1]{}: box 0x19a-0x1af (21)
0x0190|                              00 00 00 15      |          ....  |          size: 21 0x19a-0x19e (4)
0x0190|                                          69 6f|              io|          type: "iods" (Object Descriptor container box) 0x19e-0x1a2 (4)
0x01a0|64 73                                          |ds              |
0x01a0|      00 00 00 00                              |  ....          |          version: 0 0x1a2-0x1a6 (4)
      |00 01 02 03 04 05 06 07 08 09 0a 0b 0c 0d 0e 0f|0123456789abcdef|          descriptor{}: (mpeg_es) 0x1a6-0x1af (9)
0x01a0|                  10                           |      .         |            tag_id: "MP4_IOD_Tag" (16) 0x1a6-0x1a7 (1)
0x01a0|                     07                        |       .        |            length: 7 0x1a7-0x1a8 (1)
0x01a0|                        00 4f                  |        .O      |            od_id: 79 0x1a8-0x1aa (2)
0x01a0|                              ff               |          .     |            od_profile_level: 255 0x1aa-0x1ab (1)
0x01a0|                                 ff            |           .    |            scene_profile_level: 255 0x1ab-0x1ac (1)
0x01a0|                                    ff         |            .   |            audio_profile_level: 255 0x1ac-0x1ad (1)
0x01a0|                                       fe      |             .  |            video_profile_level: 254 0x1ad-0x1ae (1)
0x01a0|                                          ff   |              . |            graphics_profile_level: 255 0x1ae-0x1af (1)
      |                                               |                |            descriptors[0:0]: 0x1af-0x1af (0)
      |                                               |                |        [2]{}: box 0x1af-0x413 (612)
0x01a0|                                             00|               .|          size: 612 0x1af-0x1b3 (4)
0x01b0|00 02 64                                       |..d             |
0x01b0|         74 72 61 6b                           |   trak         |          type: "trak" (Container for an individual track or stream) 0x1b3-0x1b7 (4)
      |                                               |                |          boxes[0:3]: 0x1b7-0x413 (604)
      |                                               |                |            [0]{}: box 0x1b7-0x213 (92)
0x01b0|                     00 00 00 5c               |       ...\     |              size: 92 0x1b7-0x1bb (4)
0x01b0|                                 74 6b 68 64   |           tkhd |              type: "tkhd" (Track header, overall information about the track) 0x1bb-0x1bf (4)
0x01b0|                                             00|               .|              version: 0 0x1bf-0x1c0 (1)
      |                                               |                |              flags{}: 0x1c0-0x1c3 (3)
0x01c0|00 00 03                                       |...             |                unused: 0 0x1c0-0x1c2.4 (2.4)
0x01c0|      03                                       |  .             |                size_is_aspect_ratio: false 0x1c2.4-0x1c2.5 (0.1)
0x01c0|      03                                       |  .             |                in_preview: false 0x1c2.5-0x1c2.6 (0.1)
0x01c0|      03                                       |  .             |                in_movie: true 0x1c2.6-0x1c2.7 (0.1)
0x01c0|      03                                       |  .             |                enabled: true 0x1c2.7-0x1c3 (0.1)
0x01c0|         00 00 00 00                           |   ....         |              creation_time: 0 (1904-01-01T00:00:00Z) 0x1c3-0x1c7 (4)
0x01c0|                     da b2 5d 39               |       ..]9     |              modification_time: 3669122361 (2020-04-07T16:39:21Z) 0x1c7-0x1cb (4)
0x01c0|                                 00 00 00 01   |           .... |              track_id: 1 0x1cb-0x1cf (4)
0x01c0|                                             00|               .|              reserved1: 0 0x1cf-0x1d3 (4)
0x01d0|00 00 00                                       |...             |
0x01d0|         00 00 01 f4                           |   ....         |              duration: 500 0x1d3-0x1d7 (4)
0x01d0|                     00 00 00 00 00 00 00 00   |       ........ |              reserved2: raw bits 0x1d7-0x1df (8)
0x01d0|                                             00|               .|              layer: 0 0x1df-0x1e1 (2)
0x01e0|00                                             |.               |
0x01e0|   00 00                                       | ..             |              alternate_group: 0 0x1e1-0x1e3 (2)
0x01e0|         00 00                                 |   ..           |              volume: 0 0x1e3-0x1e5 (2)
0x01e0|               00 00                           |     ..         |              reserved3: 0 0x1e5-0x1e7 (2)
      |                                               |                |              matrix_structure{}: 0x1e7-0x20b (36)
0x01e0|                     00 01 00 00               |       ....     |                a: 1 0x1e7-0x1eb (4)
0x01e0|                                 00 00 00 00   |           .... |                b: 0 0x1eb-0x1ef (4)
0x01e0|                                             00|               .|                u: 0 0x1ef-0x1f3 (4)
0x01f0|00 00 00                                       |...             |
0x01f0|         00 00 00 00                           |   ....         |                c: 0 0x1f3-0x1f7 (4)
0x01f0|                     00 01 00 00               |       ....     |                d: 1 0x1f7-0x1fb (4)
0x01f0|                                 00 00 00 00   |           .... |                v: 0 0x1fb-0x1ff (4)
0x01f0|                                             00|               .|                x: 0 0x1ff-0x203 (4)
0x0200|00 00 00                                       |...             |
0x0200|         00 00 00 00                           |   ....         |                y: 0 0x203-0x207 (4)
0x0200|                     40 00 00 00               |       @...     |                w: 1 0x207-0x20b (4)
0x0200|                                 00 9f 00 00   |           .... |              track_width: 159 0x20b-0x20f (4)
0x0200|                                             00|               .|              track_height: 159 0x20f-0x213 (4)
0x0210|9f 00 00                                       |...             |
      |                                               |                |            [1]{}: box 0x213-0x237 (36)
0x0210|         00 00 00 24                           |   ...$         |              size: 36 0x213-0x217 (4)
0x0210|                     65 64 74 73               |       edts     |              type: "edts" (Edit list container) 0x217-0x21b (4)
      |                                               |                |              boxes[0:1]: 0x21b-0x237 (28)
      |                                               |                |                [0]{}: box 0x21b-0x237 (28)
0x0210|                                 00 00 00 1c   |           .... |                  size: 28 0x21b-0x21f (4)
0x0210|                                             65|               e|                  type: "elst" (An edit list) 0x21f-0x223 (4)
0x0220|6c 73 74                                       |lst             |
0x0220|         00                                    |   .            |                  version: 0 0x223-0x224 (1)
0x0220|            00 00 00                           |    ...         |                  flags: 0 0x224-0x227 (3)
0x0220|                     00 00 00 01               |       ....     |                  entry_count: 1 0x227-0x22b (4)
      |                                               |                |                  entries[0:1]: 0x22b-0x237 (12)
      |                                               |                |                    [0]{}: entry 0x22b-0x237 (12)
0x0220|                                 00 00 01 f4   |           .... |                      segment_duration: 500 0x22b-0x22f (4)
0x0220|                                             00|               .|                      media_time: 0 0x22f-0x233 (4)
0x0230|00 00 00                                       |...             |
0x0230|         00 01 00 00                           |   ....         |                      media_rate: 1 0x233-0x237 (4)
      |                                               |                |            [2]{}: box 0x237-0x413 (476)
0x0230|                     00 00 01 dc               |       ....     |              size: 476 0x237-0x23b (4)
0x0230|                                 6d 64 69 61   |           mdia |              type: "mdia" (Container for the media information in a track) 0x23b-0x23f (4)
      |                                               |                |              boxes[0:3]: 0x23f-0x413 (468)
      |                                               |                |                [0]{}: box 0x23f-0x25f (32)
0x0230|                                             00|               .|                  size: 32 0x23f-0x243 (4)
0x0240|00 00 20                                       |..              |
0x0240|         6d 64 68 64                           |   mdhd         |                  type: "mdhd" (Media header, overall information about the media) 0x243-0x247 (4)
0x0240|                     00                        |       .        |                  version: 0 0x247-0x248 (1)
0x0240|                        00 00 00               |        ...     |                  flags: 0 0x248-0x24b (3)
0x0240|                                 00 00 00 00   |           .... |                  creation_time: 0 (1904-01-01T00:00:00Z) 0x24b-0x24f (4)
0x0240|                                             da|               .|                  modification_time: 3669122361 (2020-04-07T16:39:21Z) 0x24f-0x253 (4)
0x0250|b2 5d 39                                       |.]9             |
0x0250|         00 00 28 00                           |   ..(.         |                  time_scale: 10240 0x253-0x257 (4)
0x0250|                     00 00 14 00               |       ....     |                  duration: 5120 0x257-0x25b (4)
0x0250|                                 55 c4         |           U.   |                  language: "und" 0x25b-0x25d (2)
0x0250|                                       00 00   |             .. |                  quality: 0 0x25d-0x25f (2)
      |                                               |                |                [1]{}: box 0x25f-0x28a (43)
0x0250|                                             00|               .|                  size: 43 0x25f-0x263 (4)
0x0260|00 00 2b                                       |..+             |
0x0260|         68 64 6c 72                           |   hdlr         |                  type: "hdlr" (Handler, declares the media (handler) type) 0x263-0x267 (4)
0x0260|                     00                        |       .        |                  version: 0 0x267-0x268 (1)
0x0260|                        00 00 00               |        ...     |                  flags: 0 0x268-0x26b (3)
0x0260|                                 00 00 00 00   |           .... |                  component_type: "" 0x26b-0x26f (4)
0x0260|                                             70|               p|                  component_subtype: "pict" (Picture) 0x26f-0x273 (4)
0x0270|69 63 74                                       |ict             |
0x0270|         00 00 00 00                           |   ....         |                  component_manufacturer: "" 0x273-0x277 (4)
0x0270|                     00 00 00 00               |       ....     |                  component_flags: 0 0x277-0x27b (4)
0x0270|                                 00 00 00 00   |           .... |                  component_flags_mask: 0 0x27b-0x27f (4)
0x0270|                                             47|               G|                  component_name: "GPAC avifs" 0x27f-0x28a (11)
0x0280|50 41 43 20 61 76 69 66 73 00                  |PAC avifs.      |
      |                                               |                |                [2]{}: box 0x28a-0x413 (393)
0x0280|                              00 00 01 89      |          ....  |                  size: 393 0x28a-0x28e (4)
0x0280|                                          6d 69|              mi|                  type: "minf" (Media information container) 0x28e-0x292 (4)
0x0290|6e 66                                          |nf              |
      |                                               |                |                  boxes[0:3]: 0x292-0x413 (385)
      |                                               |                |                    [0]{}: box 0x292-0x2a6 (20)
0x0290|      00 00 00 14                              |  ....          |                      size: 20 0x292-0x296 (4)
0x0290|                  76 6d 68 64                  |      vmhd      |                      type: "vmhd" (Video media header, overall information (video track only)) 0x296-0x29a (4)
0x0290|                              00               |          .     |                      version: 0 0x29a-0x29b (1)
0x0290|                                 00 00 01      |           ...  |                      flags: 1 0x29b-0x29e (3)
0x0290|                                          00 00|              ..|                      graphicsmode: 0 0x29e-0x2a0 (2)
      |                                               |                |                      opcolor[0:3]: 0x2a0-0x2a6 (6)
0x02a0|00 00                                          |..              |                        [0]: 0 value 0x2a0-0x2a2 (2)
0x02a0|      00 00                                    |  ..            |                        [1]: 0 value 0x2a2-0x2a4 (2)
0x02a0|            00 00                              |    ..          |                        [2]: 0 value 0x2a4-0x2a6 (2)
      |                                               |                |                    [1]{}: box 0x2a6-0x2ca (36)
0x02a0|                  00 00 00 24                  |      ...$      |                      size: 36 0x2a6-0x2aa (4)
0x02a0|                              64 69 6e 66      |          dinf  |                      type: "dinf" (Data information box, container) 0x2aa-0x2ae (4)
      |                                               |                |                      boxes[0:1]: 0x2ae-0x2ca (28)
      |                                               |                |                        [0]{}: box 0x2ae-0x2ca (28)
0x02a0|                                          00 00|              ..|                          size: 28 0x2ae-0x2b2 (4)
0x02b0|00 1c                                          |..              |
0x02b0|      64 72 65 66                              |  dref          |                          type: "dref" (Data reference box, declares source(s) of media data in track) 0x2b2-0x2b6 (4)
0x02b0|                  00                           |      .         |                          version: 0 0x2b6-0x2b7 (1)
0x02b0|                     00 00 00                  |       ...      |                          flags: 0 0x2b7-0x2ba (3)
0x02b0|                              00 00 00 01      |          ....  |                          entry_count: 1 0x2ba-0x2be (4)
      |                                               |                |                          boxes[0:1]: 0x2be-0x2ca (12)
      |                                               |                |                            [0]{}: box 0x2be-0x2ca (12)
0x02b0|                                          00 00|              ..|                              size: 12 0x2be-0x2c2 (4)
0x02c0|00 0c                                          |..              |
0x02c0|      75 72 6c 20                              |  url           |                              type: "url" 0x2c2-0x2c6 (4)
0x02c0|                  00                           |      .         |                              version: 0 0x2c6-0x2c7 (1)
0x02c0|                     00 00 01                  |       ...      |                              flags: 1 0x2c7-0x2ca (3)
      |                                               |                |                              data: "" 0x2ca-0x2ca (0)
      |                                               |                |                    [2]{}: box 0x2ca-0x413 (329)
0x02c0|                              00 00 01 49      |          ...I  |                      size: 329 0x2ca-0x2ce (4)
0x02c0|                                          73 74|              st|                      type: "stbl" (Sample table box, container for the time/space map) 0x2ce-0x2d2 (4)
0x02d0|62 6c                                          |bl              |
      |                                               |                |                      boxes[0:6]: 0x2d2-0x413 (321)
      |                                               |                |                        [0]{}: box 0x2d2-0x38f (189)
0x02d0|      00 00 00 bd                              |  ....          |                          size: 189 0x2d2-0x2d6 (4)
0x02d0|                  73 74 73 64                  |      stsd      |                          type: "stsd" (Sample descriptions (codec types, initialization etc.)) 0x2d6-0x2da (4)
0x02d0|                              00               |          .     |                          version: 0 0x2da-0x2db (1)
0x02d0|                                 00 00 00      |           ...  |                          flags: 0 0x2db-0x2de (3)
0x02d0|                                          00 00|              ..|                          entry_count: 1 0x2de-0x2e2 (4)
0x02e0|00 01                                          |..              |
      |                                               |                |                          boxes[0:1]: 0x2e2-0x38f (173)
      |                                               |                |                            [0]{}: box 0x2e2-0x38f (173)
0x02e0|      00 00 00 ad                              |  ....          |                              size: 173 0x2e2-0x2e6 (4)
0x02e0|                  61 76 30 31                  |      av01      |                              type: "av01" (AV1 video) 0x2e6-0x2ea (4)
0x02e0|                              00 00 00 00 00 00|          ......|                              reserved0: raw bits 0x2ea-0x2f0 (6)
0x02f0|00 01                                          |..              |                              data_reference_index: 1 0x2f0-0x2f2 (2)
0x02f0|      00 00 00 00 00 00 00 00 00 00 00 00 00 00|  ..............|                              data: raw bits 0x2f2-0x38f (157)
0x0300|00 00 00 9f 00 9f 00 48 00 00 00 48 00 00 00 00|.......H...H....|
*     |until 0x38e.7 (157)                            |                |
      |                                               |                |                        [1]{}: box 0x38f-0x3a7 (24)
0x0380|                                             00|               .|                          size: 24 0x38f-0x393 (4)
0x0390|00 00 18                                       |...             |
0x0390|         73 74 74 73                           |   stts         |                          type: "stts" (Sample time-to-sample) 0x393-0x397 (4)
0x0390|                     00                        |       .        |                          version: 0 0x397-0x398 (1)
0x0390|                        00 00 00               |        ...     |                          flags: 0 0x398-0x39b (3)
0x0390|                                 00 00 00 01   |           .... |                          entry_count: 1 0x39b-0x39f (4)
      |                                               |                |                          entries[0:1]: 0x39f-0x3a7 (8)
      |                                               |                |                            [0]{}: entry 0x39f-0x3a7 (8)
0x0390|                                             00|               .|                              count: 5 0x39f-0x3a3 (4)
0x03a0|00 00 05                                       |...             |
0x03a0|         00 00 04 00                           |   ....         |                              delta: 1024 0x3a3-0x3a7 (4)
      |                                               |                |                        [2]{}: box 0x3a7-0x3bb (20)
0x03a0|                     00 00 00 14               |       ....     |                          size: 20 0x3a7-0x3ab (4)
0x03a0|                                 73 74 73 73   |           stss |                          type: "stss" (Sync sample table (random access points)) 0x3ab-0x3af (4)
0x03a0|                                             00|               .|                          version: 0 0x3af-0x3b0 (1)
0x03b0|00 00 00                                       |...             |                          flags: 0 0x3b0-0x3b3 (3)
0x03b0|         00 00 00 01                           |   ....         |                          entry_count: 1 0x3b3-0x3b7 (4)
      |                                               |                |                          entries[0:1]: 0x3b7-0x3bb (4)
0x03b0|                     00 00 00 01               |       ....     |                            [0]: 1 sample_number 0x3b7-0x3bb (4)
      |                                               |                |                        [3]{}: box 0x3bb-0x3d7 (28)
0x03b0|                                 00 00 00 1c   |           .... |                          size: 28 0x3bb-0x3bf (4)
0x03b0|                                             73|               s|                          type: "stsc" (Sample-to-chunk, partial data-offset information) 0x3bf-0x3c3 (4)
0x03c0|74 73 63                                       |tsc             |
0x03c0|         00                                    |   .            |                          version: 0 0x3c3-0x3c4 (1)
0x03c0|            00 00 00                           |    ...         |                          flags: 0 0x3c4-0x3c7 (3)
0x03c0|                     00 00 00 01               |       ....     |                          entry_count: 1 0x3c7-0x3cb (4)
      |                                               |                |                          entries[0:1]: 0x3cb-0x3d7 (12)
      |                                               |                |                            [0]{}: entry 0x3cb-0x3d7 (12)
0x03c0|                                 00 00 00 01   |           .... |                              first_chunk: 1 0x3cb-0x3cf (4)
0x03c0|                                             00|               .|                              samples_per_chunk: 5 0x3cf-0x3d3 (4)
0x03d0|00 00 05                                       |...             |
0x03d0|         00 00 00 01                           |   ....         |                              sample_description_id: 1 0x3d3-0x3d7 (4)
      |                                               |                |                        [4]{}: box 0x3d7-0x3ff (40)
0x03d0|                     00 00 00 28               |       ...(     |                          size: 40 0x3d7-0x3db (4)
0x03d0|                                 73 74 73 7a   |           stsz |                          type: "stsz" (Sample sizes (framing)) 0x3db-0x3df (4)
0x03d0|                                             00|               .|                          version: 0 0x3df-0x3e0 (1)
0x03e0|00 00 00                                       |...             |                          flags: 0 0x3e0-0x3e3 (3)
0x03e0|         00 00 00 00                           |   ....         |                          sample_size: 0 0x3e3-0x3e7 (4)
0x03e0|                     00 00 00 05               |       ....     |                          entry_count: 5 0x3e7-0x3eb (4)
      |                                               |                |                          entries[0:5]: 0x3eb-0x3ff (20)
0x03e0|                                 00 00 0d 3a   |           ...: |                            [0]: 3386 size 0x3eb-0x3ef (4)
0x03e0|                                             00|               .|                            [1]: 2892 size 0x3ef-0x3f3 (4)
0x03f0|00 0b 4c                                       |..L             |
0x03f0|         00 00 0a d9                           |   ....         |                            [2]: 2777 size 0x3f3-0x3f7 (4)
0x03f0|                     00 00 08 33               |       ...3     |                            [3]: 2099 size 0x3f7-0x3fb (4)
0x03f0|                                 00 00 00 10   |           .... |                            [4]: 16 size 0x3fb-0x3ff (4)
      |                                               |                |                        [5]{}: box 0x3ff-0x413 (20)
0x03f0|                                             00|               .|                          size: 20 0x3ff-0x403 (4)
0x0400|00 00 14                                       |...             |
0x0400|         73 74 63 6f                           |   stco         |                          type: "stco" (Chunk offset, partial data-offset information) 0x403-0x407 (4)
0x0400|                     00                        |       .        |                          version: 0 0x407-0x408 (1)
0x0400|                        00 00 00               |        ...     |                          flags: 0 0x408-0x40b (3)
0x0400|                                 00 00 00 01   |           .... |                          entry_count: 1 0x40b-0x40f (4)
      |                                               |                |                          entries[0:1]: 0x40f-0x413 (4)
0x0400|                                             00|               .|                            [0]: 4437 chunk_offset 0x40f-0x413 (4)
0x0410|00 11 55                                       |..U             |
      |                                               |                |    [3]{}: box 0x413-0x3cf7 (14564)
0x0410|         00 00 38 e4                           |   ..8.         |      size: 14564 0x413-0x417 (4)
0x0410|                     6d 64 61 74               |       mdat     |      type: "mdat" (Media data container) 0x417-0x41b (4)
0x0410|                                 0a 0b 00 00 00|           .....|      data: raw bits 0x41b-0x3cf7 (14556)
0x0420|03 bc f4 f3 ff f3 10 80 32 aa 1a 10 01 80 00 00|........2.......|
*     |until 0x3cf6.7 (14556)                         |                |
      |                                               |                |    [4]{}: box 0x3cf7-0x3d3f (72)
0x3cf0|                     00 00 00 48               |       ...H     |      size: 72 0x3cf7-0x3cfb (4)
0x3cf0|                                 66 72 65 65   |           free |      type: "free" (Free space) 0x3cfb-0x3cff (4)
0x3cf0|                                             49|               I|      data: raw bits 0x3cff-0x3d3f (64)
0x3d00|73 6f 4d 65 64 69 61 20 46 69 6c 65 20 50 72 6f|soMedia File Pro|
*     |until 0x3d3e.7 (end) (64)                      |                |
      |                                               |                |  items[0:1]: 0x41b-0x3d3f (14628)
      |                                               |                |    [0]{}: item 0x41b-0x3d3f (14628)
      |00 01 02 03 04 05 06 07 08 09 0a 0b 0c 0d 0e 0f|0123456789abcdef|      data[0:2]: (av1_frame) 0x41b-0x1155 (3386)
      |00 01 02 03 04 05 06 07 08 09 0a 0b 0c 0d 0e 0f|0123456789abcdef|        [0]{}: obu (av1_obu) 0x41b-0x428 (13)
      |                                               |                |          header{}: 0x41b-0x41c (1)
0x0410|                                 0a            |           .    |            forbidden_bit: 0 0x41b-0x41b.1 (0.1)
0x0410|                                 0a            |           .    |            type: "sequence_header" (1) 0x41b.1-0x41b.5 (0.4)
0x0410|                                 0a            |           .    |            extension_flag: false 0x41b.5-0x41b.6 (0.1)
0x0410|                                 0a            |           .    |            has_size_field: true 0x41b.6-0x41b.7 (0.1)
0x0410|                                 0a            |           .    |            reserved_1bit: 0 0x41b.7-0x41c (0.1)
0x0410|                                    0b         |            .   |          size: 11 0x41c-0x41d (1)
0x0410|                                       00      |             .  |          seq_profile: "main" (0) 0x41d-0x41d.3 (0.3)
0x0410|                                       00      |             .  |          still_picture: 0 0x41d.3-0x41d.4 (0.1)
0x0410|                                       00      |             .  |          reduced_still_picture_header: 0 0x41d.4-0x41d.5 (0.1)
0x0410|                                       00      |             .  |          timing_info_present_flag: 0 0x41d.5-0x41d.6 (0.1)
0x0410|                                       00      |             .  |          initial_display_delay_present_flag: 0 0x41d.6-0x41d.7 (0.1)
0x0410|                                       00 00   |             .. |          operating_points_cnt_minus_1: 0 0x41d.7-0x41e.4 (0.5)
      |                                               |                |          operating_points[0:1]: 0x41e.4-0x420.5 (2.1)
      |                                               |                |            [0]{}: operating_point 0x41e.4-0x420.5 (2.1)
0x0410|                                          00 00|              ..|              operating_point_idc: 0 0x41e.4-0x420 (1.4)
0x0420|03                                             |.               |              seq_level_idx: 0 0x420-0x420.5 (0.5)
0x0420|03 bc                                          |..              |          frame_width_bits_minus_1: 7 0x420.5-0x421.1 (0.4)
0x0420|   bc                                          | .              |          frame_height_bits_minus_1: 7 0x421.1-0x421.5 (0.4)
0x0420|   bc f4                                       | ..             |          max_frame_width_minus_1: 158 0x421.5-0x422.5 (1)
0x0420|      f4 f3                                    |  ..            |          max_frame_height_minus_1: 158 0x422.5-0x423.5 (1)
      |                                               |                |          frame_width: 159
      |                                               |                |          frame_height: 159
0x0420|         f3                                    |   .            |          frame_id_numbers_present_flag: 0 0x423.5-0x423.6 (0.1)
0x0420|         f3                                    |   .            |          use_128x128_superblock: 1 0x423.6-0x423.7 (0.1)
0x0420|         f3                                    |   .            |          enable_filter_intra: 1 0x423.7-0x424 (0.1)
0x0420|            ff                                 |    .           |          enable_intra_edge_filter: 1 0x424-0x424.1 (0.1)
0x0420|            ff                                 |    .           |          enable_interintra_compound: 1 0x424.1-0x424.2 (0.1)
0x0420|            ff                                 |    .           |          enable_masked_compound: 1 0x424.2-0x424.3 (0.1)
0x0420|            ff                                 |    .           |          enable_warped_motion: 1 0x424.3-0x424.4 (0.1)
0x0420|            ff                                 |    .           |          enable_dual_filter: 1 0x424.4-0x424.5 (0.1)
0x0420|            ff                                 |    .           |          enable_order_hint: 1 0x424.5-0x424.6 (0.1)
0x0420|            ff                                 |    .           |          enable_jnt_comp: 1 0x424.6-0x424.7 (0.1)
0x0420|            ff                                 |    .           |          enable_ref_frame_mvs: 1 0x424.7-0x425 (0.1)
0x0420|               f3                              |     .          |          seq_choose_screen_content_tools: 1 0x425-0x425.1 (0.1)
0x0420|               f3                              |     .          |          seq_choose_integer_mv: 1 0x425.1-0x425.2 (0.1)
0x0420|               f3                              |     .          |          order_hint_bits_minus_1: 6 0x425.2-0x425.5 (0.3)
0x0420|               f3                              |     .          |          enable_superres: 0 0x425.5-0x425.6 (0.1)
0x0420|               f3                              |     .          |          enable_cdef: 1 0x425.6-0x425.7 (0.1)
0x0420|               f3                              |     .          |          enable_restoration: 1 0x425.7-0x426 (0.1)
      |                                               |                |          color_config{}: 0x426-0x426.7 (0.7)
0x0420|                  10                           |      .         |            high_bitdepth: 0 0x426-0x426.1 (0.1)
      |                                               |                |            bit_depth: 8
0x0420|                  10                           |      .         |            mono_chrome: 0 0x426.1-0x426.2 (0.1)
0x0420|                  10                           |      .         |            color_description_present_flag: 0 0x426.2-0x426.3 (0.1)
      |                                               |                |            color_primaries: "unspecified" (2)
      |                                               |                |            transfer_characteristics: "unspecified" (2)
      |                                               |                |            matrix_coefficients: "unspecified" (2)
0x0420|                  10                           |      .         |            color_range: 1 0x426.3-0x426.4 (0.1)
      |                                               |                |            subsampling_x: 1
      |                                               |                |            subsampling_y: 1
0x0420|                  10                           |      .         |            chroma_sample_position: 0 0x426.4-0x426.6 (0.2)
0x0420|                  10                           |      .         |            separate_uv_delta_q: 0 0x426.6-0x426.7 (0.1)
0x0420|                  10                           |      .         |          film_grain_params_present: 0 0x426.7-0x427 (0.1)
0x0420|                     80                        |       .        |          data: raw bits 0x427-0x428 (1)
      |00 01 02 03 04 05 06 07 08 09 0a 0b 0c 0d 0e 0f|0123456789abcdef|        [1]{}: obu (av1_obu) 0x428-0x1155 (3373)
      |                                               |                |          header{}: 0x428-0x429 (1)
0x0420|                        32                     |        2       |            forbidden_bit: 0 0x428-0x428.1 (0.1)
0x0420|                        32                     |        2       |            type: "frame" (6) 0x428.1-0x428.5 (0.4)
0x0420|                        32                     |        2       |            extension_flag: false 0x428.5-0x428.6 (0.1)
0x0420|                        32                     |        2       |            has_size_field: true 0x428.6-0x428.7 (0.1)
0x0420|                        32                     |        2       |            reserved_1bit: 0 0x428.7-0x429 (0.1)
0x0420|                           aa 1a               |         ..     |          size: 3370 0x429-0x42b (2)
0x0420|                                 10 01 80 00 00|           .....|          data: raw bits 0x42b-0x1155 (3370)
0x0430|f8 a1 6d 35 ac 38 11 2a 62 14 76 d4 ff ff ff f9|..m5.8.*b.v.....|
*     |until 0x1154.7 (3370)                          |                |
      |                                               |                |      id: 1
      |                                               |                |      type: "av01"
      |                                               |                |      name: "Image"
      |                                               |                |      properties[0:4]: 0x3d3f-0x3d3f (0)
      |                                               |                |        [0]{}: property 0x3d3f-0x3d3f (0)
      |                                               |                |          index: 1
      |                                               |                |          essential: false
      |                                               |                |          type: "ispe"
      |                                               |                |        [1]{}: property 0x3d3f-0x3d3f (0)
      |                                               |                |          index: 2
      |                                               |                |          essential: false
      |                                               |                |          type: "pasp"
      |                                               |                |        [2]{}: property 0x3d3f-0x3d3f (0)
      |                                               |                |          index: 3
      |                                               |                |          essential: true
      |                                               |                |          type: "av1C"
      |                                               |                |        [3]{}: property 0x3d3f-0x3d3f (0)
      |                                               |                |          index: 4
      |                                               |                |          essential: true
      |                                               |                |          type: "pixi"
      |                                               |                |  tracks[0:1]: 0x1155-0x3cf7 (11170)
      |                                               |                |    [0]{}: track 0x1155-0x3cf7 (11170)
      |                                               |                |      samples[0:5]: 0x1155-0x3cf7 (11170)
      |00 01 02 03 04 05 06 07 08 09 0a 0b 0c 0d 0e 0f|0123456789abcdef|        [0][0:2]: sample (av1_frame) 0x1155-0x1e8f (3386)
      |00 01 02 03 04 05 06 07 08 09 0a 0b 0c 0d 0e 0f|0123456789abcdef|          [0]{}: obu (av1_obu) 0x1155-0x1162 (13)
      |                                               |                |            header{}: 0x1155-0x1156 (1)
0x1150|               0a                              |     .          |              forbidden_bit: 0 0x1155-0x1155.1 (0.1)
0x1150|               0a                              |     .          |              type: "sequence_header" (1) 0x1155.1-0x1155.5 (0.4)
0x1150|               0a                              |     .          |              extension_flag: false 0x1155.5-0x1155.6 (0.1)
0x1150|               0a                              |     .          |              has_size_field: true 0x1155.6-0x1155.7 (0.1)
0x1150|               0a                              |     .          |              reserved_1bit: 0 0x1155.7-0x1156 (0.1)
0x1150|                  0b                           |      .         |            size: 11 0x1156-0x1157 (1)
0x1150|                     00                        |       .        |            seq_profile: "main" (0) 0x1157-0x1157.3 (0.3)
0x1150|                     00                        |       .        |            still_picture: 0 0x1157.3-0x1157.4 (0.1)
0x1150|                     00                        |       .        |            reduced_still_picture_header: 0 0x1157.4-0x1157.5 (0.1)
0x1150|                     00                        |       .        |            timing_info_present_flag: 0 0x1157.5-0x1157.6 (0.1)
0x1150|                     00                        |       .        |            initial_display_delay_present_flag: 0 0x1157.6-0x1157.7 (0.1)
0x1150|                     00 00                     |       ..       |            operating_points_cnt_minus_1: 0 0x1157.7-0x1158.4 (0.5)
      |                                               |                |            operating_points[0:1]: 0x1158.4-0x115a.5 (2.1)
      |                                               |                |              [0]{}: operating_point 0x1158.4-0x115a.5 (2.1)
0x1150|                        00 00                  |        ..      |                operating_point_idc: 0 0x1158.4-0x115a (1.4)
0x1150|                              03               |          .     |                seq_level_idx: 0 0x115a-0x115a.5 (0.5)
0x1150|                              03 bc            |          ..    |            frame_width_bits_minus_1: 7 0x115a.5-0x115b.1 (0.4)
0x1150|                                 bc            |           .    |            frame_height_bits_minus_1: 7 0x115b.1-0x115b.5 (0.4)
0x1150|                                 bc f4         |           ..   |            max_frame_width_minus_1: 158 0x115b.5-0x115c.5 (1)
0x1150|                                    f4 f3      |            ..  |            max_frame_height_minus_1: 158 0x115c.5-0x115d.5 (1)
      |                                               |                |            frame_width: 159
      |                                               |                |            frame_height: 159
0x1150|                                       f3      |             .  |            frame_id_numbers_present_flag: 0 0x115d.5-0x115d.6 (0.1)
0x1150|                                       f3      |             .  |            use_128x128_superblock: 1 0x115d.6-0x115d.7 (0.1)
0x1150|                                       f3      |             .  |            enable_filter_intra: 1 0x115d.7-0x115e (0.1)
0x1150|                                          ff   |              . |            enable_intra_edge_filter: 1 0x115e-0x115e.1 (0.1)
0x1150|                                          ff   |              . |            enable_interintra_compound: 1 0x115e.1-0x115e.2 (0.1)
0x1150|                                          ff   |              . |            enable_masked_compound: 1 0x115e.2-0x115e.3 (0.1)
0x1150|                                          ff   |              . |            enable_warped_motion: 1 0x115e.3-0x115e.4 (0.1)
0x1150|                                          ff   |              . |            enable_dual_filter: 1 0x115e.4-0x115e.5 (0.1)
0x1150|                                          ff   |              . |            enable_order_hint: 1 0x115e.5-0x115e.6 (0.1)
0x1150|                                          ff   |              . |            enable_jnt_comp: 1 0x115e.6-0x115e.7 (0.1)
0x1150|                                          ff   |              . |            enable_ref_frame_mvs: 1 0x115e.7-0x115f (0.1)
0x1150|                                             f3|               .|            seq_choose_screen_content_tools: 1 0x115f-0x115f.1 (0.1)
0x1150|                                             f3|               .|            seq_choose_integer_mv: 1 0x115f.1-0x115f.2 (0.1)
0x1150|                                             f3|               .|            order_hint_bits_minus_1: 6 0x115f.2-0x115f.5 (0.3)
0x1150|                                             f3|               .|            enable_superres: 0 0x115f.5-0x115f.6 (0.1)
0x1150|                                             f3|               .|            enable_cdef: 1 0x115f.6-0x115f.7 (0.1)
0x1150|                                             f3|               .|            enable_restoration: 1 0x115f.7-0x1160 (0.1)
      |                                               |                |            color_config{}: 0x1160-0x1160.7 (0.7)
0x1160|10                                             |.               |              high_bitdepth: 0 0x1160-0x1160.1 (0.1)
      |                                               |                |              bit_depth: 8
0x1160|10                                             |.               |              mono_chrome: 0 0x1160.1-0x1160.2 (0.1)
0x1160|10                                             |.               |              color_description_present_flag: 0 0x1160.2-0x1160.3 (0.1)
      |                                               |                |              color_primaries: "unspecified" (2)
      |                                               |                |              transfer_characteristics: "unspecified" (2)
      |                                               |                |              matrix_coefficients: "unspecified" (2)
0x1160|10                                             |.               |              color_range: 1 0x1160.3-0x1160.4 (0.1)
      |                                               |                |              subsampling_x: 1
      |                                               |                |              subsampling_y: 1
0x1160|10                                             |.               |              chroma_sample_position: 0 0x1160.4-0x1160.6 (0.2)
0x1160|10                                             |.               |              separate_uv_delta_q: 0 0x1160.6-0x1160.7 (0.1)
0x1160|10                                             |.               |            film_grain_params_present: 0 0x1160.7-0x1161 (0.1)
0x1160|   80                                          | .              |            data: raw bits 0x1161-0x1162 (1)
      |00 01 02 03 04 05 06 07 08 09 0a 0b 0c 0d 0e 0f|0123456789abcdef|          [1]{}: obu (av1_obu) 0x1162-0x1e8f (3373)
      |                                               |                |            header{}: 0x1162-0x1163 (1)
0x1160|      32                                       |  2             |              forbidden_bit: 0 0x1162-0x1162.1 (0.1)
0x1160|      32                                       |  2             |              type: "frame" (6) 0x1162.1-0x1162.5 (0.4)
0x1160|      32                                       |  2             |              extension_flag: false 0x1162.5-0x1162.6 (0.1)
0x1160|      32                                       |  2             |              has_size_field: true 0x1162.6-0x1162.7 (0.1)
0x1160|      32                                       |  2             |              reserved_1bit: 0 0x1162.7-0x1163 (0.1)
0x1160|         aa 1a                                 |   ..           |            size: 3370 0x1163-0x1165 (2)
0x1160|               10 01 80 00 00 f8 a1 6d 35 ac 38|     .......m5.8|            data: raw bits 0x1165-0x1e8f (3370)
0x1170|11 2a 62 14 76 d4 ff ff ff f9 50 ef 17 71 44 92|.*b.v.....P..qD.|
*     |until 0x1e8e.7 (3370)                          |                |
      |00 01 02 03 04 05 06 07 08 09 0a 0b 0c 0d 0e 0f|0123456789abcdef|        [1][0:1]: sample (av1_frame) 0x1e8f-0x29db (2892)
      |00 01 02 03 04 05 06 07 08 09 0a 0b 0c 0d 0e 0f|0123456789abcdef|          [0]{}: obu (av1_obu) 0x1e8f-0x29db (2892)
      |                                               |                |            header{}: 0x1e8f-0x1e90 (1)
0x1e80|                                             32|               2|              forbidden_bit: 0 0x1e8f-0x1e8f.1 (0.1)
0x1e80|                                             32|               2|              type: "frame" (6) 0x1e8f.1-0x1e8f.5 (0.4)
0x1e80|                                             32|               2|              extension_flag: false 0x1e8f.5-0x1e8f.6 (0.1)
0x1e80|                                             32|               2|              has_size_field: true 0x1e8f.6-0x1e8f.7 (0.1)
0x1e80|                                             32|               2|              reserved_1bit: 0 0x1e8f.7-0x1e90 (0.1)
0x1e90|c9 16                                          |..              |            size: 2889 0x1e90-0x1e92 (2)
0x1e90|      30 02 01 00 a7 2e 47 80 00 40 00 f9 6f 32|  0.....G..@..o2|            data: raw bits 0x1e92-0x29db (2889)
0x1ea0|9a d2 30 7a a8 57 76 06 29 85 f6 c2 f1 26 97 78|..0z.Wv.)....&.x|
*     |until 0x29da.7 (2889)                          |                |
      |00 01 02 03 04 05 06 07 08 09 0a 0b 0c 0d 0e 0f|0123456789abcdef|        [2][0:1]: sample (av1_frame) 0x29db-0x34b4 (2777)
      |00 01 02 03 04 05 06 07 08 09 0a 0b 0c 0d 0e 0f|0123456789abcdef|          [0]{}: obu (av1_obu) 0x29db-0x34b4 (2777)
      |                                               |                |            header{}: 0x29db-0x29dc (1)
0x29d0|                                 32            |           2    |              forbidden_bit: 0 0x29db-0x29db.1 (0.1)
0x29d0|                                 32            |           2    |              type: "frame" (6) 0x29db.1-0x29db.5 (0.4)
0x29d0|                                 32            |           2    |              extension_flag: false 0x29db.5-0x29db.6 (0.1)
0x29d0|                                 32            |           2    |              has_size_field: true 0x29db.6-0x29db.7 (0.1)
0x29d0|                                 32            |           2    |              reserved_1bit: 0 0x29db.7-0x29dc (0.1)
0x29d0|                                    d6 15      |            ..  |            size: 2774 0x29dc-0x29de (2)
0x29d0|                                          30 04|              0.|            data: raw bits 0x29de-0x34b4 (2774)
0x29e0|00 88 17 2e 7e 00 02 80 00 f8 25 17 8c a1 3b 7a|....~.....%...;z|
*     |until 0x34b3.7 (2774)                          |                |
      |00 01 02 03 04 05 06 07 08 09 0a 0b 0c 0d 0e 0f|0123456789abcdef|        [3][0:1]: sample (av1_frame) 0x34b4-0x3ce7 (2099)
      |00 01 02 03 04 05 06 07 08 09 0a 0b 0c 0d 0e 0f|0123456789abcdef|          [0]{}: obu (av1_obu) 0x34b4-0x3ce7 (2099)
      |                                               |                |            header{}: 0x34b4-0x34b5 (1)
0x34b0|            32                                 |    2           |              forbidden_bit: 0 0x34b4-0x34b4.1 (0.1)
0x34b0|            32                                 |    2           |              type: "frame" (6) 0x34b4.1-0x34b4.5 (0.4)
0x34b0|            32                                 |    2           |              extension_flag: false 0x34b4.5-0x34b4.6 (0.1)
0x34b0|            32                                 |    2           |              has_size_field: true 0x34b4.6-0x34b4.7 (0.1)
0x34b0|            32                                 |    2           |              reserved_1bit: 0 0x34b4.7-0x34b5 (0.1)
0x34b0|               b0 10                           |     ..         |            size: 2096 0x34b5-0x34b7 (2)
0x34b0|                     30 06 00 45 07 2e 7e 00 02|       0..E..~..|            data: raw bits 0x34b7-0x3ce7 (2096)
0x34c0|80 00 f8 15 08 13 0a 5d e7 3b 0f bb d3 cc 15 05|.......].;......|
*     |until 0x3ce6.7 (2096)                          |                |
      |00 01 02 03 04 05 06 07 08 09 0a 0b 0c 0d 0e 0f|0123456789abcdef|        [4][0:1]: sample (av1_frame) 0x3ce7-0x3cf7 (16)
      |00 01 02 03 04 05 06 07 08 09 0a 0b 0c 0d 0e 0f|0123456789abcdef|          [0]{}: obu (av1_obu) 0x3ce7-0x3cf7 (16)
      |                                               |                |            header{}: 0x3ce7-0x3ce8 (1)
0x3ce0|                     32                        |       2        |              forbidden_bit: 0 0x3ce7-0x3ce7.1 (0.1)
0x3ce0|                     32                        |       2        |              type: "frame" (6) 0x3ce7.1-0x3ce7.5 (0.4)
0x3ce0|                     32                        |       2        |              extension_flag: false 0x3ce7.5-0x3ce7.6 (0.1)
0x3ce0|                     32                        |       2        |              has_size_field: true 0x3ce7.6-0x3ce7.7 (0.1)
0x3ce0|                     32                        |       2        |              reserved_1bit: 0 0x3ce7.7-0x3ce8 (0.1)
0x3ce0|                        0e                     |        .       |            size: 14 0x3ce8-0x3ce9 (1)
0x3ce0|                           30 08 01 00 a7 2e 47|         0.....G|            data: raw bits 0x3ce9-0x3cf7 (14)
0x3cf0|80 00 40 00 d8 dd 62                           |..@...b         |
      |                                               |                |      id: 1
      |                                               |                |      data_format: "av01" (AV1 video)
