$ fq -d mp4 -o force=true dv udta_xtra_empty
    |00 01 02 03 04 05 06 07 08 09 0a 0b 0c 0d 0e 0f|0123456789abcdef|.{}: udta_xtra_empty (mp4) 0x0-0x45 (69)
    |                                               |                |  boxes[0:1]: 0x0-0x45 (69)
    |                                               |                |    [0]{}: box 0x0-0x45 (69)
0x00|00 00 00 45                                    |...E            |      size: 69 0x0-0x4 (4)
0x00|            75 64 74 61                        |    udta        |      type: "udta" (User-data) 0x4-0x8 (4)
    |                                               |                |      boxes[0:2]: 0x8-0x45 (61)
    |                                               |                |        [0]{}: box 0x8-0x3d (53)
0x00|                        00 00 00 35            |        ...5    |          size: 53 0x8-0xc (4)
0x00|                                    6d 65 74 61|            meta|          type: "meta" (Metadata container) 0xc-0x10 (4)
0x10|00 00 00 00                                    |....            |          maybe_flags: 0 0x10-0x14 (4)
    |                                               |                |          boxes[0:2]: 0x14-0x3d (41)
    |                                               |                |            [0]{}: box 0x14-0x35 (33)
0x10|            00 00 00 21                        |    ...!        |              size: 33 0x14-0x18 (4)
0x10|                        68 64 6c 72            |        hdlr    |              type: "hdlr" (Handler, declares the media (handler) type) 0x18-0x1c (4)
0x10|                                    00         |            .   |              version: 0 0x1c-0x1d (1)
0x10|                                       00 00 00|             ...|              flags: 0 0x1d-0x20 (3)
0x20|00 00 00 00                                    |....            |              component_type: "" 0x20-0x24 (4)
0x20|            6d 64 69 72                        |    mdir        |              component_subtype: "mdir" (Metadata) 0x24-0x28 (4)
0x20|                        00 00 00 00            |        ....    |              component_manufacturer: "" 0x28-0x2c (4)
0x20|                                    00 00 00 00|            ....|              component_flags: 0 0x2c-0x30 (4)
0x30|00 00 00 00                                    |....            |              component_flags_mask: 0 0x30-0x34 (4)
0x30|            00                                 |    .           |              component_name: "" 0x34-0x35 (1)
    |                                               |                |            [1]{}: box 0x35-0x3d (8)
0x30|               00 00 00 08                     |     ....       |              size: 8 0x35-0x39 (4)
0x30|                           69 6c 73 74         |         ilst   |              type: "ilst" 0x39-0x3d (4)
    |                                               |                |              boxes[0:0]: 0x3d-0x3d (0)
    |                                               |                |        [1]{}: box 0x3d-0x45 (8)
0x30|                                       00 00 00|             ...|          size: 8 0x3d-0x41 (4)
0x40|08                                             |.               |
0x40|   58 74 72 61|                                | Xtra|          |          type: "Xtra" 0x41-0x45 (4)
    |                                               |                |          value: "" 0x45-0x45 (0)
