# 1x1 white AVIF image with AV1 codec
# https://github.com/AOMediaCodec/libavif/blob/main/tests/data/white_1x1.avif
$ fq -d heif dv white_1x1.avif
     |00 01 02 03 04 05 06 07 08 09 0a 0b 0c 0d 0e 0f|0123456789abcdef|.{}: white_1x1.avif (heif) 0x0-0x131 (305)
     |                                               |                |  boxes[0:3]: 0x0-0x131 (305)
     |                                               |                |    [0]{}: box 0x0-0x20 (32)
0x000|00 00 00 20                                    |...             |      size: 32 0x0-0x4 (4)
0x000|            66 74 79 70                        |    ftyp        |      type: "ftyp" (File type and compatibility) 0x4-0x8 (4)
0x000|                        61 76 69 66            |        avif    |      major_brand: "avif" 0x8-0xc (4)
0x000|                                    00 00 00 00|            ....|      minor_version: 0 0xc-0x10 (4)
     |                                               |                |      brands[0:4]: 0x10-0x20 (16)
0x010|61 76 69 66                                    |avif            |        [0]: "avif" brand (AV1 Image File Format (.AVIF)) 0x10-0x14 (4)
0x010|            6d 69 66 31                        |    mif1        |        [1]: "mif1" brand (High Efficiency Image Format still image (.HEIF)) 0x14-0x18 (4)
0x010|                        6d 69 61 66            |        miaf    |        [2]: "miaf" brand 0x18-0x1c (4)
0x010|                                    4d 41 31 41|            MA1A|        [3]: "MA1A" brand 0x1c-0x20 (4)
     |                                               |                |    [1]{}: box 0x20-0x112 (242)
0x020|00 00 00 f2                                    |....            |      size: 242 0x20-0x24 (4)
0x020|            6d 65 74 61                        |    meta        |      type: "meta" (Metadata container) 0x24-0x28 (4)
0x020|                        00 00 00 00            |        ....    |      maybe_flags: 0 0x28-0x2c (4)
     |                                               |                |      boxes[0:5]: 0x2c-0x112 (230)
     |                                               |                |        [0]{}: box 0x2c-0x54 (40)
0x020|                                    00 00 00 28|            ...(|          size: 40 0x2c-0x30 (4)
0x030|68 64 6c 72                                    |hdlr            |          type: "hdlr" (Handler, declares the media (handler) type) 0x30-0x34 (4)
0x030|            00                                 |    .           |          version: 0 0x34-0x35 (1)
0x030|               00 00 00                        |     ...        |          flags: 0 0x35-0x38 (3)
0x030|                        00 00 00 00            |        ....    |          component_type: "" 0x38-0x3c (4)
0x030|                                    70 69 63 74|            pict|          component_subtype: "pict" (Picture) 0x3c-0x40 (4)
0x040|00 00 00 00                                    |....            |          component_manufacturer: "" 0x40-0x44 (4)
0x040|            00 00 00 00                        |    ....        |          component_flags: 0 0x44-0x48 (4)
0x040|                        00 00 00 00            |        ....    |          component_flags_mask: 0 0x48-0x4c (4)
0x040|                                    6c 69 62 61|            liba|          component_name: "libavif" 0x4c-0x54 (8)
0x050|76 69 66 00                                    |vif.            |
     |                                               |                |        [1]{}: box 0x54-0x62 (14)
0x050|            00 00 00 0e                        |    ....        |          size: 14 0x54-0x58 (4)
0x050|                        70 69 74 6d            |        pitm    |          type: "pitm" (Primary item reference) 0x58-0x5c (4)
0x050|                                    00         |            .   |          version: 0 0x5c-0x5d (1)
0x050|                                       00 00 00|             ...|          flags: 0 0x5d-0x60 (3)
0x060|00 01                                          |..              |          item_id: 1 0x60-0x62 (2)
     |                                               |                |        [2]{}: box 0x62-0x80 (30)
0x060|      00 00 00 1e                              |  ....          |          size: 30 0x62-0x66 (4)
0x060|                  69 6c 6f 63                  |      iloc      |          type: "iloc" (Item location) 0x66-0x6a (4)
0x060|                              00               |          .     |          version: 0 0x6a-0x6b (1)
0x060|                                 00 00 00      |           ...  |          flags: 0 0x6b-0x6e (3)
0x060|                                          44   |              D |          offset_size: 4 0x6e-0x6e.4 (0.4)
0x060|                                          44   |              D |          length_size: 4 0x6e.4-0x6f (0.4)
0x060|                                             00|               .|          base_offset_size: 0 0x6f-0x6f.4 (0.4)
0x060|                                             00|               .|          reserved: 0 0x6f.4-0x70 (0.4)
0x070|00 01                                          |..              |          item_count: 1 0x70-0x72 (2)
     |                                               |                |          items[0:1]: 0x72-0x80 (14)
     |                                               |                |            [0]{}: item 0x72-0x80 (14)
0x070|      00 01                                    |  ..            |              id: 1 0x72-0x74 (2)
0x070|            00 00                              |    ..          |              data_reference_index: 0 0x74-0x76 (2)
     |                                               |                |              base_offset: 0 0x76-0x76 (0)
0x070|                  00 01                        |      ..        |              extent_count: 1 0x76-0x78 (2)
     |                                               |                |              extends[0:1]: 0x78-0x80 (8)
     |                                               |                |                [0]{}: extent 0x78-0x80 (8)
0x070|                        00 00 01 1a            |        ....    |                  offset: 282 0x78-0x7c (4)
0x070|                                    00 00 00 17|            ....|                  length: 23 0x7c-0x80 (4)
     |                                               |                |        [3]{}: box 0x80-0xa8 (40)
0x080|00 00 00 28                                    |...(            |          size: 40 0x80-0x84 (4)
0x080|            69 69 6e 66                        |    iinf        |          type: "iinf" (Item information) 0x84-0x88 (4)
0x080|                        00                     |        .       |          version: 0 0x88-0x89 (1)
0x080|                           00 00 00            |         ...    |          flags: 0 0x89-0x8c (3)
0x080|                                    00 01      |            ..  |          entry_count: 1 0x8c-0x8e (2)
     |                                               |                |          boxes[0:1]: 0x8e-0xa8 (26)
     |                                               |                |            [0]{}: box 0x8e-0xa8 (26)
0x080|                                          00 00|              ..|              size: 26 0x8e-0x92 (4)
0x090|00 1a                                          |..              |
0x090|      69 6e 66 65                              |  infe          |              type: "infe" (Item information entry) 0x92-0x96 (4)
0x090|                  02                           |      .         |              version: 2 0x96-0x97 (1)
0x090|                     00 00 00                  |       ...      |              flags: 0 0x97-0x9a (3)
0x090|                              00 01            |          ..    |              item_id: 1 0x9a-0x9c (2)
0x090|                                    00 00      |            ..  |              item_protection_index: 0 0x9c-0x9e (2)
0x090|                                          61 76|              av|              item_type: "av01" 0x9e-0xa2 (4)
0x0a0|30 31                                          |01              |
0x0a0|      43 6f 6c 6f 72 00                        |  Color.        |              item_name: "Color" 0xa2-0xa8 (6)
     |                                               |                |        [4]{}: box 0xa8-0x112 (106)
0x0a0|                        00 00 00 6a            |        ...j    |          size: 106 0xa8-0xac (4)
0x0a0|                                    69 70 72 70|            iprp|          type: "iprp" (Item Properties Box) 0xac-0xb0 (4)
     |                                               |                |          boxes[0:2]: 0xb0-0x112 (98)
     |                                               |                |            [0]{}: box 0xb0-0xfb (75)
0x0b0|00 00 00 4b                                    |...K            |              size: 75 0xb0-0xb4 (4)
0x0b0|            69 70 63 6f                        |    ipco        |              type: "ipco" (ItemPropertyContainerBox) 0xb4-0xb8 (4)
     |                                               |                |              boxes[0:4]: 0xb8-0xfb (67)
     |                                               |                |                [0]{}: box 0xb8-0xcc (20)
0x0b0|                        00 00 00 14            |        ....    |                  size: 20 0xb8-0xbc (4)
0x0b0|                                    69 73 70 65|            ispe|                  type: "ispe" (Image spatial extents) 0xbc-0xc0 (4)
0x0c0|00                                             |.               |                  version: 0 0xc0-0xc1 (1)
0x0c0|   00 00 00                                    | ...            |                  flags: 0 0xc1-0xc4 (3)
0x0c0|            00 00 00 01                        |    ....        |                  image_width: 1 0xc4-0xc8 (4)
0x0c0|                        00 00 00 01            |        ....    |                  image_height: 1 0xc8-0xcc (4)
     |                                               |                |                [1]{}: box 0xcc-0xdc (16)
0x0c0|                                    00 00 00 10|            ....|                  size: 16 0xcc-0xd0 (4)
0x0d0|70 69 78 69                                    |pixi            |                  type: "pixi" (Pixel information) 0xd0-0xd4 (4)
0x0d0|            00 00 00 00 03 08 08 08            |    ........    |                  data: raw bits 0xd4-0xdc (8)
     |                                               |                |                [2]{}: box 0xdc-0xe8 (12)
0x0d0|                                    00 00 00 0c|            ....|                  size: 12 0xdc-0xe0 (4)
0x0e0|61 76 31 43                                    |av1C            |                  type: "av1C" 0xe0-0xe4 (4)
     |00 01 02 03 04 05 06 07 08 09 0a 0b 0c 0d 0e 0f|0123456789abcdef|                  descriptor{}: (av1_ccr) 0xe4-0xe8 (4)
0x0e0|            81                                 |    .           |                    marker: 1 0xe4-0xe4.1 (0.1)
0x0e0|            81                                 |    .           |                    version: 1 0xe4.1-0xe5 (0.7)
0x0e0|               20                              |                |                    seq_profile: 1 0xe5-0xe5.3 (0.3)
0x0e0|               20                              |                |                    seq_level_idx_0: 0 0xe5.3-0xe6 (0.5)
0x0e0|                  00                           |      .         |                    seq_tier_0: 0 0xe6-0xe6.1 (0.1)
0x0e0|                  00                           |      .         |                    high_bitdepth: 0 0xe6.1-0xe6.2 (0.1)
0x0e0|                  00                           |      .         |                    twelve_bit: 0 0xe6.2-0xe6.3 (0.1)
0x0e0|                  00                           |      .         |                    monochrome: 0 0xe6.3-0xe6.4 (0.1)
0x0e0|                  00                           |      .         |                    chroma_subsampling_x: 0 0xe6.4-0xe6.5 (0.1)
0x0e0|                  00                           |      .         |                    chroma_subsampling_y: 0 0xe6.5-0xe6.6 (0.1)
0x0e0|                  00                           |      .         |                    chroma_sample_position: 0 0xe6.6-0xe7 (0.2)
0x0e0|                     00                        |       .        |                    reserved = 0: 0 0xe7-0xe7.3 (0.3)
0x0e0|                     00                        |       .        |                    initial_presentation_delay_present: false 0xe7.3-0xe7.4 (0.1)
0x0e0|                     00                        |       .        |                    reserved: 0 0xe7.4-0xe8 (0.4)
     |                                               |                |                    config_obus[0:0]: 0xe8-0xe8 (0)
     |                                               |                |                [3]{}: box 0xe8-0xfb (19)
0x0e0|                        00 00 00 13            |        ....    |                  size: 19 0xe8-0xec (4)
0x0e0|                                    63 6f 6c 72|            colr|                  type: "colr" (Specifies the colourspace of the image) 0xec-0xf0 (4)
0x0f0|6e 63 6c 78                                    |nclx            |                  parameter_type: "nclx" 0xf0-0xf4 (4)
0x0f0|            00 01                              |    ..          |                  primaries_index: "bt709" (1) (ITU-R BT1361 / IEC 61966-2-4 / SMPTE RP 177 Annex B) 0xf4-0xf6 (2)
0x0f0|                  00 0d                        |      ..        |                  transfer_function_index: "iec61966_2_1" (13) (IEC 61966-2-1 (sRGB or sYCC)) 0xf6-0xf8 (2)
0x0f0|                        00 06                  |        ..      |                  matrix_index: "smpte170m" (6) (ITU-R BT601-6 525 / ITU-R BT1358 525 / ITU-R BT1700 NTSC) 0xf8-0xfa (2)
0x0f0|                              80               |          .     |                  color_range: 128 0xfa-0xfb (1)
     |                                               |                |            [1]{}: box 0xfb-0x112 (23)
0x0f0|                                 00 00 00 17   |           .... |              size: 23 0xfb-0xff (4)
0x0f0|                                             69|               i|              type: "ipma" (ItemPropertyAssociation) 0xff-0x103 (4)
0x100|70 6d 61                                       |pma             |
0x100|         00                                    |   .            |              version: 0 0x103-0x104 (1)
0x100|            00 00 00                           |    ...         |              flags: 0 0x104-0x107 (3)
0x100|                     00 00 00 01               |       ....     |              entry_count: 1 0x107-0x10b (4)
     |                                               |                |              entries[0:1]: 0x10b-0x112 (7)
     |                                               |                |                [0]{}: entry 0x10b-0x112 (7)
0x100|                                 00 01         |           ..   |                  item_id: 1 0x10b-0x10d (2)
0x100|                                       04      |             .  |                  association_count: 4 0x10d-0x10e (1)
     |                                               |                |                  associations[0:4]: 0x10e-0x112 (4)
     |                                               |                |                    [0]{}: association 0x10e-0x10f (1)
0x100|                                          01   |              . |                      essential: false 0x10e-0x10e.1 (0.1)
0x100|                                          01   |              . |                      property_index: 1 0x10e.1-0x10f (0.7)
     |                                               |                |                    [1]{}: association 0x10f-0x110 (1)
0x100|                                             02|               .|                      essential: false 0x10f-0x10f.1 (0.1)
0x100|                                             02|               .|                      property_index: 2 0x10f.1-0x110 (0.7)
     |                                               |                |                    [2]{}: association 0x110-0x111 (1)
0x110|83                                             |.               |                      essential: true 0x110-0x110.1 (0.1)
0x110|83                                             |.               |                      property_index: 3 0x110.1-0x111 (0.7)
     |                                               |                |                    [3]{}: association 0x111-0x112 (1)
0x110|   04                                          | .              |                      essential: false 0x111-0x111.1 (0.1)
0x110|   04                                          | .              |                      property_index: 4 0x111.1-0x112 (0.7)
     |                                               |                |    [2]{}: box 0x112-0x131 (31)
0x110|      00 00 00 1f                              |  ....          |      size: 31 0x112-0x116 (4)
0x110|                  6d 64 61 74                  |      mdat      |      type: "mdat" (Media data container) 0x116-0x11a (4)
0x110|                              12 00 0a 07 38 00|          ....8.|      data: raw bits 0x11a-0x131 (23)
0x120|06 10 10 d0 69 32 0a 1f f0 3f ff ff c4 00 00 af|....i2...?......|
0x130|70|                                            |p|              |
     |                                               |                |  items[0:1]: 0x11a-0x131 (23)
     |                                               |                |    [0]{}: item 0x11a-0x131 (23)
     |00 01 02 03 04 05 06 07 08 09 0a 0b 0c 0d 0e 0f|0123456789abcdef|      data[0:3]: (av1_frame) 0x11a-0x131 (23)
     |00 01 02 03 04 05 06 07 08 09 0a 0b 0c 0d 0e 0f|0123456789abcdef|        [0]{}: obu (av1_obu) 0x11a-0x11c (2)
     |                                               |                |          header{}: 0x11a-0x11b (1)
0x110|                              12               |          .     |            forbidden_bit: 0 0x11a-0x11a.1 (0.1)
0x110|                              12               |          .     |            type: "temporal_delimiter" (2) 0x11a.1-0x11a.5 (0.4)
0x110|                              12               |          .     |            extension_flag: false 0x11a.5-0x11a.6 (0.1)
0x110|                              12               |          .     |            has_size_field: true 0x11a.6-0x11a.7 (0.1)
0x110|                              12               |          .     |            reserved_1bit: 0 0x11a.7-0x11b (0.1)
0x110|                                 00            |           .    |          size: 0 0x11b-0x11c (1)
     |                                               |                |          data: raw bits 0x11c-0x11c (0)
     |00 01 02 03 04 05 06 07 08 09 0a 0b 0c 0d 0e 0f|0123456789abcdef|        [1]{}: obu (av1_obu) 0x11c-0x125 (9)
     |                                               |                |          header{}: 0x11c-0x11d (1)
0x110|                                    0a         |            .   |            forbidden_bit: 0 0x11c-0x11c.1 (0.1)
0x110|                                    0a         |            .   |            type: "sequence_header" (1) 0x11c.1-0x11c.5 (0.4)
0x110|                                    0a         |            .   |            extension_flag: false 0x11c.5-0x11c.6 (0.1)
0x110|                                    0a         |            .   |            has_size_field: true 0x11c.6-0x11c.7 (0.1)
0x110|                                    0a         |            .   |            reserved_1bit: 0 0x11c.7-0x11d (0.1)
0x110|                                       07      |             .  |          size: 7 0x11d-0x11e (1)
0x110|                                          38   |              8 |          seq_profile: "high" (1) 0x11e-0x11e.3 (0.3)
0x110|                                          38   |              8 |          still_picture: 1 0x11e.3-0x11e.4 (0.1)
0x110|                                          38   |              8 |          reduced_still_picture_header: 1 0x11e.4-0x11e.5 (0.1)
0x110|                                          38 00|              8.|          seq_level_idx0: 0 0x11e.5-0x11f.2 (0.5)
0x110|                                             00|               .|          frame_width_bits_minus_1: 0 0x11f.2-0x11f.6 (0.4)
0x110|                                             00|               .|          frame_height_bits_minus_1: 0 0x11f.6-0x120.2 (0.4)
0x120|06                                             |.               |
0x120|06                                             |.               |          max_frame_width_minus_1: 0 0x120.2-0x120.3 (0.1)
0x120|06                                             |.               |          max_frame_height_minus_1: 0 0x120.3-0x120.4 (0.1)
     |                                               |                |          frame_width: 1
     |                                               |                |          frame_height: 1
0x120|06                                             |.               |          use_128x128_superblock: 0 0x120.4-0x120.5 (0.1)
0x120|06                                             |.               |          enable_filter_intra: 1 0x120.5-0x120.6 (0.1)
0x120|06                                             |.               |          enable_intra_edge_filter: 1 0x120.6-0x120.7 (0.1)
0x120|06                                             |.               |          enable_superres: 0 0x120.7-0x121 (0.1)
0x120|   10                                          | .              |          enable_cdef: 0 0x121-0x121.1 (0.1)
0x120|   10                                          | .              |          enable_restoration: 0 0x121.1-0x121.2 (0.1)
     |                                               |                |          color_config{}: 0x121.2-0x124.6 (3.4)
0x120|   10                                          | .              |            high_bitdepth: 0 0x121.2-0x121.3 (0.1)
     |                                               |                |            bit_depth: 8
     |                                               |                |            mono_chrome: 0
0x120|   10                                          | .              |            color_description_present_flag: 1 0x121.3-0x121.4 (0.1)
0x120|   10 10                                       | ..             |            color_primaries: "bt_709" (1) 0x121.4-0x122.4 (1)
0x120|      10 d0                                    |  ..            |            transfer_characteristics: "srgb" (13) 0x122.4-0x123.4 (1)
0x120|         d0 69                                 |   .i           |            matrix_coefficients: "bt_601" (6) 0x123.4-0x124.4 (1)
0x120|            69                                 |    i           |            color_range: 1 0x124.4-0x124.5 (0.1)
     |                                               |                |            subsampling_x: 0
     |                                               |                |            subsampling_y: 0
0x120|            69                                 |    i           |            separate_uv_delta_q: 0 0x124.5-0x124.6 (0.1)
0x120|            69                                 |    i           |          film_grain_params_present: 0 0x124.6-0x124.7 (0.1)
0x120|            69                                 |    i           |          data: raw bits 0x124.7-0x125 (0.1)
     |00 01 02 03 04 05 06 07 08 09 0a 0b 0c 0d 0e 0f|0123456789abcdef|        [2]{}: obu (av1_obu) 0x125-0x131 (12)
     |                                               |                |          header{}: 0x125-0x126 (1)
0x120|               32                              |     2          |            forbidden_bit: 0 0x125-0x125.1 (0.1)
0x120|               32                              |     2          |            type: "frame" (6) 0x125.1-0x125.5 (0.4)
0x120|               32                              |     2          |            extension_flag: false 0x125.5-0x125.6 (0.1)
0x120|               32                              |     2          |            has_size_field: true 0x125.6-0x125.7 (0.1)
0x120|               32                              |     2          |            reserved_1bit: 0 0x125.7-0x126 (0.1)
0x120|                  0a                           |      .         |          size: 10 0x126-0x127 (1)
0x120|                     1f f0 3f ff ff c4 00 00 af|       ..?......|          data: raw bits 0x127-0x131 (10)
0x130|70|                                            |p|              |
     |                                               |                |      id: 1
     |                                               |                |      type: "av01"
     |                                               |                |      name: "Color"
     |                                               |                |      properties[0:4]: 0x131-0x131 (0)
     |                                               |                |        [0]{}: property 0x131-0x131 (0)
     |                                               |                |          index: 1
     |                                               |                |          essential: false
     |                                               |                |          type: "ispe"
     |                                               |                |        [1]{}: property 0x131-0x131 (0)
     |                                               |                |          index: 2
     |                                               |                |          essential: false
     |                                               |                |          type: "pixi"
     |                                               |                |        [2]{}: property 0x131-0x131 (0)
     |                                               |                |          index: 3
     |                                               |                |          essential: true
     |                                               |                |          type: "av1C"
     |                                               |                |        [3]{}: property 0x131-0x131 (0)
     |                                               |                |          index: 4
     |                                               |                |          essential: false
     |                                               |                |          type: "colr"
