$ fq -d elf dv a_dynamic
      |00 01 02 03 04 05 06 07 08 09 0a 0b 0c 0d 0e 0f|0123456789abcdef|.{}: a_dynamic (elf) 0x0-0x2b40 (11072)
      |                                               |                |  header{}: 0x0-0x40 (64)
      |                                               |                |    ident{}: 0x0-0x10 (16)
0x0000|7f 45 4c 46                                    |.ELF            |      magic: raw bits (valid) 0x0-0x4 (4)
0x0000|            02                                 |    .           |      class: 64 (2) 0x4-0x5 (1)
0x0000|               01                              |     .          |      data: "little_endian" (1) 0x5-0x6 (1)
0x0000|                  01                           |      .         |      version: 1 0x6-0x7 (1)
0x0000|                     00                        |       .        |      os_abi: "sysv" (0) 0x7-0x8 (1)
0x0000|                        00                     |        .       |      abi_version: 0 0x8-0x9 (1)
0x0000|                           00 00 00 00 00 00 00|         .......|      pad: raw bits (all zero) 0x9-0x10 (7)
0x0010|03 00                                          |..              |    type: "dyn" (0x3) 0x10-0x12 (2)
0x0010|      b7 00                                    |  ..            |    machine: "arm64" (0xb7) (ARM 64-bits (ARMv8/Aarch64)) 0x12-0x14 (2)
0x0010|            01 00 00 00                        |    ....        |    version: 1 0x14-0x18 (4)
0x0010|                        70 06 00 00 00 00 00 00|        p.......|    entry: 1648 0x18-0x20 (8)
0x0020|40 00 00 00 00 00 00 00                        |@.......        |    phoff: 64 0x20-0x28 (8)
0x0020|                        40 23 00 00 00 00 00 00|        @#......|    shoff: 9024 0x28-0x30 (8)
0x0030|00 00 00 00                                    |....            |    flags: 0 0x30-0x34 (4)
0x0030|            40 00                              |    @.          |    ehsize: 64 0x34-0x36 (2)
0x0030|                  38 00                        |      8.        |    phentsize: 56 0x36-0x38 (2)
0x0030|                        08 00                  |        ..      |    phnum: 8 0x38-0x3a (2)
0x0030|                              40 00            |          @.    |    shentsize: 64 0x3a-0x3c (2)
0x0030|                                    20 00      |             .  |    shnum: 32 0x3c-0x3e (2)
0x0030|                                          1f 00|              ..|    shstrndx: 31 0x3e-0x40 (2)
      |                                               |                |  program_headers[0:8]: 0x0-0x1008 (4104)
      |                                               |                |    [0]{}: program_header 0x40-0x200 (448)
0x0040|06 00 00 00                                    |....            |      type: "phdr" (6) (Program header location and size) 0x40-0x44 (4)
0x0040|06 00 00 00 04 00 00 00 40 00 00 00 00 00 00 00|........@.......|      data: raw bits 0x40-0x200 (448)
*     |until 0x1ff.7 (448)                            |                |
      |                                               |                |      flags{}: 0x44-0x48 (4)
0x0040|            04                                 |    .           |        unused0: 0 0x44-0x44.5 (0.5)
0x0040|            04                                 |    .           |        r: true 0x44.5-0x44.6 (0.1)
0x0040|            04                                 |    .           |        w: false 0x44.6-0x44.7 (0.1)
0x0040|            04                                 |    .           |        x: false 0x44.7-0x45 (0.1)
0x0040|               00 00 00                        |     ...        |        unused1: 0 0x45-0x48 (3)
0x0040|                        40 00 00 00 00 00 00 00|        @.......|      offset: 0x40 0x48-0x50 (8)
0x0050|40 00 00 00 00 00 00 00                        |@.......        |      vaddr: 0x40 0x50-0x58 (8)
0x0050|                        40 00 00 00 00 00 00 00|        @.......|      paddr: 0x40 0x58-0x60 (8)
0x0060|c0 01 00 00 00 00 00 00                        |........        |      filesz: 448 0x60-0x68 (8)
0x0060|                        c0 01 00 00 00 00 00 00|        ........|      memsz: 448 0x68-0x70 (8)
0x0070|08 00 00 00 00 00 00 00                        |........        |      align: 8 0x70-0x78 (8)
      |                                               |                |    [1]{}: program_header 0x78-0x21a (418)
0x0070|                        03 00 00 00            |        ....    |      type: "interp" (3) (Interpreter to invoke) 0x78-0x7c (4)
      |                                               |                |      flags{}: 0x7c-0x80 (4)
0x0070|                                    04         |            .   |        unused0: 0 0x7c-0x7c.5 (0.5)
0x0070|                                    04         |            .   |        r: true 0x7c.5-0x7c.6 (0.1)
0x0070|                                    04         |            .   |        w: false 0x7c.6-0x7c.7 (0.1)
0x0070|                                    04         |            .   |        x: false 0x7c.7-0x7d (0.1)
0x0070|                                       00 00 00|             ...|        unused1: 0 0x7d-0x80 (3)
0x0080|00 02 00 00 00 00 00 00                        |........        |      offset: 0x200 0x80-0x88 (8)
0x0080|                        00 02 00 00 00 00 00 00|        ........|      vaddr: 0x200 0x88-0x90 (8)
0x0090|00 02 00 00 00 00 00 00                        |........        |      paddr: 0x200 0x90-0x98 (8)
0x0090|                        1a 00 00 00 00 00 00 00|        ........|      filesz: 26 0x98-0xa0 (8)
0x00a0|1a 00 00 00 00 00 00 00                        |........        |      memsz: 26 0xa0-0xa8 (8)
0x00a0|                        01 00 00 00 00 00 00 00|        ........|      align: 1 0xa8-0xb0 (8)
0x0200|2f 6c 69 62 2f 6c 64 2d 6d 75 73 6c 2d 61 61 72|/lib/ld-musl-aar|      data: raw bits 0x200-0x21a (26)
0x0210|63 68 36 34 2e 73 6f 2e 31 00                  |ch64.so.1.      |
      |                                               |                |    [2]{}: program_header 0x0-0x914 (2324)
0x0000|7f 45 4c 46 02 01 01 00 00 00 00 00 00 00 00 00|.ELF............|      data: raw bits 0x0-0x914 (2324)
*     |until 0x913.7 (2324)                           |                |
0x00b0|01 00 00 00                                    |....            |      type: "load" (1) (Loadable segment) 0xb0-0xb4 (4)
      |                                               |                |      flags{}: 0xb4-0xb8 (4)
0x00b0|            05                                 |    .           |        unused0: 0 0xb4-0xb4.5 (0.5)
0x00b0|            05                                 |    .           |        r: true 0xb4.5-0xb4.6 (0.1)
0x00b0|            05                                 |    .           |        w: false 0xb4.6-0xb4.7 (0.1)
0x00b0|            05                                 |    .           |        x: true 0xb4.7-0xb5 (0.1)
0x00b0|               00 00 00                        |     ...        |        unused1: 0 0xb5-0xb8 (3)
0x00b0|                        00 00 00 00 00 00 00 00|        ........|      offset: 0x0 0xb8-0xc0 (8)
0x00c0|00 00 00 00 00 00 00 00                        |........        |      vaddr: 0x0 0xc0-0xc8 (8)
0x00c0|                        00 00 00 00 00 00 00 00|        ........|      paddr: 0x0 0xc8-0xd0 (8)
0x00d0|14 09 00 00 00 00 00 00                        |........        |      filesz: 2324 0xd0-0xd8 (8)
0x00d0|                        14 09 00 00 00 00 00 00|        ........|      memsz: 2324 0xd8-0xe0 (8)
0x00e0|00 00 01 00 00 00 00 00                        |........        |      align: 65536 0xe0-0xe8 (8)
      |                                               |                |    [3]{}: program_header 0xe8-0x1008 (3872)
0x00e0|                        01 00 00 00            |        ....    |      type: "load" (1) (Loadable segment) 0xe8-0xec (4)
      |                                               |                |      flags{}: 0xec-0xf0 (4)
0x00e0|                                    06         |            .   |        unused0: 0 0xec-0xec.5 (0.5)
0x00e0|                                    06         |            .   |        r: true 0xec.5-0xec.6 (0.1)
0x00e0|                                    06         |            .   |        w: true 0xec.6-0xec.7 (0.1)
0x00e0|                                    06         |            .   |        x: false 0xec.7-0xed (0.1)
0x00e0|                                       00 00 00|             ...|        unused1: 0 0xed-0xf0 (3)
0x00f0|90 0d 00 00 00 00 00 00                        |........        |      offset: 0xd90 0xf0-0xf8 (8)
0x00f0|                        90 0d 01 00 00 00 00 00|        ........|      vaddr: 0x10d90 0xf8-0x100 (8)
0x0100|90 0d 01 00 00 00 00 00                        |........        |      paddr: 0x10d90 0x100-0x108 (8)
0x0100|                        78 02 00 00 00 00 00 00|        x.......|      filesz: 632 0x108-0x110 (8)
0x0110|b0 02 00 00 00 00 00 00                        |........        |      memsz: 688 0x110-0x118 (8)
0x0110|                        00 00 01 00 00 00 00 00|        ........|      align: 65536 0x118-0x120 (8)
0x0d90|90 07 00 00 00 00 00 00 30 07 00 00 00 00 00 00|........0.......|      data: raw bits 0xd90-0x1008 (632)
*     |until 0x1007.7 (632)                           |                |
      |                                               |                |    [4]{}: program_header 0x120-0xf70 (3664)
0x0120|02 00 00 00                                    |....            |      type: "dynamic" (2) (Dynamic linking information) 0x120-0x124 (4)
      |                                               |                |      flags{}: 0x124-0x128 (4)
0x0120|            06                                 |    .           |        unused0: 0 0x124-0x124.5 (0.5)
0x0120|            06                                 |    .           |        r: true 0x124.5-0x124.6 (0.1)
0x0120|            06                                 |    .           |        w: true 0x124.6-0x124.7 (0.1)
0x0120|            06                                 |    .           |        x: false 0x124.7-0x125 (0.1)
0x0120|               00 00 00                        |     ...        |        unused1: 0 0x125-0x128 (3)
0x0120|                        a0 0d 00 00 00 00 00 00|        ........|      offset: 0xda0 0x128-0x130 (8)
0x0130|a0 0d 01 00 00 00 00 00                        |........        |      vaddr: 0x10da0 0x130-0x138 (8)
0x0130|                        a0 0d 01 00 00 00 00 00|        ........|      paddr: 0x10da0 0x138-0x140 (8)
0x0140|d0 01 00 00 00 00 00 00                        |........        |      filesz: 464 0x140-0x148 (8)
0x0140|                        d0 01 00 00 00 00 00 00|        ........|      memsz: 464 0x148-0x150 (8)
0x0150|08 00 00 00 00 00 00 00                        |........        |      align: 8 0x150-0x158 (8)
0x0da0|01 00 00 00 00 00 00 00 a2 00 00 00 00 00 00 00|................|      data: raw bits 0xda0-0xf70 (464)
*     |until 0xf6f.7 (464)                            |                |
      |                                               |                |    [5]{}: program_header 0x158-0x850 (1784)
0x0150|                        50 e5 74 64            |        P.td    |      type: "gnu_eh_frame" (1685382480) (GNU frame unwind information) 0x158-0x15c (4)
      |                                               |                |      flags{}: 0x15c-0x160 (4)
0x0150|                                    04         |            .   |        unused0: 0 0x15c-0x15c.5 (0.5)
0x0150|                                    04         |            .   |        r: true 0x15c.5-0x15c.6 (0.1)
0x0150|                                    04         |            .   |        w: false 0x15c.6-0x15c.7 (0.1)
0x0150|                                    04         |            .   |        x: false 0x15c.7-0x15d (0.1)
0x0150|                                       00 00 00|             ...|        unused1: 0 0x15d-0x160 (3)
0x0160|14 08 00 00 00 00 00 00                        |........        |      offset: 0x814 0x160-0x168 (8)
0x0160|                        14 08 00 00 00 00 00 00|        ........|      vaddr: 0x814 0x168-0x170 (8)
0x0170|14 08 00 00 00 00 00 00                        |........        |      paddr: 0x814 0x170-0x178 (8)
0x0170|                        3c 00 00 00 00 00 00 00|        <.......|      filesz: 60 0x178-0x180 (8)
0x0180|3c 00 00 00 00 00 00 00                        |<.......        |      memsz: 60 0x180-0x188 (8)
0x0180|                        04 00 00 00 00 00 00 00|        ........|      align: 4 0x188-0x190 (8)
0x0810|            01 1b 03 3b 38 00 00 00 06 00 00 00|    ...;8.......|      data: raw bits 0x814-0x850 (60)
0x0820|ac fe ff ff 50 00 00 00 dc fe ff ff 64 00 00 00|....P.......d...|
*     |until 0x84f.7 (60)                             |                |
      |                                               |                |    [6]{}: program_header 0x0-0x1c8 (456)
      |                                               |                |      data: raw bits 0x0-0x0 (0)
0x0190|51 e5 74 64                                    |Q.td            |      type: "gnu_stack" (1685382481) (GNU stack permission) 0x190-0x194 (4)
      |                                               |                |      flags{}: 0x194-0x198 (4)
0x0190|            06                                 |    .           |        unused0: 0 0x194-0x194.5 (0.5)
0x0190|            06                                 |    .           |        r: true 0x194.5-0x194.6 (0.1)
0x0190|            06                                 |    .           |        w: true 0x194.6-0x194.7 (0.1)
0x0190|            06                                 |    .           |        x: false 0x194.7-0x195 (0.1)
0x0190|               00 00 00                        |     ...        |        unused1: 0 0x195-0x198 (3)
0x0190|                        00 00 00 00 00 00 00 00|        ........|      offset: 0x0 0x198-0x1a0 (8)
0x01a0|00 00 00 00 00 00 00 00                        |........        |      vaddr: 0x0 0x1a0-0x1a8 (8)
0x01a0|                        00 00 00 00 00 00 00 00|        ........|      paddr: 0x0 0x1a8-0x1b0 (8)
0x01b0|00 00 00 00 00 00 00 00                        |........        |      filesz: 0 0x1b0-0x1b8 (8)
0x01b0|                        00 00 00 00 00 00 00 00|        ........|      memsz: 0 0x1b8-0x1c0 (8)
0x01c0|10 00 00 00 00 00 00 00                        |........        |      align: 16 0x1c0-0x1c8 (8)
      |                                               |                |    [7]{}: program_header 0x1c8-0x1000 (3640)
0x01c0|                        52 e5 74 64            |        R.td    |      type: "gnu_relro" (1685382482) (GNU read-only after relocation) 0x1c8-0x1cc (4)
      |                                               |                |      flags{}: 0x1cc-0x1d0 (4)
0x01c0|                                    04         |            .   |        unused0: 0 0x1cc-0x1cc.5 (0.5)
0x01c0|                                    04         |            .   |        r: true 0x1cc.5-0x1cc.6 (0.1)
0x01c0|                                    04         |            .   |        w: false 0x1cc.6-0x1cc.7 (0.1)
0x01c0|                                    04         |            .   |        x: false 0x1cc.7-0x1cd (0.1)
0x01c0|                                       00 00 00|             ...|        unused1: 0 0x1cd-0x1d0 (3)
0x01d0|90 0d 00 00 00 00 00 00                        |........        |      offset: 0xd90 0x1d0-0x1d8 (8)
0x01d0|                        90 0d 01 00 00 00 00 00|        ........|      vaddr: 0x10d90 0x1d8-0x1e0 (8)
0x01e0|90 0d 01 00 00 00 00 00                        |........        |      paddr: 0x10d90 0x1e0-0x1e8 (8)
0x01e0|                        70 02 00 00 00 00 00 00|        p.......|      filesz: 624 0x1e8-0x1f0 (8)
0x01f0|70 02 00 00 00 00 00 00                        |p.......        |      memsz: 624 0x1f0-0x1f8 (8)
0x01f0|                        01 00 00 00 00 00 00 00|        ........|      align: 1 0x1f8-0x200 (8)
0x0d90|90 07 00 00 00 00 00 00 30 07 00 00 00 00 00 00|........0.......|      data: raw bits 0xd90-0x1000 (624)
*     |until 0xfff.7 (624)                            |                |
      |                                               |                |  section_headers[0:32]: 0x200-0x2b40 (10560)
      |                                               |                |    [0]{}: section_header 0x2340-0x2380 (64)
0x2340|00 00 00 00                                    |....            |      name: "" (0) 0x2340-0x2344 (4)
0x2340|            00 00 00 00                        |    ....        |      type: "null" (0x0) (Header inactive) 0x2344-0x2348 (4)
      |                                               |                |      flags{}: 0x2348-0x2350 (8)
0x2340|                        00                     |        .       |        link_order: false 0x2348-0x2348.1 (0.1)
0x2340|                        00                     |        .       |        info_link: false 0x2348.1-0x2348.2 (0.1)
0x2340|                        00                     |        .       |        strings: false 0x2348.2-0x2348.3 (0.1)
0x2340|                        00                     |        .       |        merge: false 0x2348.3-0x2348.4 (0.1)
0x2340|                        00                     |        .       |        unused0: 0 0x2348.4-0x2348.5 (0.1)
0x2340|                        00                     |        .       |        execinstr: false 0x2348.5-0x2348.6 (0.1)
0x2340|                        00                     |        .       |        alloc: false 0x2348.6-0x2348.7 (0.1)
0x2340|                        00                     |        .       |        write: false 0x2348.7-0x2349 (0.1)
0x2340|                           00                  |         .      |        tls: false 0x2349-0x2349.1 (0.1)
0x2340|                           00                  |         .      |        group: false 0x2349.1-0x2349.2 (0.1)
0x2340|                           00                  |         .      |        os_nonconforming: false 0x2349.2-0x2349.3 (0.1)
0x2340|                           00 00               |         ..     |        unused1: 0 0x2349.3-0x234a.4 (1.1)
0x2340|                              00 00            |          ..    |        os_specific: 0 0x234a.4-0x234b.4 (1)
0x2340|                                 00            |           .    |        processor_specific: 0 0x234b.4-0x234c (0.4)
0x2340|                                    00 00 00 00|            ....|        unused2: 0 0x234c-0x2350 (4)
0x2350|00 00 00 00 00 00 00 00                        |........        |      addr: 0x0 0x2350-0x2358 (8)
0x2350|                        00 00 00 00 00 00 00 00|        ........|      offset: 0x0 0x2358-0x2360 (8)
0x2360|00 00 00 00 00 00 00 00                        |........        |      size: 0 0x2360-0x2368 (8)
0x2360|                        00 00 00 00            |        ....    |      link: 0 0x2368-0x236c (4)
0x2360|                                    00 00 00 00|            ....|      info: 0 0x236c-0x2370 (4)
0x2370|00 00 00 00 00 00 00 00                        |........        |      addralign: 0 0x2370-0x2378 (8)
0x2370|                        00 00 00 00 00 00 00 00|        ........|      entsize: 0 0x2378-0x2380 (8)
      |                                               |                |    [1]{}: section_header 0x200-0x23c0 (8640)
0x0200|2f 6c 69 62 2f 6c 64 2d 6d 75 73 6c 2d 61 61 72|/lib/ld-musl-aar|      data: raw bits 0x200-0x21a (26)
0x0210|63 68 36 34 2e 73 6f 2e 31 00                  |ch64.so.1.      |
0x2380|1b 00 00 00                                    |....            |      name: ".interp" (27) 0x2380-0x2384 (4)
0x2380|            01 00 00 00                        |    ....        |      type: "progbits" (0x1) (Information defined by the program) 0x2384-0x2388 (4)
      |                                               |                |      flags{}: 0x2388-0x2390 (8)
0x2380|                        02                     |        .       |        link_order: false 0x2388-0x2388.1 (0.1)
0x2380|                        02                     |        .       |        info_link: false 0x2388.1-0x2388.2 (0.1)
0x2380|                        02                     |        .       |        strings: false 0x2388.2-0x2388.3 (0.1)
0x2380|                        02                     |        .       |        merge: false 0x2388.3-0x2388.4 (0.1)
0x2380|                        02                     |        .       |        unused0: 0 0x2388.4-0x2388.5 (0.1)
0x2380|                        02                     |        .       |        execinstr: false 0x2388.5-0x2388.6 (0.1)
0x2380|                        02                     |        .       |        alloc: true 0x2388.6-0x2388.7 (0.1)
0x2380|                        02                     |        .       |        write: false 0x2388.7-0x2389 (0.1)
0x2380|                           00                  |         .      |        tls: false 0x2389-0x2389.1 (0.1)
0x2380|                           00                  |         .      |        group: false 0x2389.1-0x2389.2 (0.1)
0x2380|                           00                  |         .      |        os_nonconforming: false 0x2389.2-0x2389.3 (0.1)
0x2380|                           00 00               |         ..     |        unused1: 0 0x2389.3-0x238a.4 (1.1)
0x2380|                              00 00            |          ..    |        os_specific: 0 0x238a.4-0x238b.4 (1)
0x2380|                                 00            |           .    |        processor_specific: 0 0x238b.4-0x238c (0.4)
0x2380|                                    00 00 00 00|            ....|        unused2: 0 0x238c-0x2390 (4)
0x2390|00 02 00 00 00 00 00 00                        |........        |      addr: 0x200 0x2390-0x2398 (8)
0x2390|                        00 02 00 00 00 00 00 00|        ........|      offset: 0x200 0x2398-0x23a0 (8)
0x23a0|1a 00 00 00 00 00 00 00                        |........        |      size: 26 0x23a0-0x23a8 (8)
0x23a0|                        00 00 00 00            |        ....    |      link: 0 0x23a8-0x23ac (4)
0x23a0|                                    00 00 00 00|            ....|      info: 0 0x23ac-0x23b0 (4)
0x23b0|01 00 00 00 00 00 00 00                        |........        |      addralign: 1 0x23b0-0x23b8 (8)
0x23b0|                        00 00 00 00 00 00 00 00|        ........|      entsize: 0 0x23b8-0x23c0 (8)
      |                                               |                |    [2]{}: section_header 0x220-0x2400 (8672)
      |                                               |                |      gnu_hash{}: 0x220-0x248 (40)
0x0220|02 00 00 00                                    |....            |        nbuckets: 2 0x220-0x224 (4)
0x0220|            0b 00 00 00                        |    ....        |        symndx: 11 0x224-0x228 (4)
0x0220|                        01 00 00 00            |        ....    |        maskwords: 1 0x228-0x22c (4)
0x0220|                                    06 00 00 00|            ....|        shift2: 6 0x22c-0x230 (4)
      |                                               |                |        bloom_filter[0:1]: 0x230-0x238 (8)
0x0230|00 80 00 00 00 04 40 01                        |......@.        |          [0]: 90076390593953792 maskword 0x230-0x238 (8)
      |                                               |                |        buckets[0:2]: 0x238-0x240 (8)
0x0230|                        0b 00 00 00            |        ....    |          [0]: 11 bucket 0x238-0x23c (4)
0x0230|                                    00 00 00 00|            ....|          [1]: 0 bucket 0x23c-0x240 (4)
      |                                               |                |        values[0:2]: 0x240-0x248 (8)
0x0240|b8 8d f1 0e                                    |....            |          [0]: 250711480 value 0x240-0x244 (4)
0x0240|            eb d3 ef 0e                        |    ....        |          [1]: 250598379 value 0x244-0x248 (4)
0x23c0|23 00 00 00                                    |#...            |      name: ".gnu.hash" (35) 0x23c0-0x23c4 (4)
0x23c0|            f6 ff ff 6f                        |    ...o        |      type: "gnu_hash" (0x6ffffff6) (GNU symbol hash table) 0x23c4-0x23c8 (4)
      |                                               |                |      flags{}: 0x23c8-0x23d0 (8)
0x23c0|                        02                     |        .       |        link_order: false 0x23c8-0x23c8.1 (0.1)
0x23c0|                        02                     |        .       |        info_link: false 0x23c8.1-0x23c8.2 (0.1)
0x23c0|                        02                     |        .       |        strings: false 0x23c8.2-0x23c8.3 (0.1)
0x23c0|                        02                     |        .       |        merge: false 0x23c8.3-0x23c8.4 (0.1)
0x23c0|                        02                     |        .       |        unused0: 0 0x23c8.4-0x23c8.5 (0.1)
0x23c0|                        02                     |        .       |        execinstr: false 0x23c8.5-0x23c8.6 (0.1)
0x23c0|                        02                     |        .       |        alloc: true 0x23c8.6-0x23c8.7 (0.1)
0x23c0|                        02                     |        .       |        write: false 0x23c8.7-0x23c9 (0.1)
0x23c0|                           00                  |         .      |        tls: false 0x23c9-0x23c9.1 (0.1)
0x23c0|                           00                  |         .      |        group: false 0x23c9.1-0x23c9.2 (0.1)
0x23c0|                           00                  |         .      |        os_nonconforming: false 0x23c9.2-0x23c9.3 (0.1)
0x23c0|                           00 00               |         ..     |        unused1: 0 0x23c9.3-0x23ca.4 (1.1)
0x23c0|                              00 00            |          ..    |        os_specific: 0 0x23ca.4-0x23cb.4 (1)
0x23c0|                                 00            |           .    |        processor_specific: 0 0x23cb.4-0x23cc (0.4)
0x23c0|                                    00 00 00 00|            ....|        unused2: 0 0x23cc-0x23d0 (4)
0x23d0|20 02 00 00 00 00 00 00                        | .......        |      addr: 0x220 0x23d0-0x23d8 (8)
0x23d0|                        20 02 00 00 00 00 00 00|         .......|      offset: 0x220 0x23d8-0x23e0 (8)
0x23e0|28 00 00 00 00 00 00 00                        |(.......        |      size: 40 0x23e0-0x23e8 (8)
0x23e0|                        03 00 00 00            |        ....    |      link: 3 0x23e8-0x23ec (4)
0x23e0|                                    00 00 00 00|            ....|      info: 0 0x23ec-0x23f0 (4)
0x23f0|08 00 00 00 00 00 00 00                        |........        |      addralign: 8 0x23f0-0x23f8 (8)
0x23f0|                        00 00 00 00 00 00 00 00|        ........|      entsize: 0 0x23f8-0x2400 (8)
      |                                               |                |    [3]{}: section_header 0x248-0x2440 (8696)
      |                                               |                |      symbol_table[0:13]: 0x248-0x380 (312)
      |                                               |                |        [0]{}: symbol 0x248-0x260 (24)
0x0240|                        00 00 00 00            |        ....    |          name: "" (0) 0x248-0x24c (4)
0x0240|                                    00         |            .   |          bind: "local" (0) 0x24c-0x24c.4 (0.4)
0x0240|                                    00         |            .   |          type: "notype" (0) 0x24c.4-0x24d (0.4)
0x0240|                                       00      |             .  |          other_unused: 0 0x24d-0x24d.6 (0.6)
0x0240|                                       00      |             .  |          visibility: "default" (0) 0x24d.6-0x24e (0.2)
0x0240|                                          00 00|              ..|          shndx: 0 0x24e-0x250 (2)
0x0250|00 00 00 00 00 00 00 00                        |........        |          value: 0 0x250-0x258 (8)
0x0250|                        00 00 00 00 00 00 00 00|        ........|          size: 0 0x258-0x260 (8)
      |                                               |                |        [1]{}: symbol 0x260-0x278 (24)
0x0260|00 00 00 00                                    |....            |          name: "" (0) 0x260-0x264 (4)
0x0260|            03                                 |    .           |          bind: "local" (0) 0x264-0x264.4 (0.4)
0x0260|            03                                 |    .           |          type: "section" (3) 0x264.4-0x265 (0.4)
0x0260|               00                              |     .          |          other_unused: 0 0x265-0x265.6 (0.6)
0x0260|               00                              |     .          |          visibility: "default" (0) 0x265.6-0x266 (0.2)
0x0260|                  07 00                        |      ..        |          shndx: 7 0x266-0x268 (2)
0x0260|                        e0 05 00 00 00 00 00 00|        ........|          value: 1504 0x268-0x270 (8)
0x0270|00 00 00 00 00 00 00 00                        |........        |          size: 0 0x270-0x278 (8)
      |                                               |                |        [2]{}: symbol 0x278-0x290 (24)
0x0270|                        00 00 00 00            |        ....    |          name: "" (0) 0x278-0x27c (4)
0x0270|                                    03         |            .   |          bind: "local" (0) 0x27c-0x27c.4 (0.4)
0x0270|                                    03         |            .   |          type: "section" (3) 0x27c.4-0x27d (0.4)
0x0270|                                       00      |             .  |          other_unused: 0 0x27d-0x27d.6 (0.6)
0x0270|                                       00      |             .  |          visibility: "default" (0) 0x27d.6-0x27e (0.2)
0x0270|                                          12 00|              ..|          shndx: 18 0x27e-0x280 (2)
0x0280|00 10 01 00 00 00 00 00                        |........        |          value: 69632 0x280-0x288 (8)
0x0280|                        00 00 00 00 00 00 00 00|        ........|          size: 0 0x288-0x290 (8)
      |                                               |                |        [3]{}: symbol 0x290-0x2a8 (24)
0x0290|01 00 00 00                                    |....            |          name: "puts" (1) 0x290-0x294 (4)
0x0290|            12                                 |    .           |          bind: "global" (1) 0x294-0x294.4 (0.4)
0x0290|            12                                 |    .           |          type: "func" (2) 0x294.4-0x295 (0.4)
0x0290|               00                              |     .          |          other_unused: 0 0x295-0x295.6 (0.6)
0x0290|               00                              |     .          |          visibility: "default" (0) 0x295.6-0x296 (0.2)
0x0290|                  00 00                        |      ..        |          shndx: 0 0x296-0x298 (2)
0x0290|                        00 00 00 00 00 00 00 00|        ........|          value: 0 0x298-0x2a0 (8)
0x02a0|00 00 00 00 00 00 00 00                        |........        |          size: 0 0x2a0-0x2a8 (8)
      |                                               |                |        [4]{}: symbol 0x2a8-0x2c0 (24)
0x02a0|                        06 00 00 00            |        ....    |          name: "__cxa_finalize" (6) 0x2a8-0x2ac (4)
0x02a0|                                    22         |            "   |          bind: "weak" (2) 0x2ac-0x2ac.4 (0.4)
0x02a0|                                    22         |            "   |          type: "func" (2) 0x2ac.4-0x2ad (0.4)
0x02a0|                                       00      |             .  |          other_unused: 0 0x2ad-0x2ad.6 (0.6)
0x02a0|                                       00      |             .  |          visibility: "default" (0) 0x2ad.6-0x2ae (0.2)
0x02a0|                                          00 00|              ..|          shndx: 0 0x2ae-0x2b0 (2)
0x02b0|00 00 00 00 00 00 00 00                        |........        |          value: 0 0x2b0-0x2b8 (8)
0x02b0|                        00 00 00 00 00 00 00 00|        ........|          size: 0 0x2b8-0x2c0 (8)
      |                                               |                |        [5]{}: symbol 0x2c0-0x2d8 (24)
0x02c0|15 00 00 00                                    |....            |          name: "__deregister_frame_info" (21) 0x2c0-0x2c4 (4)
0x02c0|            20                                 |                |          bind: "weak" (2) 0x2c4-0x2c4.4 (0.4)
0x02c0|            20                                 |                |          type: "notype" (0) 0x2c4.4-0x2c5 (0.4)
0x02c0|               00                              |     .          |          other_unused: 0 0x2c5-0x2c5.6 (0.6)
0x02c0|               00                              |     .          |          visibility: "default" (0) 0x2c5.6-0x2c6 (0.2)
0x02c0|                  00 00                        |      ..        |          shndx: 0 0x2c6-0x2c8 (2)
0x02c0|                        00 00 00 00 00 00 00 00|        ........|          value: 0 0x2c8-0x2d0 (8)
0x02d0|00 00 00 00 00 00 00 00                        |........        |          size: 0 0x2d0-0x2d8 (8)
      |                                               |                |        [6]{}: symbol 0x2d8-0x2f0 (24)
0x02d0|                        2d 00 00 00            |        -...    |          name: "_ITM_registerTMCloneTable" (45) 0x2d8-0x2dc (4)
0x02d0|                                    20         |                |          bind: "weak" (2) 0x2dc-0x2dc.4 (0.4)
0x02d0|                                    20         |                |          type: "notype" (0) 0x2dc.4-0x2dd (0.4)
0x02d0|                                       00      |             .  |          other_unused: 0 0x2dd-0x2dd.6 (0.6)
0x02d0|                                       00      |             .  |          visibility: "default" (0) 0x2dd.6-0x2de (0.2)
0x02d0|                                          00 00|              ..|          shndx: 0 0x2de-0x2e0 (2)
0x02e0|00 00 00 00 00 00 00 00                        |........        |          value: 0 0x2e0-0x2e8 (8)
0x02e0|                        00 00 00 00 00 00 00 00|        ........|          size: 0 0x2e8-0x2f0 (8)
      |                                               |                |        [7]{}: symbol 0x2f0-0x308 (24)
0x02f0|47 00 00 00                                    |G...            |          name: "_ITM_deregisterTMCloneTable" (71) 0x2f0-0x2f4 (4)
0x02f0|            20                                 |                |          bind: "weak" (2) 0x2f4-0x2f4.4 (0.4)
0x02f0|            20                                 |                |          type: "notype" (0) 0x2f4.4-0x2f5 (0.4)
0x02f0|               00                              |     .          |          other_unused: 0 0x2f5-0x2f5.6 (0.6)
0x02f0|               00                              |     .          |          visibility: "default" (0) 0x2f5.6-0x2f6 (0.2)
0x02f0|                  00 00                        |      ..        |          shndx: 0 0x2f6-0x2f8 (2)
0x02f0|                        00 00 00 00 00 00 00 00|        ........|          value: 0 0x2f8-0x300 (8)
0x0300|00 00 00 00 00 00 00 00                        |........        |          size: 0 0x300-0x308 (8)
      |                                               |                |        [8]{}: symbol 0x308-0x320 (24)
0x0300|                        85 00 00 00            |        ....    |          name: "libbbb_bbb" (133) 0x308-0x30c (4)
0x0300|                                    12         |            .   |          bind: "global" (1) 0x30c-0x30c.4 (0.4)
0x0300|                                    12         |            .   |          type: "func" (2) 0x30c.4-0x30d (0.4)
0x0300|                                       00      |             .  |          other_unused: 0 0x30d-0x30d.6 (0.6)
0x0300|                                       00      |             .  |          visibility: "default" (0) 0x30d.6-0x30e (0.2)
0x0300|                                          00 00|              ..|          shndx: 0 0x30e-0x310 (2)
0x0310|00 00 00 00 00 00 00 00                        |........        |          value: 0 0x310-0x318 (8)
0x0310|                        00 00 00 00 00 00 00 00|        ........|          size: 0 0x318-0x320 (8)
      |                                               |                |        [9]{}: symbol 0x320-0x338 (24)
0x0320|90 00 00 00                                    |....            |          name: "__libc_start_main" (144) 0x320-0x324 (4)
0x0320|            12                                 |    .           |          bind: "global" (1) 0x324-0x324.4 (0.4)
0x0320|            12                                 |    .           |          type: "func" (2) 0x324.4-0x325 (0.4)
0x0320|               00                              |     .          |          other_unused: 0 0x325-0x325.6 (0.6)
0x0320|               00                              |     .          |          visibility: "default" (0) 0x325.6-0x326 (0.2)
0x0320|                  00 00                        |      ..        |          shndx: 0 0x326-0x328 (2)
0x0320|                        00 00 00 00 00 00 00 00|        ........|          value: 0 0x328-0x330 (8)
0x0330|00 00 00 00 00 00 00 00                        |........        |          size: 0 0x330-0x338 (8)
      |                                               |                |        [10]{}: symbol 0x338-0x350 (24)
0x0330|                        63 00 00 00            |        c...    |          name: "__register_frame_info" (99) 0x338-0x33c (4)
0x0330|                                    20         |                |          bind: "weak" (2) 0x33c-0x33c.4 (0.4)
0x0330|                                    20         |                |          type: "notype" (0) 0x33c.4-0x33d (0.4)
0x0330|                                       00      |             .  |          other_unused: 0 0x33d-0x33d.6 (0.6)
0x0330|                                       00      |             .  |          visibility: "default" (0) 0x33d.6-0x33e (0.2)
0x0330|                                          00 00|              ..|          shndx: 0 0x33e-0x340 (2)
0x0340|00 00 00 00 00 00 00 00                        |........        |          value: 0 0x340-0x348 (8)
0x0340|                        00 00 00 00 00 00 00 00|        ........|          size: 0 0x348-0x350 (8)
      |                                               |                |        [11]{}: symbol 0x350-0x368 (24)
0x0350|79 00 00 00                                    |y...            |          name: "_init" (121) 0x350-0x354 (4)
0x0350|            12                                 |    .           |          bind: "global" (1) 0x354-0x354.4 (0.4)
0x0350|            12                                 |    .           |          type: "func" (2) 0x354.4-0x355 (0.4)
0x0350|               00                              |     .          |          other_unused: 0 0x355-0x355.6 (0.6)
0x0350|               00                              |     .          |          visibility: "default" (0) 0x355.6-0x356 (0.2)
0x0350|                  07 00                        |      ..        |          shndx: 7 0x356-0x358 (2)
0x0350|                        e0 05 00 00 00 00 00 00|        ........|          value: 1504 0x358-0x360 (8)
0x0360|04 00 00 00 00 00 00 00                        |........        |          size: 4 0x360-0x368 (8)
      |                                               |                |        [12]{}: symbol 0x368-0x380 (24)
0x0360|                        7f 00 00 00            |        ....    |          name: "_fini" (127) 0x368-0x36c (4)
0x0360|                                    12         |            .   |          bind: "global" (1) 0x36c-0x36c.4 (0.4)
0x0360|                                    12         |            .   |          type: "func" (2) 0x36c.4-0x36d (0.4)
0x0360|                                       00      |             .  |          other_unused: 0 0x36d-0x36d.6 (0.6)
0x0360|                                       00      |             .  |          visibility: "default" (0) 0x36d.6-0x36e (0.2)
0x0360|                                          0a 00|              ..|          shndx: 10 0x36e-0x370 (2)
0x0370|00 08 00 00 00 00 00 00                        |........        |          value: 2048 0x370-0x378 (8)
0x0370|                        04 00 00 00 00 00 00 00|        ........|          size: 4 0x378-0x380 (8)
0x2400|2d 00 00 00                                    |-...            |      name: ".dynsym" (45) 0x2400-0x2404 (4)
0x2400|            0b 00 00 00                        |    ....        |      type: "dynsym" (0xb) (Dynamic linking symbol table) 0x2404-0x2408 (4)
      |                                               |                |      flags{}: 0x2408-0x2410 (8)
0x2400|                        02                     |        .       |        link_order: false 0x2408-0x2408.1 (0.1)
0x2400|                        02                     |        .       |        info_link: false 0x2408.1-0x2408.2 (0.1)
0x2400|                        02                     |        .       |        strings: false 0x2408.2-0x2408.3 (0.1)
0x2400|                        02                     |        .       |        merge: false 0x2408.3-0x2408.4 (0.1)
0x2400|                        02                     |        .       |        unused0: 0 0x2408.4-0x2408.5 (0.1)
0x2400|                        02                     |        .       |        execinstr: false 0x2408.5-0x2408.6 (0.1)
0x2400|                        02                     |        .       |        alloc: true 0x2408.6-0x2408.7 (0.1)
0x2400|                        02                     |        .       |        write: false 0x2408.7-0x2409 (0.1)
0x2400|                           00                  |         .      |        tls: false 0x2409-0x2409.1 (0.1)
0x2400|                           00                  |         .      |        group: false 0x2409.1-0x2409.2 (0.1)
0x2400|                           00                  |         .      |        os_nonconforming: false 0x2409.2-0x2409.3 (0.1)
0x2400|                           00 00               |         ..     |        unused1: 0 0x2409.3-0x240a.4 (1.1)
0x2400|                              00 00            |          ..    |        os_specific: 0 0x240a.4-0x240b.4 (1)
0x2400|                                 00            |           .    |        processor_specific: 0 0x240b.4-0x240c (0.4)
0x2400|                                    00 00 00 00|            ....|        unused2: 0 0x240c-0x2410 (4)
0x2410|48 02 00 00 00 00 00 00                        |H.......        |      addr: 0x248 0x2410-0x2418 (8)
0x2410|                        48 02 00 00 00 00 00 00|        H.......|      offset: 0x248 0x2418-0x2420 (8)
0x2420|38 01 00 00 00 00 00 00                        |8.......        |      size: 312 0x2420-0x2428 (8)
0x2420|                        04 00 00 00            |        ....    |      link: 4 0x2428-0x242c (4)
0x2420|                                    03 00 00 00|            ....|      info: 3 0x242c-0x2430 (4)
0x2430|08 00 00 00 00 00 00 00                        |........        |      addralign: 8 0x2430-0x2438 (8)
0x2430|                        18 00 00 00 00 00 00 00|        ........|      entsize: 24 0x2438-0x2440 (8)
      |                                               |                |    [4]{}: section_header 0x380-0x2480 (8448)
0x0380|00 70 75 74 73 00 5f 5f 63 78 61 5f 66 69 6e 61|.puts.__cxa_fina|      string: "\x00puts\x00__cxa_finalize\x00__deregister_frame_info\x00_ITM_registerTMCloneTable\x00_ITM_deregisterTMCloneTable\x00__register_frame_info\x00_init\x00_fini\x00libbbb_bbb\x00__libc_start_main\x00libbbb.so\x00libc.musl-aarch64.so.1\x00" 0x380-0x443 (195)
*     |until 0x442.7 (195)                            |                |
0x2440|35 00 00 00                                    |5...            |      name: ".dynstr" (53) 0x2440-0x2444 (4)
0x2440|            03 00 00 00                        |    ....        |      type: "strtab" (0x3) (String table) 0x2444-0x2448 (4)
      |                                               |                |      flags{}: 0x2448-0x2450 (8)
0x2440|                        02                     |        .       |        link_order: false 0x2448-0x2448.1 (0.1)
0x2440|                        02                     |        .       |        info_link: false 0x2448.1-0x2448.2 (0.1)
0x2440|                        02                     |        .       |        strings: false 0x2448.2-0x2448.3 (0.1)
0x2440|                        02                     |        .       |        merge: false 0x2448.3-0x2448.4 (0.1)
0x2440|                        02                     |        .       |        unused0: 0 0x2448.4-0x2448.5 (0.1)
0x2440|                        02                     |        .       |        execinstr: false 0x2448.5-0x2448.6 (0.1)
0x2440|                        02                     |        .       |        alloc: true 0x2448.6-0x2448.7 (0.1)
0x2440|                        02                     |        .       |        write: false 0x2448.7-0x2449 (0.1)
0x2440|                           00                  |         .      |        tls: false 0x2449-0x2449.1 (0.1)
0x2440|                           00                  |         .      |        group: false 0x2449.1-0x2449.2 (0.1)
0x2440|                           00                  |         .      |        os_nonconforming: false 0x2449.2-0x2449.3 (0.1)
0x2440|                           00 00               |         ..     |        unused1: 0 0x2449.3-0x244a.4 (1.1)
0x2440|                              00 00            |          ..    |        os_specific: 0 0x244a.4-0x244b.4 (1)
0x2440|                                 00            |           .    |        processor_specific: 0 0x244b.4-0x244c (0.4)
0x2440|                                    00 00 00 00|            ....|        unused2: 0 0x244c-0x2450 (4)
0x2450|80 03 00 00 00 00 00 00                        |........        |      addr: 0x380 0x2450-0x2458 (8)
0x2450|                        80 03 00 00 00 00 00 00|        ........|      offset: 0x380 0x2458-0x2460 (8)
0x2460|c3 00 00 00 00 00 00 00                        |........        |      size: 195 0x2460-0x2468 (8)
0x2460|                        00 00 00 00            |        ....    |      link: 0 0x2468-0x246c (4)
0x2460|                                    00 00 00 00|            ....|      info: 0 0x246c-0x2470 (4)
0x2470|01 00 00 00 00 00 00 00                        |........        |      addralign: 1 0x2470-0x2478 (8)
0x2470|                        00 00 00 00 00 00 00 00|        ........|      entsize: 0 0x2478-0x2480 (8)
      |                                               |                |    [5]{}: section_header 0x448-0x24c0 (8312)
0x0440|                        90 0d 01 00 00 00 00 00|        ........|      data: raw bits 0x448-0x550 (264)
0x0450|03 04 00 00 00 00 00 00 90 07 00 00 00 00 00 00|................|
*     |until 0x54f.7 (264)                            |                |
0x2480|3d 00 00 00                                    |=...            |      name: ".rela.dyn" (61) 0x2480-0x2484 (4)
0x2480|            04 00 00 00                        |    ....        |      type: "rela" (0x4) (Relocation entries with explicit addends) 0x2484-0x2488 (4)
      |                                               |                |      flags{}: 0x2488-0x2490 (8)
0x2480|                        02                     |        .       |        link_order: false 0x2488-0x2488.1 (0.1)
0x2480|                        02                     |        .       |        info_link: false 0x2488.1-0x2488.2 (0.1)
0x2480|                        02                     |        .       |        strings: false 0x2488.2-0x2488.3 (0.1)
0x2480|                        02                     |        .       |        merge: false 0x2488.3-0x2488.4 (0.1)
0x2480|                        02                     |        .       |        unused0: 0 0x2488.4-0x2488.5 (0.1)
0x2480|                        02                     |        .       |        execinstr: false 0x2488.5-0x2488.6 (0.1)
0x2480|                        02                     |        .       |        alloc: true 0x2488.6-0x2488.7 (0.1)
0x2480|                        02                     |        .       |        write: false 0x2488.7-0x2489 (0.1)
0x2480|                           00                  |         .      |        tls: false 0x2489-0x2489.1 (0.1)
0x2480|                           00                  |         .      |        group: false 0x2489.1-0x2489.2 (0.1)
0x2480|                           00                  |         .      |        os_nonconforming: false 0x2489.2-0x2489.3 (0.1)
0x2480|                           00 00               |         ..     |        unused1: 0 0x2489.3-0x248a.4 (1.1)
0x2480|                              00 00            |          ..    |        os_specific: 0 0x248a.4-0x248b.4 (1)
0x2480|                                 00            |           .    |        processor_specific: 0 0x248b.4-0x248c (0.4)
0x2480|                                    00 00 00 00|            ....|        unused2: 0 0x248c-0x2490 (4)
0x2490|48 04 00 00 00 00 00 00                        |H.......        |      addr: 0x448 0x2490-0x2498 (8)
0x2490|                        48 04 00 00 00 00 00 00|        H.......|      offset: 0x448 0x2498-0x24a0 (8)
0x24a0|08 01 00 00 00 00 00 00                        |........        |      size: 264 0x24a0-0x24a8 (8)
0x24a0|                        03 00 00 00            |        ....    |      link: 3 0x24a8-0x24ac (4)
0x24a0|                                    00 00 00 00|            ....|      info: 0 0x24ac-0x24b0 (4)
0x24b0|08 00 00 00 00 00 00 00                        |........        |      addralign: 8 0x24b0-0x24b8 (8)
0x24b0|                        18 00 00 00 00 00 00 00|        ........|      entsize: 24 0x24b8-0x24c0 (8)
      |                                               |                |    [6]{}: section_header 0x550-0x2500 (8112)
0x0550|88 0f 01 00 00 00 00 00 02 04 00 00 03 00 00 00|................|      data: raw bits 0x550-0x5e0 (144)
*     |until 0x5df.7 (144)                            |                |
0x24c0|47 00 00 00                                    |G...            |      name: ".rela.plt" (71) 0x24c0-0x24c4 (4)
0x24c0|            04 00 00 00                        |    ....        |      type: "rela" (0x4) (Relocation entries with explicit addends) 0x24c4-0x24c8 (4)
      |                                               |                |      flags{}: 0x24c8-0x24d0 (8)
0x24c0|                        42                     |        B       |        link_order: false 0x24c8-0x24c8.1 (0.1)
0x24c0|                        42                     |        B       |        info_link: true 0x24c8.1-0x24c8.2 (0.1)
0x24c0|                        42                     |        B       |        strings: false 0x24c8.2-0x24c8.3 (0.1)
0x24c0|                        42                     |        B       |        merge: false 0x24c8.3-0x24c8.4 (0.1)
0x24c0|                        42                     |        B       |        unused0: 0 0x24c8.4-0x24c8.5 (0.1)
0x24c0|                        42                     |        B       |        execinstr: false 0x24c8.5-0x24c8.6 (0.1)
0x24c0|                        42                     |        B       |        alloc: true 0x24c8.6-0x24c8.7 (0.1)
0x24c0|                        42                     |        B       |        write: false 0x24c8.7-0x24c9 (0.1)
0x24c0|                           00                  |         .      |        tls: false 0x24c9-0x24c9.1 (0.1)
0x24c0|                           00                  |         .      |        group: false 0x24c9.1-0x24c9.2 (0.1)
0x24c0|                           00                  |         .      |        os_nonconforming: false 0x24c9.2-0x24c9.3 (0.1)
0x24c0|                           00 00               |         ..     |        unused1: 0 0x24c9.3-0x24ca.4 (1.1)
0x24c0|                              00 00            |          ..    |        os_specific: 0 0x24ca.4-0x24cb.4 (1)
0x24c0|                                 00            |           .    |        processor_specific: 0 0x24cb.4-0x24cc (0.4)
0x24c0|                                    00 00 00 00|            ....|        unused2: 0 0x24cc-0x24d0 (4)
0x24d0|50 05 00 00 00 00 00 00                        |P.......        |      addr: 0x550 0x24d0-0x24d8 (8)
0x24d0|                        50 05 00 00 00 00 00 00|        P.......|      offset: 0x550 0x24d8-0x24e0 (8)
0x24e0|90 00 00 00 00 00 00 00                        |........        |      size: 144 0x24e0-0x24e8 (8)
0x24e0|                        03 00 00 00            |        ....    |      link: 3 0x24e8-0x24ec (4)
0x24e0|                                    11 00 00 00|            ....|      info: 17 0x24ec-0x24f0 (4)
0x24f0|08 00 00 00 00 00 00 00                        |........        |      addralign: 8 0x24f0-0x24f8 (8)
0x24f0|                        18 00 00 00 00 00 00 00|        ........|      entsize: 24 0x24f8-0x2500 (8)
      |                                               |                |    [7]{}: section_header 0x5e0-0x2540 (8032)
0x05e0|fd 7b bf a9 fd 03 00 91 fd 7b c1 a8 c0 03 5f d6|.{.......{...._.|      data: raw bits 0x5e0-0x5f0 (16)
0x2500|51 00 00 00                                    |Q...            |      name: ".init" (81) 0x2500-0x2504 (4)
0x2500|            01 00 00 00                        |    ....        |      type: "progbits" (0x1) (Information defined by the program) 0x2504-0x2508 (4)
      |                                               |                |      flags{}: 0x2508-0x2510 (8)
0x2500|                        06                     |        .       |        link_order: false 0x2508-0x2508.1 (0.1)
0x2500|                        06                     |        .       |        info_link: false 0x2508.1-0x2508.2 (0.1)
0x2500|                        06                     |        .       |        strings: false 0x2508.2-0x2508.3 (0.1)
0x2500|                        06                     |        .       |        merge: false 0x2508.3-0x2508.4 (0.1)
0x2500|                        06                     |        .       |        unused0: 0 0x2508.4-0x2508.5 (0.1)
0x2500|                        06                     |        .       |        execinstr: true 0x2508.5-0x2508.6 (0.1)
0x2500|                        06                     |        .       |        alloc: true 0x2508.6-0x2508.7 (0.1)
0x2500|                        06                     |        .       |        write: false 0x2508.7-0x2509 (0.1)
0x2500|                           00                  |         .      |        tls: false 0x2509-0x2509.1 (0.1)
0x2500|                           00                  |         .      |        group: false 0x2509.1-0x2509.2 (0.1)
0x2500|                           00                  |         .      |        os_nonconforming: false 0x2509.2-0x2509.3 (0.1)
0x2500|                           00 00               |         ..     |        unused1: 0 0x2509.3-0x250a.4 (1.1)
0x2500|                              00 00            |          ..    |        os_specific: 0 0x250a.4-0x250b.4 (1)
0x2500|                                 00            |           .    |        processor_specific: 0 0x250b.4-0x250c (0.4)
0x2500|                                    00 00 00 00|            ....|        unused2: 0 0x250c-0x2510 (4)
0x2510|e0 05 00 00 00 00 00 00                        |........        |      addr: 0x5e0 0x2510-0x2518 (8)
0x2510|                        e0 05 00 00 00 00 00 00|        ........|      offset: 0x5e0 0x2518-0x2520 (8)
0x2520|10 00 00 00 00 00 00 00                        |........        |      size: 16 0x2520-0x2528 (8)
0x2520|                        00 00 00 00            |        ....    |      link: 0 0x2528-0x252c (4)
0x2520|                                    00 00 00 00|            ....|      info: 0 0x252c-0x2530 (4)
0x2530|04 00 00 00 00 00 00 00                        |........        |      addralign: 4 0x2530-0x2538 (8)
0x2530|                        00 00 00 00 00 00 00 00|        ........|      entsize: 0 0x2538-0x2540 (8)
      |                                               |                |    [8]{}: section_header 0x5f0-0x2580 (8080)
0x05f0|f0 7b bf a9 90 00 00 90 11 c2 47 f9 10 02 3e 91|.{........G...>.|      data: raw bits 0x5f0-0x670 (128)
*     |until 0x66f.7 (128)                            |                |
0x2540|4c 00 00 00                                    |L...            |      name: ".plt" (76) 0x2540-0x2544 (4)
0x2540|            01 00 00 00                        |    ....        |      type: "progbits" (0x1) (Information defined by the program) 0x2544-0x2548 (4)
      |                                               |                |      flags{}: 0x2548-0x2550 (8)
0x2540|                        06                     |        .       |        link_order: false 0x2548-0x2548.1 (0.1)
0x2540|                        06                     |        .       |        info_link: false 0x2548.1-0x2548.2 (0.1)
0x2540|                        06                     |        .       |        strings: false 0x2548.2-0x2548.3 (0.1)
0x2540|                        06                     |        .       |        merge: false 0x2548.3-0x2548.4 (0.1)
0x2540|                        06                     |        .       |        unused0: 0 0x2548.4-0x2548.5 (0.1)
0x2540|                        06                     |        .       |        execinstr: true 0x2548.5-0x2548.6 (0.1)
0x2540|                        06                     |        .       |        alloc: true 0x2548.6-0x2548.7 (0.1)
0x2540|                        06                     |        .       |        write: false 0x2548.7-0x2549 (0.1)
0x2540|                           00                  |         .      |        tls: false 0x2549-0x2549.1 (0.1)
0x2540|                           00                  |         .      |        group: false 0x2549.1-0x2549.2 (0.1)
0x2540|                           00                  |         .      |        os_nonconforming: false 0x2549.2-0x2549.3 (0.1)
0x2540|                           00 00               |         ..     |        unused1: 0 0x2549.3-0x254a.4 (1.1)
0x2540|                              00 00            |          ..    |        os_specific: 0 0x254a.4-0x254b.4 (1)
0x2540|                                 00            |           .    |        processor_specific: 0 0x254b.4-0x254c (0.4)
0x2540|                                    00 00 00 00|            ....|        unused2: 0 0x254c-0x2550 (4)
0x2550|f0 05 00 00 00 00 00 00                        |........        |      addr: 0x5f0 0x2550-0x2558 (8)
0x2550|                        f0 05 00 00 00 00 00 00|        ........|      offset: 0x5f0 0x2558-0x2560 (8)
0x2560|80 00 00 00 00 00 00 00                        |........        |      size: 128 0x2560-0x2568 (8)
0x2560|                        00 00 00 00            |        ....    |      link: 0 0x2568-0x256c (4)
0x2560|                                    00 00 00 00|            ....|      info: 0 0x256c-0x2570 (4)
0x2570|10 00 00 00 00 00 00 00                        |........        |      addralign: 16 0x2570-0x2578 (8)
0x2570|                        00 00 00 00 00 00 00 00|        ........|      entsize: 0 0x2578-0x2580 (8)
      |                                               |                |    [9]{}: section_header 0x670-0x25c0 (8016)
0x0670|1d 00 80 d2 1e 00 80 d2 e0 03 00 91 81 00 00 90|................|      data: raw bits 0x670-0x800 (400)
*     |until 0x7ff.7 (400)                            |                |
0x2580|57 00 00 00                                    |W...            |      name: ".text" (87) 0x2580-0x2584 (4)
0x2580|            01 00 00 00                        |    ....        |      type: "progbits" (0x1) (Information defined by the program) 0x2584-0x2588 (4)
      |                                               |                |      flags{}: 0x2588-0x2590 (8)
0x2580|                        06                     |        .       |        link_order: false 0x2588-0x2588.1 (0.1)
0x2580|                        06                     |        .       |        info_link: false 0x2588.1-0x2588.2 (0.1)
0x2580|                        06                     |        .       |        strings: false 0x2588.2-0x2588.3 (0.1)
0x2580|                        06                     |        .       |        merge: false 0x2588.3-0x2588.4 (0.1)
0x2580|                        06                     |        .       |        unused0: 0 0x2588.4-0x2588.5 (0.1)
0x2580|                        06                     |        .       |        execinstr: true 0x2588.5-0x2588.6 (0.1)
0x2580|                        06                     |        .       |        alloc: true 0x2588.6-0x2588.7 (0.1)
0x2580|                        06                     |        .       |        write: false 0x2588.7-0x2589 (0.1)
0x2580|                           00                  |         .      |        tls: false 0x2589-0x2589.1 (0.1)
0x2580|                           00                  |         .      |        group: false 0x2589.1-0x2589.2 (0.1)
0x2580|                           00                  |         .      |        os_nonconforming: false 0x2589.2-0x2589.3 (0.1)
0x2580|                           00 00               |         ..     |        unused1: 0 0x2589.3-0x258a.4 (1.1)
0x2580|                              00 00            |          ..    |        os_specific: 0 0x258a.4-0x258b.4 (1)
0x2580|                                 00            |           .    |        processor_specific: 0 0x258b.4-0x258c (0.4)
0x2580|                                    00 00 00 00|            ....|        unused2: 0 0x258c-0x2590 (4)
0x2590|70 06 00 00 00 00 00 00                        |p.......        |      addr: 0x670 0x2590-0x2598 (8)
0x2590|                        70 06 00 00 00 00 00 00|        p.......|      offset: 0x670 0x2598-0x25a0 (8)
0x25a0|90 01 00 00 00 00 00 00                        |........        |      size: 400 0x25a0-0x25a8 (8)
0x25a0|                        00 00 00 00            |        ....    |      link: 0 0x25a8-0x25ac (4)
0x25a0|                                    00 00 00 00|            ....|      info: 0 0x25ac-0x25b0 (4)
0x25b0|10 00 00 00 00 00 00 00                        |........        |      addralign: 16 0x25b0-0x25b8 (8)
0x25b0|                        00 00 00 00 00 00 00 00|        ........|      entsize: 0 0x25b8-0x25c0 (8)
      |                                               |                |    [10]{}: section_header 0x800-0x2600 (7680)
0x0800|fd 7b bf a9 fd 03 00 91 fd 7b c1 a8 c0 03 5f d6|.{.......{...._.|      data: raw bits 0x800-0x810 (16)
0x25c0|5d 00 00 00                                    |]...            |      name: ".fini" (93) 0x25c0-0x25c4 (4)
0x25c0|            01 00 00 00                        |    ....        |      type: "progbits" (0x1) (Information defined by the program) 0x25c4-0x25c8 (4)
      |                                               |                |      flags{}: 0x25c8-0x25d0 (8)
0x25c0|                        06                     |        .       |        link_order: false 0x25c8-0x25c8.1 (0.1)
0x25c0|                        06                     |        .       |        info_link: false 0x25c8.1-0x25c8.2 (0.1)
0x25c0|                        06                     |        .       |        strings: false 0x25c8.2-0x25c8.3 (0.1)
0x25c0|                        06                     |        .       |        merge: false 0x25c8.3-0x25c8.4 (0.1)
0x25c0|                        06                     |        .       |        unused0: 0 0x25c8.4-0x25c8.5 (0.1)
0x25c0|                        06                     |        .       |        execinstr: true 0x25c8.5-0x25c8.6 (0.1)
0x25c0|                        06                     |        .       |        alloc: true 0x25c8.6-0x25c8.7 (0.1)
0x25c0|                        06                     |        .       |        write: false 0x25c8.7-0x25c9 (0.1)
0x25c0|                           00                  |         .      |        tls: false 0x25c9-0x25c9.1 (0.1)
0x25c0|                           00                  |         .      |        group: false 0x25c9.1-0x25c9.2 (0.1)
0x25c0|                           00                  |         .      |        os_nonconforming: false 0x25c9.2-0x25c9.3 (0.1)
0x25c0|                           00 00               |         ..     |        unused1: 0 0x25c9.3-0x25ca.4 (1.1)
0x25c0|                              00 00            |          ..    |        os_specific: 0 0x25ca.4-0x25cb.4 (1)
0x25c0|                                 00            |           .    |        processor_specific: 0 0x25cb.4-0x25cc (0.4)
0x25c0|                                    00 00 00 00|            ....|        unused2: 0 0x25cc-0x25d0 (4)
0x25d0|00 08 00 00 00 00 00 00                        |........        |      addr: 0x800 0x25d0-0x25d8 (8)
0x25d0|                        00 08 00 00 00 00 00 00|        ........|      offset: 0x800 0x25d8-0x25e0 (8)
0x25e0|10 00 00 00 00 00 00 00                        |........        |      size: 16 0x25e0-0x25e8 (8)
0x25e0|                        00 00 00 00            |        ....    |      link: 0 0x25e8-0x25ec (4)
0x25e0|                                    00 00 00 00|            ....|      info: 0 0x25ec-0x25f0 (4)
0x25f0|04 00 00 00 00 00 00 00                        |........        |      addralign: 4 0x25f0-0x25f8 (8)
0x25f0|                        00 00 00 00 00 00 00 00|        ........|      entsize: 0 0x25f8-0x2600 (8)
      |                                               |                |    [11]{}: section_header 0x810-0x2640 (7728)
0x0810|61 61 61 00                                    |aaa.            |      data: raw bits 0x810-0x814 (4)
0x2600|63 00 00 00                                    |c...            |      name: ".rodata" (99) 0x2600-0x2604 (4)
0x2600|            01 00 00 00                        |    ....        |      type: "progbits" (0x1) (Information defined by the program) 0x2604-0x2608 (4)
      |                                               |                |      flags{}: 0x2608-0x2610 (8)
0x2600|                        02                     |        .       |        link_order: false 0x2608-0x2608.1 (0.1)
0x2600|                        02                     |        .       |        info_link: false 0x2608.1-0x2608.2 (0.1)
0x2600|                        02                     |        .       |        strings: false 0x2608.2-0x2608.3 (0.1)
0x2600|                        02                     |        .       |        merge: false 0x2608.3-0x2608.4 (0.1)
0x2600|                        02                     |        .       |        unused0: 0 0x2608.4-0x2608.5 (0.1)
0x2600|                        02                     |        .       |        execinstr: false 0x2608.5-0x2608.6 (0.1)
0x2600|                        02                     |        .       |        alloc: true 0x2608.6-0x2608.7 (0.1)
0x2600|                        02                     |        .       |        write: false 0x2608.7-0x2609 (0.1)
0x2600|                           00                  |         .      |        tls: false 0x2609-0x2609.1 (0.1)
0x2600|                           00                  |         .      |        group: false 0x2609.1-0x2609.2 (0.1)
0x2600|                           00                  |         .      |        os_nonconforming: false 0x2609.2-0x2609.3 (0.1)
0x2600|                           00 00               |         ..     |        unused1: 0 0x2609.3-0x260a.4 (1.1)
0x2600|                              00 00            |          ..    |        os_specific: 0 0x260a.4-0x260b.4 (1)
0x2600|                                 00            |           .    |        processor_specific: 0 0x260b.4-0x260c (0.4)
0x2600|                                    00 00 00 00|            ....|        unused2: 0 0x260c-0x2610 (4)
0x2610|10 08 00 00 00 00 00 00                        |........        |      addr: 0x810 0x2610-0x2618 (8)
0x2610|                        10 08 00 00 00 00 00 00|        ........|      offset: 0x810 0x2618-0x2620 (8)
0x2620|04 00 00 00 00 00 00 00                        |........        |      size: 4 0x2620-0x2628 (8)
0x2620|                        00 00 00 00            |        ....    |      link: 0 0x2628-0x262c (4)
0x2620|                                    00 00 00 00|            ....|      info: 0 0x262c-0x2630 (4)
0x2630|08 00 00 00 00 00 00 00                        |........        |      addralign: 8 0x2630-0x2638 (8)
0x2630|                        00 00 00 00 00 00 00 00|        ........|      entsize: 0 0x2638-0x2640 (8)
      |                                               |                |    [12]{}: section_header 0x814-0x2680 (7788)
0x0810|            01 1b 03 3b 38 00 00 00 06 00 00 00|    ...;8.......|      data: raw bits 0x814-0x850 (60)
0x0820|ac fe ff ff 50 00 00 00 dc fe ff ff 64 00 00 00|....P.......d...|
*     |until 0x84f.7 (60)                             |                |
0x2640|6b 00 00 00                                    |k...            |      name: ".eh_frame_hdr" (107) 0x2640-0x2644 (4)
0x2640|            01 00 00 00                        |    ....        |      type: "progbits" (0x1) (Information defined by the program) 0x2644-0x2648 (4)
      |                                               |                |      flags{}: 0x2648-0x2650 (8)
0x2640|                        02                     |        .       |        link_order: false 0x2648-0x2648.1 (0.1)
0x2640|                        02                     |        .       |        info_link: false 0x2648.1-0x2648.2 (0.1)
0x2640|                        02                     |        .       |        strings: false 0x2648.2-0x2648.3 (0.1)
0x2640|                        02                     |        .       |        merge: false 0x2648.3-0x2648.4 (0.1)
0x2640|                        02                     |        .       |        unused0: 0 0x2648.4-0x2648.5 (0.1)
0x2640|                        02                     |        .       |        execinstr: false 0x2648.5-0x2648.6 (0.1)
0x2640|                        02                     |        .       |        alloc: true 0x2648.6-0x2648.7 (0.1)
0x2640|                        02                     |        .       |        write: false 0x2648.7-0x2649 (0.1)
0x2640|                           00                  |         .      |        tls: false 0x2649-0x2649.1 (0.1)
0x2640|                           00                  |         .      |        group: false 0x2649.1-0x2649.2 (0.1)
0x2640|                           00                  |         .      |        os_nonconforming: false 0x2649.2-0x2649.3 (0.1)
0x2640|                           00 00               |         ..     |        unused1: 0 0x2649.3-0x264a.4 (1.1)
0x2640|                              00 00            |          ..    |        os_specific: 0 0x264a.4-0x264b.4 (1)
0x2640|                                 00            |           .    |        processor_specific: 0 0x264b.4-0x264c (0.4)
0x2640|                                    00 00 00 00|            ....|        unused2: 0 0x264c-0x2650 (4)
0x2650|14 08 00 00 00 00 00 00                        |........        |      addr: 0x814 0x2650-0x2658 (8)
0x2650|                        14 08 00 00 00 00 00 00|        ........|      offset: 0x814 0x2658-0x2660 (8)
0x2660|3c 00 00 00 00 00 00 00                        |<.......        |      size: 60 0x2660-0x2668 (8)
0x2660|                        00 00 00 00            |        ....    |      link: 0 0x2668-0x266c (4)
0x2660|                                    00 00 00 00|            ....|      info: 0 0x266c-0x2670 (4)
0x2670|04 00 00 00 00 00 00 00                        |........        |      addralign: 4 0x2670-0x2678 (8)
0x2670|                        00 00 00 00 00 00 00 00|        ........|      entsize: 0 0x2678-0x2680 (8)
      |                                               |                |    [13]{}: section_header 0x850-0x26c0 (7792)
0x0850|10 00 00 00 00 00 00 00 01 7a 52 00 04 78 1e 01|.........zR..x..|      data: raw bits 0x850-0x914 (196)
*     |until 0x913.7 (196)                            |                |
0x2680|79 00 00 00                                    |y...            |      name: ".eh_frame" (121) 0x2680-0x2684 (4)
0x2680|            01 00 00 00                        |    ....        |      type: "progbits" (0x1) (Information defined by the program) 0x2684-0x2688 (4)
      |                                               |                |      flags{}: 0x2688-0x2690 (8)
0x2680|                        02                     |        .       |        link_order: false 0x2688-0x2688.1 (0.1)
0x2680|                        02                     |        .       |        info_link: false 0x2688.1-0x2688.2 (0.1)
0x2680|                        02                     |        .       |        strings: false 0x2688.2-0x2688.3 (0.1)
0x2680|                        02                     |        .       |        merge: false 0x2688.3-0x2688.4 (0.1)
0x2680|                        02                     |        .       |        unused0: 0 0x2688.4-0x2688.5 (0.1)
0x2680|                        02                     |        .       |        execinstr: false 0x2688.5-0x2688.6 (0.1)
0x2680|                        02                     |        .       |        alloc: true 0x2688.6-0x2688.7 (0.1)
0x2680|                        02                     |        .       |        write: false 0x2688.7-0x2689 (0.1)
0x2680|                           00                  |         .      |        tls: false 0x2689-0x2689.1 (0.1)
0x2680|                           00                  |         .      |        group: false 0x2689.1-0x2689.2 (0.1)
0x2680|                           00                  |         .      |        os_nonconforming: false 0x2689.2-0x2689.3 (0.1)
0x2680|                           00 00               |         ..     |        unused1: 0 0x2689.3-0x268a.4 (1.1)
0x2680|                              00 00            |          ..    |        os_specific: 0 0x268a.4-0x268b.4 (1)
0x2680|                                 00            |           .    |        processor_specific: 0 0x268b.4-0x268c (0.4)
0x2680|                                    00 00 00 00|            ....|        unused2: 0 0x268c-0x2690 (4)
0x2690|50 08 00 00 00 00 00 00                        |P.......        |      addr: 0x850 0x2690-0x2698 (8)
0x2690|                        50 08 00 00 00 00 00 00|        P.......|      offset: 0x850 0x2698-0x26a0 (8)
0x26a0|c4 00 00 00 00 00 00 00                        |........        |      size: 196 0x26a0-0x26a8 (8)
0x26a0|                        00 00 00 00            |        ....    |      link: 0 0x26a8-0x26ac (4)
0x26a0|                                    00 00 00 00|            ....|      info: 0 0x26ac-0x26b0 (4)
0x26b0|08 00 00 00 00 00 00 00                        |........        |      addralign: 8 0x26b0-0x26b8 (8)
0x26b0|                        00 00 00 00 00 00 00 00|        ........|      entsize: 0 0x26b8-0x26c0 (8)
      |                                               |                |    [14]{}: section_header 0xd90-0x2700 (6512)
0x0d90|90 07 00 00 00 00 00 00                        |........        |      data: raw bits 0xd90-0xd98 (8)
0x26c0|83 00 00 00                                    |....            |      name: ".init_array" (131) 0x26c0-0x26c4 (4)
0x26c0|            0e 00 00 00                        |    ....        |      type: "init_array" (0xe) (Initialization functions) 0x26c4-0x26c8 (4)
      |                                               |                |      flags{}: 0x26c8-0x26d0 (8)
0x26c0|                        03                     |        .       |        link_order: false 0x26c8-0x26c8.1 (0.1)
0x26c0|                        03                     |        .       |        info_link: false 0x26c8.1-0x26c8.2 (0.1)
0x26c0|                        03                     |        .       |        strings: false 0x26c8.2-0x26c8.3 (0.1)
0x26c0|                        03                     |        .       |        merge: false 0x26c8.3-0x26c8.4 (0.1)
0x26c0|                        03                     |        .       |        unused0: 0 0x26c8.4-0x26c8.5 (0.1)
0x26c0|                        03                     |        .       |        execinstr: false 0x26c8.5-0x26c8.6 (0.1)
0x26c0|                        03                     |        .       |        alloc: true 0x26c8.6-0x26c8.7 (0.1)
0x26c0|                        03                     |        .       |        write: true 0x26c8.7-0x26c9 (0.1)
0x26c0|                           00                  |         .      |        tls: false 0x26c9-0x26c9.1 (0.1)
0x26c0|                           00                  |         .      |        group: false 0x26c9.1-0x26c9.2 (0.1)
0x26c0|                           00                  |         .      |        os_nonconforming: false 0x26c9.2-0x26c9.3 (0.1)
0x26c0|                           00 00               |         ..     |        unused1: 0 0x26c9.3-0x26ca.4 (1.1)
0x26c0|                              00 00            |          ..    |        os_specific: 0 0x26ca.4-0x26cb.4 (1)
0x26c0|                                 00            |           .    |        processor_specific: 0 0x26cb.4-0x26cc (0.4)
0x26c0|                                    00 00 00 00|            ....|        unused2: 0 0x26cc-0x26d0 (4)
0x26d0|90 0d 01 00 00 00 00 00                        |........        |      addr: 0x10d90 0x26d0-0x26d8 (8)
0x26d0|                        90 0d 00 00 00 00 00 00|        ........|      offset: 0xd90 0x26d8-0x26e0 (8)
0x26e0|08 00 00 00 00 00 00 00                        |........        |      size: 8 0x26e0-0x26e8 (8)
0x26e0|                        00 00 00 00            |        ....    |      link: 0 0x26e8-0x26ec (4)
0x26e0|                                    00 00 00 00|            ....|      info: 0 0x26ec-0x26f0 (4)
0x26f0|08 00 00 00 00 00 00 00                        |........        |      addralign: 8 0x26f0-0x26f8 (8)
0x26f0|                        08 00 00 00 00 00 00 00|        ........|      entsize: 8 0x26f8-0x2700 (8)
      |                                               |                |    [15]{}: section_header 0xd98-0x2740 (6568)
0x0d90|                        30 07 00 00 00 00 00 00|        0.......|      data: raw bits 0xd98-0xda0 (8)
0x2700|8f 00 00 00                                    |....            |      name: ".fini_array" (143) 0x2700-0x2704 (4)
0x2700|            0f 00 00 00                        |    ....        |      type: "fini_array" (0xf) (Termination functions) 0x2704-0x2708 (4)
      |                                               |                |      flags{}: 0x2708-0x2710 (8)
0x2700|                        03                     |        .       |        link_order: false 0x2708-0x2708.1 (0.1)
0x2700|                        03                     |        .       |        info_link: false 0x2708.1-0x2708.2 (0.1)
0x2700|                        03                     |        .       |        strings: false 0x2708.2-0x2708.3 (0.1)
0x2700|                        03                     |        .       |        merge: false 0x2708.3-0x2708.4 (0.1)
0x2700|                        03                     |        .       |        unused0: 0 0x2708.4-0x2708.5 (0.1)
0x2700|                        03                     |        .       |        execinstr: false 0x2708.5-0x2708.6 (0.1)
0x2700|                        03                     |        .       |        alloc: true 0x2708.6-0x2708.7 (0.1)
0x2700|                        03                     |        .       |        write: true 0x2708.7-0x2709 (0.1)
0x2700|                           00                  |         .      |        tls: false 0x2709-0x2709.1 (0.1)
0x2700|                           00                  |         .      |        group: false 0x2709.1-0x2709.2 (0.1)
0x2700|                           00                  |         .      |        os_nonconforming: false 0x2709.2-0x2709.3 (0.1)
0x2700|                           00 00               |         ..     |        unused1: 0 0x2709.3-0x270a.4 (1.1)
0x2700|                              00 00            |          ..    |        os_specific: 0 0x270a.4-0x270b.4 (1)
0x2700|                                 00            |           .    |        processor_specific: 0 0x270b.4-0x270c (0.4)
0x2700|                                    00 00 00 00|            ....|        unused2: 0 0x270c-0x2710 (4)
0x2710|98 0d 01 00 00 00 00 00                        |........        |      addr: 0x10d98 0x2710-0x2718 (8)
0x2710|                        98 0d 00 00 00 00 00 00|        ........|      offset: 0xd98 0x2718-0x2720 (8)
0x2720|08 00 00 00 00 00 00 00                        |........        |      size: 8 0x2720-0x2728 (8)
0x2720|                        00 00 00 00            |        ....    |      link: 0 0x2728-0x272c (4)
0x2720|                                    00 00 00 00|            ....|      info: 0 0x272c-0x2730 (4)
0x2730|08 00 00 00 00 00 00 00                        |........        |      addralign: 8 0x2730-0x2738 (8)
0x2730|                        08 00 00 00 00 00 00 00|        ........|      entsize: 8 0x2738-0x2740 (8)
      |                                               |                |    [16]{}: section_header 0xda0-0x2780 (6624)
      |                                               |                |      dynamic_tags[0:25]: 0xda0-0xf30 (400)
      |                                               |                |        [0]{}: dynamic_tags 0xda0-0xdb0 (16)
0x0da0|01 00 00 00 00 00 00 00                        |........        |          tag: "needed" (1) (String table offset to name of a needed library) 0xda0-0xda8 (8)
0x0da0|                        a2 00 00 00 00 00 00 00|        ........|          val: "libbbb.so" (162) 0xda8-0xdb0 (8)
      |                                               |                |        [1]{}: dynamic_tags 0xdb0-0xdc0 (16)
0x0db0|01 00 00 00 00 00 00 00                        |........        |          tag: "needed" (1) (String table offset to name of a needed library) 0xdb0-0xdb8 (8)
0x0db0|                        ac 00 00 00 00 00 00 00|        ........|          val: "libc.musl-aarch64.so.1" (172) 0xdb8-0xdc0 (8)
      |                                               |                |        [2]{}: dynamic_tags 0xdc0-0xdd0 (16)
0x0dc0|0c 00 00 00 00 00 00 00                        |........        |          tag: "init" (12) (Address of the initialization function) 0xdc0-0xdc8 (8)
0x0dc0|                        e0 05 00 00 00 00 00 00|        ........|          ptr: 0x5e0 0xdc8-0xdd0 (8)
      |                                               |                |          section_index: 7
      |                                               |                |        [3]{}: dynamic_tags 0xdd0-0xde0 (16)
0x0dd0|0d 00 00 00 00 00 00 00                        |........        |          tag: "fini" (13) (Address of the termination function) 0xdd0-0xdd8 (8)
0x0dd0|                        00 08 00 00 00 00 00 00|        ........|          ptr: 0x800 0xdd8-0xde0 (8)
      |                                               |                |          section_index: 10
      |                                               |                |        [4]{}: dynamic_tags 0xde0-0xdf0 (16)
0x0de0|19 00 00 00 00 00 00 00                        |........        |          tag: "init_array" (25) (Address of the array of pointers to initialization functions) 0xde0-0xde8 (8)
0x0de0|                        90 0d 01 00 00 00 00 00|        ........|          ptr: 0x10d90 0xde8-0xdf0 (8)
      |                                               |                |        [5]{}: dynamic_tags 0xdf0-0xe00 (16)
0x0df0|1b 00 00 00 00 00 00 00                        |........        |          tag: "init_arraysz" (27) (Size in bytes of the array of initialization functions) 0xdf0-0xdf8 (8)
0x0df0|                        08 00 00 00 00 00 00 00|        ........|          val: 8 0xdf8-0xe00 (8)
      |                                               |                |        [6]{}: dynamic_tags 0xe00-0xe10 (16)
0x0e00|1a 00 00 00 00 00 00 00                        |........        |          tag: "fini_array" (26) (Address of the array of pointers to termination functions) 0xe00-0xe08 (8)
0x0e00|                        98 0d 01 00 00 00 00 00|        ........|          ptr: 0x10d98 0xe08-0xe10 (8)
      |                                               |                |        [7]{}: dynamic_tags 0xe10-0xe20 (16)
0x0e10|1c 00 00 00 00 00 00 00                        |........        |          tag: "fini_arraysz" (28) (Size in bytes of the array of termination functions ) 0xe10-0xe18 (8)
0x0e10|                        08 00 00 00 00 00 00 00|        ........|          val: 8 0xe18-0xe20 (8)
      |                                               |                |        [8]{}: dynamic_tags 0xe20-0xe30 (16)
0x0e20|f5 fe ff 6f 00 00 00 00                        |...o....        |          tag: 1879047925 0xe20-0xe28 (8)
0x0e20|                        20 02 00 00 00 00 00 00|         .......|          unspecified: 0x220 0xe28-0xe30 (8)
      |                                               |                |        [9]{}: dynamic_tags 0xe30-0xe40 (16)
0x0e30|05 00 00 00 00 00 00 00                        |........        |          tag: "strtab" (5) (Address of string table) 0xe30-0xe38 (8)
0x0e30|                        80 03 00 00 00 00 00 00|        ........|          ptr: 0x380 0xe38-0xe40 (8)
      |                                               |                |          section_index: 4
      |                                               |                |        [10]{}: dynamic_tags 0xe40-0xe50 (16)
0x0e40|06 00 00 00 00 00 00 00                        |........        |          tag: "symtab" (6) (Address of symbol table) 0xe40-0xe48 (8)
0x0e40|                        48 02 00 00 00 00 00 00|        H.......|          ptr: 0x248 0xe48-0xe50 (8)
      |                                               |                |          section_index: 3
      |                                               |                |        [11]{}: dynamic_tags 0xe50-0xe60 (16)
0x0e50|0a 00 00 00 00 00 00 00                        |........        |          tag: "strsz" (10) (Size in bytes of string table) 0xe50-0xe58 (8)
0x0e50|                        c3 00 00 00 00 00 00 00|        ........|          val: 195 0xe58-0xe60 (8)
      |                                               |                |        [12]{}: dynamic_tags 0xe60-0xe70 (16)
0x0e60|0b 00 00 00 00 00 00 00                        |........        |          tag: "syment" (11) (Size in bytes of a symbol table entry) 0xe60-0xe68 (8)
0x0e60|                        18 00 00 00 00 00 00 00|        ........|          val: 24 0xe68-0xe70 (8)
      |                                               |                |        [13]{}: dynamic_tags 0xe70-0xe80 (16)
0x0e70|15 00 00 00 00 00 00 00                        |........        |          tag: "debug" (21) (Undefined use for debugging) 0xe70-0xe78 (8)
0x0e70|                        00 00 00 00 00 00 00 00|        ........|          ptr: 0x0 0xe78-0xe80 (8)
      |                                               |                |        [14]{}: dynamic_tags 0xe80-0xe90 (16)
0x0e80|03 00 00 00 00 00 00 00                        |........        |          tag: "pltgot" (3) (Address of PLT and/or GOT) 0xe80-0xe88 (8)
0x0e80|                        70 0f 01 00 00 00 00 00|        p.......|          ptr: 0x10f70 0xe88-0xe90 (8)
      |                                               |                |          section_index: 17
      |                                               |                |        [15]{}: dynamic_tags 0xe90-0xea0 (16)
0x0e90|02 00 00 00 00 00 00 00                        |........        |          tag: "pltrelsz" (2) (Size in bytes of PLT relocation entries) 0xe90-0xe98 (8)
0x0e90|                        90 00 00 00 00 00 00 00|        ........|          val: 144 0xe98-0xea0 (8)
      |                                               |                |        [16]{}: dynamic_tags 0xea0-0xeb0 (16)
0x0ea0|14 00 00 00 00 00 00 00                        |........        |          tag: "pltrel" (20) (Type of relocation entry to which the PLT refers (Rela or Rel)) 0xea0-0xea8 (8)
0x0ea0|                        07 00 00 00 00 00 00 00|        ........|          val: 7 0xea8-0xeb0 (8)
      |                                               |                |        [17]{}: dynamic_tags 0xeb0-0xec0 (16)
0x0eb0|17 00 00 00 00 00 00 00                        |........        |          tag: "jmprel" (23) (Address of relocation entries associated solely with the PLT) 0xeb0-0xeb8 (8)
0x0eb0|                        50 05 00 00 00 00 00 00|        P.......|          ptr: 0x550 0xeb8-0xec0 (8)
      |                                               |                |          section_index: 6
      |                                               |                |        [18]{}: dynamic_tags 0xec0-0xed0 (16)
0x0ec0|07 00 00 00 00 00 00 00                        |........        |          tag: "rela" (7) (Address of Rela relocation table) 0xec0-0xec8 (8)
0x0ec0|                        48 04 00 00 00 00 00 00|        H.......|          ptr: 0x448 0xec8-0xed0 (8)
      |                                               |                |        [19]{}: dynamic_tags 0xed0-0xee0 (16)
0x0ed0|08 00 00 00 00 00 00 00                        |........        |          tag: "relasz" (8) (Size in bytes of the Rela relocation table) 0xed0-0xed8 (8)
0x0ed0|                        08 01 00 00 00 00 00 00|        ........|          val: 264 0xed8-0xee0 (8)
      |                                               |                |        [20]{}: dynamic_tags 0xee0-0xef0 (16)
0x0ee0|09 00 00 00 00 00 00 00                        |........        |          tag: "relaent" (9) (Size in bytes of a Rela relocation table entry) 0xee0-0xee8 (8)
0x0ee0|                        18 00 00 00 00 00 00 00|        ........|          val: 24 0xee8-0xef0 (8)
      |                                               |                |        [21]{}: dynamic_tags 0xef0-0xf00 (16)
0x0ef0|18 00 00 00 00 00 00 00                        |........        |          tag: "bind_now" (24) (Instruct dynamic linker to process all relocations before transferring control to the executable) 0xef0-0xef8 (8)
0x0ef0|                        00 00 00 00 00 00 00 00|        ........|          ignored: 0x0 0xef8-0xf00 (8)
      |                                               |                |        [22]{}: dynamic_tags 0xf00-0xf10 (16)
0x0f00|fb ff ff 6f 00 00 00 00                        |...o....        |          tag: 1879048187 0xf00-0xf08 (8)
0x0f00|                        01 00 00 08 00 00 00 00|        ........|          unspecified: 0x8000001 0xf08-0xf10 (8)
      |                                               |                |        [23]{}: dynamic_tags 0xf10-0xf20 (16)
0x0f10|f9 ff ff 6f 00 00 00 00                        |...o....        |          tag: 1879048185 0xf10-0xf18 (8)
0x0f10|                        06 00 00 00 00 00 00 00|        ........|          unspecified: 0x6 0xf18-0xf20 (8)
      |                                               |                |        [24]{}: dynamic_tags 0xf20-0xf30 (16)
0x0f20|00 00 00 00 00 00 00 00                        |........        |          tag: "null" (0) (Marks end of dynamic section) 0xf20-0xf28 (8)
0x0f20|                        00 00 00 00 00 00 00 00|        ........|          ignored: 0x0 0xf28-0xf30 (8)
0x2740|9b 00 00 00                                    |....            |      name: ".dynamic" (155) 0x2740-0x2744 (4)
0x2740|            06 00 00 00                        |    ....        |      type: "dynamic" (0x6) (Information for dynamic linking) 0x2744-0x2748 (4)
      |                                               |                |      flags{}: 0x2748-0x2750 (8)
0x2740|                        03                     |        .       |        link_order: false 0x2748-0x2748.1 (0.1)
0x2740|                        03                     |        .       |        info_link: false 0x2748.1-0x2748.2 (0.1)
0x2740|                        03                     |        .       |        strings: false 0x2748.2-0x2748.3 (0.1)
0x2740|                        03                     |        .       |        merge: false 0x2748.3-0x2748.4 (0.1)
0x2740|                        03                     |        .       |        unused0: 0 0x2748.4-0x2748.5 (0.1)
0x2740|                        03                     |        .       |        execinstr: false 0x2748.5-0x2748.6 (0.1)
0x2740|                        03                     |        .       |        alloc: true 0x2748.6-0x2748.7 (0.1)
0x2740|                        03                     |        .       |        write: true 0x2748.7-0x2749 (0.1)
0x2740|                           00                  |         .      |        tls: false 0x2749-0x2749.1 (0.1)
0x2740|                           00                  |         .      |        group: false 0x2749.1-0x2749.2 (0.1)
0x2740|                           00                  |         .      |        os_nonconforming: false 0x2749.2-0x2749.3 (0.1)
0x2740|                           00 00               |         ..     |        unused1: 0 0x2749.3-0x274a.4 (1.1)
0x2740|                              00 00            |          ..    |        os_specific: 0 0x274a.4-0x274b.4 (1)
0x2740|                                 00            |           .    |        processor_specific: 0 0x274b.4-0x274c (0.4)
0x2740|                                    00 00 00 00|            ....|        unused2: 0 0x274c-0x2750 (4)
0x2750|a0 0d 01 00 00 00 00 00                        |........        |      addr: 0x10da0 0x2750-0x2758 (8)
0x2750|                        a0 0d 00 00 00 00 00 00|        ........|      offset: 0xda0 0x2758-0x2760 (8)
0x2760|d0 01 00 00 00 00 00 00                        |........        |      size: 464 0x2760-0x2768 (8)
0x2760|                        04 00 00 00            |        ....    |      link: 4 0x2768-0x276c (4)
0x2760|                                    00 00 00 00|            ....|      info: 0 0x276c-0x2770 (4)
0x2770|08 00 00 00 00 00 00 00                        |........        |      addralign: 8 0x2770-0x2778 (8)
0x2770|                        10 00 00 00 00 00 00 00|        ........|      entsize: 16 0x2778-0x2780 (8)
      |                                               |                |    [17]{}: section_header 0xf70-0x27c0 (6224)
0x0f70|00 00 00 00 00 00 00 00 00 00 00 00 00 00 00 00|................|      data: raw bits 0xf70-0x1000 (144)
*     |until 0xfff.7 (144)                            |                |
0x2780|a4 00 00 00                                    |....            |      name: ".got" (164) 0x2780-0x2784 (4)
0x2780|            01 00 00 00                        |    ....        |      type: "progbits" (0x1) (Information defined by the program) 0x2784-0x2788 (4)
      |                                               |                |      flags{}: 0x2788-0x2790 (8)
0x2780|                        03                     |        .       |        link_order: false 0x2788-0x2788.1 (0.1)
0x2780|                        03                     |        .       |        info_link: false 0x2788.1-0x2788.2 (0.1)
0x2780|                        03                     |        .       |        strings: false 0x2788.2-0x2788.3 (0.1)
0x2780|                        03                     |        .       |        merge: false 0x2788.3-0x2788.4 (0.1)
0x2780|                        03                     |        .       |        unused0: 0 0x2788.4-0x2788.5 (0.1)
0x2780|                        03                     |        .       |        execinstr: false 0x2788.5-0x2788.6 (0.1)
0x2780|                        03                     |        .       |        alloc: true 0x2788.6-0x2788.7 (0.1)
0x2780|                        03                     |        .       |        write: true 0x2788.7-0x2789 (0.1)
0x2780|                           00                  |         .      |        tls: false 0x2789-0x2789.1 (0.1)
0x2780|                           00                  |         .      |        group: false 0x2789.1-0x2789.2 (0.1)
0x2780|                           00                  |         .      |        os_nonconforming: false 0x2789.2-0x2789.3 (0.1)
0x2780|                           00 00               |         ..     |        unused1: 0 0x2789.3-0x278a.4 (1.1)
0x2780|                              00 00            |          ..    |        os_specific: 0 0x278a.4-0x278b.4 (1)
0x2780|                                 00            |           .    |        processor_specific: 0 0x278b.4-0x278c (0.4)
0x2780|                                    00 00 00 00|            ....|        unused2: 0 0x278c-0x2790 (4)
0x2790|70 0f 01 00 00 00 00 00                        |p.......        |      addr: 0x10f70 0x2790-0x2798 (8)
0x2790|                        70 0f 00 00 00 00 00 00|        p.......|      offset: 0xf70 0x2798-0x27a0 (8)
0x27a0|90 00 00 00 00 00 00 00                        |........        |      size: 144 0x27a0-0x27a8 (8)
0x27a0|                        00 00 00 00            |        ....    |      link: 0 0x27a8-0x27ac (4)
0x27a0|                                    00 00 00 00|            ....|      info: 0 0x27ac-0x27b0 (4)
0x27b0|08 00 00 00 00 00 00 00                        |........        |      addralign: 8 0x27b0-0x27b8 (8)
0x27b0|                        08 00 00 00 00 00 00 00|        ........|      entsize: 8 0x27b8-0x27c0 (8)
      |                                               |                |    [18]{}: section_header 0x1000-0x2800 (6144)
0x1000|00 10 01 00 00 00 00 00                        |........        |      data: raw bits 0x1000-0x1008 (8)
0x27c0|a9 00 00 00                                    |....            |      name: ".data" (169) 0x27c0-0x27c4 (4)
0x27c0|            01 00 00 00                        |    ....        |      type: "progbits" (0x1) (Information defined by the program) 0x27c4-0x27c8 (4)
      |                                               |                |      flags{}: 0x27c8-0x27d0 (8)
0x27c0|                        03                     |        .       |        link_order: false 0x27c8-0x27c8.1 (0.1)
0x27c0|                        03                     |        .       |        info_link: false 0x27c8.1-0x27c8.2 (0.1)
0x27c0|                        03                     |        .       |        strings: false 0x27c8.2-0x27c8.3 (0.1)
0x27c0|                        03                     |        .       |        merge: false 0x27c8.3-0x27c8.4 (0.1)
0x27c0|                        03                     |        .       |        unused0: 0 0x27c8.4-0x27c8.5 (0.1)
0x27c0|                        03                     |        .       |        execinstr: false 0x27c8.5-0x27c8.6 (0.1)
0x27c0|                        03                     |        .       |        alloc: true 0x27c8.6-0x27c8.7 (0.1)
0x27c0|                        03                     |        .       |        write: true 0x27c8.7-0x27c9 (0.1)
0x27c0|                           00                  |         .      |        tls: false 0x27c9-0x27c9.1 (0.1)
0x27c0|                           00                  |         .      |        group: false 0x27c9.1-0x27c9.2 (0.1)
0x27c0|                           00                  |         .      |        os_nonconforming: false 0x27c9.2-0x27c9.3 (0.1)
0x27c0|                           00 00               |         ..     |        unused1: 0 0x27c9.3-0x27ca.4 (1.1)
0x27c0|                              00 00            |          ..    |        os_specific: 0 0x27ca.4-0x27cb.4 (1)
0x27c0|                                 00            |           .    |        processor_specific: 0 0x27cb.4-0x27cc (0.4)
0x27c0|                                    00 00 00 00|            ....|        unused2: 0 0x27cc-0x27d0 (4)
0x27d0|00 10 01 00 00 00 00 00                        |........        |      addr: 0x11000 0x27d0-0x27d8 (8)
0x27d0|                        00 10 00 00 00 00 00 00|        ........|      offset: 0x1000 0x27d8-0x27e0 (8)
0x27e0|08 00 00 00 00 00 00 00                        |........        |      size: 8 0x27e0-0x27e8 (8)
0x27e0|                        00 00 00 00            |        ....    |      link: 0 0x27e8-0x27ec (4)
0x27e0|                                    00 00 00 00|            ....|      info: 0 0x27ec-0x27f0 (4)
0x27f0|08 00 00 00 00 00 00 00                        |........        |      addralign: 8 0x27f0-0x27f8 (8)
0x27f0|                        00 00 00 00 00 00 00 00|        ........|      entsize: 0 0x27f8-0x2800 (8)
      |                                               |                |    [19]{}: section_header 0x2800-0x2840 (64)
0x2800|af 00 00 00                                    |....            |      name: ".bss" (175) 0x2800-0x2804 (4)
0x2800|            08 00 00 00                        |    ....        |      type: "nobits" (0x8) (No space in the file) 0x2804-0x2808 (4)
      |                                               |                |      flags{}: 0x2808-0x2810 (8)
0x2800|                        03                     |        .       |        link_order: false 0x2808-0x2808.1 (0.1)
0x2800|                        03                     |        .       |        info_link: false 0x2808.1-0x2808.2 (0.1)
0x2800|                        03                     |        .       |        strings: false 0x2808.2-0x2808.3 (0.1)
0x2800|                        03                     |        .       |        merge: false 0x2808.3-0x2808.4 (0.1)
0x2800|                        03                     |        .       |        unused0: 0 0x2808.4-0x2808.5 (0.1)
0x2800|                        03                     |        .       |        execinstr: false 0x2808.5-0x2808.6 (0.1)
0x2800|                        03                     |        .       |        alloc: true 0x2808.6-0x2808.7 (0.1)
0x2800|                        03                     |        .       |        write: true 0x2808.7-0x2809 (0.1)
0x2800|                           00                  |         .      |        tls: false 0x2809-0x2809.1 (0.1)
0x2800|                           00                  |         .      |        group: false 0x2809.1-0x2809.2 (0.1)
0x2800|                           00                  |         .      |        os_nonconforming: false 0x2809.2-0x2809.3 (0.1)
0x2800|                           00 00               |         ..     |        unused1: 0 0x2809.3-0x280a.4 (1.1)
0x2800|                              00 00            |          ..    |        os_specific: 0 0x280a.4-0x280b.4 (1)
0x2800|                                 00            |           .    |        processor_specific: 0 0x280b.4-0x280c (0.4)
0x2800|                                    00 00 00 00|            ....|        unused2: 0 0x280c-0x2810 (4)
0x2810|08 10 01 00 00 00 00 00                        |........        |      addr: 0x11008 0x2810-0x2818 (8)
0x2810|                        08 10 00 00 00 00 00 00|        ........|      offset: 0x1008 0x2818-0x2820 (8)
0x2820|38 00 00 00 00 00 00 00                        |8.......        |      size: 56 0x2820-0x2828 (8)
0x2820|                        00 00 00 00            |        ....    |      link: 0 0x2828-0x282c (4)
0x2820|                                    00 00 00 00|            ....|      info: 0 0x282c-0x2830 (4)
0x2830|08 00 00 00 00 00 00 00                        |........        |      addralign: 8 0x2830-0x2838 (8)
0x2830|                        00 00 00 00 00 00 00 00|        ........|      entsize: 0 0x2838-0x2840 (8)
      |                                               |                |    [20]{}: section_header 0x1008-0x2880 (6264)
0x1000|                        47 43 43 3a 20 28 41 6c|        GCC: (Al|      data: raw bits 0x1008-0x1039 (49)
0x1010|70 69 6e 65 20 31 30 2e 33 2e 31 5f 67 69 74 32|pine 10.3.1_git2|
*     |until 0x1038.7 (49)                            |                |
0x2840|b4 00 00 00                                    |....            |      name: ".comment" (180) 0x2840-0x2844 (4)
0x2840|            01 00 00 00                        |    ....        |      type: "progbits" (0x1) (Information defined by the program) 0x2844-0x2848 (4)
      |                                               |                |      flags{}: 0x2848-0x2850 (8)
0x2840|                        30                     |        0       |        link_order: false 0x2848-0x2848.1 (0.1)
0x2840|                        30                     |        0       |        info_link: false 0x2848.1-0x2848.2 (0.1)
0x2840|                        30                     |        0       |        strings: true 0x2848.2-0x2848.3 (0.1)
0x2840|                        30                     |        0       |        merge: true 0x2848.3-0x2848.4 (0.1)
0x2840|                        30                     |        0       |        unused0: 0 0x2848.4-0x2848.5 (0.1)
0x2840|                        30                     |        0       |        execinstr: false 0x2848.5-0x2848.6 (0.1)
0x2840|                        30                     |        0       |        alloc: false 0x2848.6-0x2848.7 (0.1)
0x2840|                        30                     |        0       |        write: false 0x2848.7-0x2849 (0.1)
0x2840|                           00                  |         .      |        tls: false 0x2849-0x2849.1 (0.1)
0x2840|                           00                  |         .      |        group: false 0x2849.1-0x2849.2 (0.1)
0x2840|                           00                  |         .      |        os_nonconforming: false 0x2849.2-0x2849.3 (0.1)
0x2840|                           00 00               |         ..     |        unused1: 0 0x2849.3-0x284a.4 (1.1)
0x2840|                              00 00            |          ..    |        os_specific: 0 0x284a.4-0x284b.4 (1)
0x2840|                                 00            |           .    |        processor_specific: 0 0x284b.4-0x284c (0.4)
0x2840|                                    00 00 00 00|            ....|        unused2: 0 0x284c-0x2850 (4)
0x2850|00 00 00 00 00 00 00 00                        |........        |      addr: 0x0 0x2850-0x2858 (8)
0x2850|                        08 10 00 00 00 00 00 00|        ........|      offset: 0x1008 0x2858-0x2860 (8)
0x2860|31 00 00 00 00 00 00 00                        |1.......        |      size: 49 0x2860-0x2868 (8)
0x2860|                        00 00 00 00            |        ....    |      link: 0 0x2868-0x286c (4)
0x2860|                                    00 00 00 00|            ....|      info: 0 0x286c-0x2870 (4)
0x2870|01 00 00 00 00 00 00 00                        |........        |      addralign: 1 0x2870-0x2878 (8)
0x2870|                        01 00 00 00 00 00 00 00|        ........|      entsize: 1 0x2878-0x2880 (8)
      |                                               |                |    [21]{}: section_header 0x1040-0x28c0 (6272)
0x1040|2c 00 00 00 02 00 00 00 00 00 08 00 00 00 00 00|,...............|      data: raw bits 0x1040-0x10f0 (176)
*     |until 0x10ef.7 (176)                           |                |
0x2880|bd 00 00 00                                    |....            |      name: ".debug_aranges" (189) 0x2880-0x2884 (4)
0x2880|            01 00 00 00                        |    ....        |      type: "progbits" (0x1) (Information defined by the program) 0x2884-0x2888 (4)
      |                                               |                |      flags{}: 0x2888-0x2890 (8)
0x2880|                        00                     |        .       |        link_order: false 0x2888-0x2888.1 (0.1)
0x2880|                        00                     |        .       |        info_link: false 0x2888.1-0x2888.2 (0.1)
0x2880|                        00                     |        .       |        strings: false 0x2888.2-0x2888.3 (0.1)
0x2880|                        00                     |        .       |        merge: false 0x2888.3-0x2888.4 (0.1)
0x2880|                        00                     |        .       |        unused0: 0 0x2888.4-0x2888.5 (0.1)
0x2880|                        00                     |        .       |        execinstr: false 0x2888.5-0x2888.6 (0.1)
0x2880|                        00                     |        .       |        alloc: false 0x2888.6-0x2888.7 (0.1)
0x2880|                        00                     |        .       |        write: false 0x2888.7-0x2889 (0.1)
0x2880|                           00                  |         .      |        tls: false 0x2889-0x2889.1 (0.1)
0x2880|                           00                  |         .      |        group: false 0x2889.1-0x2889.2 (0.1)
0x2880|                           00                  |         .      |        os_nonconforming: false 0x2889.2-0x2889.3 (0.1)
0x2880|                           00 00               |         ..     |        unused1: 0 0x2889.3-0x288a.4 (1.1)
0x2880|                              00 00            |          ..    |        os_specific: 0 0x288a.4-0x288b.4 (1)
0x2880|                                 00            |           .    |        processor_specific: 0 0x288b.4-0x288c (0.4)
0x2880|                                    00 00 00 00|            ....|        unused2: 0 0x288c-0x2890 (4)
0x2890|00 00 00 00 00 00 00 00                        |........        |      addr: 0x0 0x2890-0x2898 (8)
0x2890|                        40 10 00 00 00 00 00 00|        @.......|      offset: 0x1040 0x2898-0x28a0 (8)
0x28a0|b0 00 00 00 00 00 00 00                        |........        |      size: 176 0x28a0-0x28a8 (8)
0x28a0|                        00 00 00 00            |        ....    |      link: 0 0x28a8-0x28ac (4)
0x28a0|                                    00 00 00 00|            ....|      info: 0 0x28ac-0x28b0 (4)
0x28b0|10 00 00 00 00 00 00 00                        |........        |      addralign: 16 0x28b0-0x28b8 (8)
0x28b0|                        00 00 00 00 00 00 00 00|        ........|      entsize: 0 0x28b8-0x28c0 (8)
      |                                               |                |    [22]{}: section_header 0x10f0-0x2900 (6160)
0x10f0|f1 00 00 00 04 00 00 00 00 00 08 01 2e 00 00 00|................|      data: raw bits 0x10f0-0x1229 (313)
*     |until 0x1228.7 (313)                           |                |
0x28c0|cc 00 00 00                                    |....            |      name: ".debug_info" (204) 0x28c0-0x28c4 (4)
0x28c0|            01 00 00 00                        |    ....        |      type: "progbits" (0x1) (Information defined by the program) 0x28c4-0x28c8 (4)
      |                                               |                |      flags{}: 0x28c8-0x28d0 (8)
0x28c0|                        00                     |        .       |        link_order: false 0x28c8-0x28c8.1 (0.1)
0x28c0|                        00                     |        .       |        info_link: false 0x28c8.1-0x28c8.2 (0.1)
0x28c0|                        00                     |        .       |        strings: false 0x28c8.2-0x28c8.3 (0.1)
0x28c0|                        00                     |        .       |        merge: false 0x28c8.3-0x28c8.4 (0.1)
0x28c0|                        00                     |        .       |        unused0: 0 0x28c8.4-0x28c8.5 (0.1)
0x28c0|                        00                     |        .       |        execinstr: false 0x28c8.5-0x28c8.6 (0.1)
0x28c0|                        00                     |        .       |        alloc: false 0x28c8.6-0x28c8.7 (0.1)
0x28c0|                        00                     |        .       |        write: false 0x28c8.7-0x28c9 (0.1)
0x28c0|                           00                  |         .      |        tls: false 0x28c9-0x28c9.1 (0.1)
0x28c0|                           00                  |         .      |        group: false 0x28c9.1-0x28c9.2 (0.1)
0x28c0|                           00                  |         .      |        os_nonconforming: false 0x28c9.2-0x28c9.3 (0.1)
0x28c0|                           00 00               |         ..     |        unused1: 0 0x28c9.3-0x28ca.4 (1.1)
0x28c0|                              00 00            |          ..    |        os_specific: 0 0x28ca.4-0x28cb.4 (1)
0x28c0|                                 00            |           .    |        processor_specific: 0 0x28cb.4-0x28cc (0.4)
0x28c0|                                    00 00 00 00|            ....|        unused2: 0 0x28cc-0x28d0 (4)
0x28d0|00 00 00 00 00 00 00 00                        |........        |      addr: 0x0 0x28d0-0x28d8 (8)
0x28d0|                        f0 10 00 00 00 00 00 00|        ........|      offset: 0x10f0 0x28d8-0x28e0 (8)
0x28e0|39 01 00 00 00 00 00 00                        |9.......        |      size: 313 0x28e0-0x28e8 (8)
0x28e0|                        00 00 00 00            |        ....    |      link: 0 0x28e8-0x28ec (4)
0x28e0|                                    00 00 00 00|            ....|      info: 0 0x28ec-0x28f0 (4)
0x28f0|01 00 00 00 00 00 00 00                        |........        |      addralign: 1 0x28f0-0x28f8 (8)
0x28f0|                        00 00 00 00 00 00 00 00|        ........|      entsize: 0 0x28f8-0x2900 (8)
      |                                               |                |    [23]{}: section_header 0x1229-0x2940 (5911)
0x1220|                           01 11 01 25 0e 13 0b|         ...%...|      data: raw bits 0x1229-0x12f1 (200)
0x1230|03 0e 1b 0e 55 17 11 01 10 17 00 00 02 24 00 0b|....U........$..|
*     |until 0x12f0.7 (200)                           |                |
0x2900|d8 00 00 00                                    |....            |      name: ".debug_abbrev" (216) 0x2900-0x2904 (4)
0x2900|            01 00 00 00                        |    ....        |      type: "progbits" (0x1) (Information defined by the program) 0x2904-0x2908 (4)
      |                                               |                |      flags{}: 0x2908-0x2910 (8)
0x2900|                        00                     |        .       |        link_order: false 0x2908-0x2908.1 (0.1)
0x2900|                        00                     |        .       |        info_link: false 0x2908.1-0x2908.2 (0.1)
0x2900|                        00                     |        .       |        strings: false 0x2908.2-0x2908.3 (0.1)
0x2900|                        00                     |        .       |        merge: false 0x2908.3-0x2908.4 (0.1)
0x2900|                        00                     |        .       |        unused0: 0 0x2908.4-0x2908.5 (0.1)
0x2900|                        00                     |        .       |        execinstr: false 0x2908.5-0x2908.6 (0.1)
0x2900|                        00                     |        .       |        alloc: false 0x2908.6-0x2908.7 (0.1)
0x2900|                        00                     |        .       |        write: false 0x2908.7-0x2909 (0.1)
0x2900|                           00                  |         .      |        tls: false 0x2909-0x2909.1 (0.1)
0x2900|                           00                  |         .      |        group: false 0x2909.1-0x2909.2 (0.1)
0x2900|                           00                  |         .      |        os_nonconforming: false 0x2909.2-0x2909.3 (0.1)
0x2900|                           00 00               |         ..     |        unused1: 0 0x2909.3-0x290a.4 (1.1)
0x2900|                              00 00            |          ..    |        os_specific: 0 0x290a.4-0x290b.4 (1)
0x2900|                                 00            |           .    |        processor_specific: 0 0x290b.4-0x290c (0.4)
0x2900|                                    00 00 00 00|            ....|        unused2: 0 0x290c-0x2910 (4)
0x2910|00 00 00 00 00 00 00 00                        |........        |      addr: 0x0 0x2910-0x2918 (8)
0x2910|                        29 12 00 00 00 00 00 00|        ).......|      offset: 0x1229 0x2918-0x2920 (8)
0x2920|c8 00 00 00 00 00 00 00                        |........        |      size: 200 0x2920-0x2928 (8)
0x2920|                        00 00 00 00            |        ....    |      link: 0 0x2928-0x292c (4)
0x2920|                                    00 00 00 00|            ....|      info: 0 0x292c-0x2930 (4)
0x2930|01 00 00 00 00 00 00 00                        |........        |      addralign: 1 0x2930-0x2938 (8)
0x2930|                        00 00 00 00 00 00 00 00|        ........|      entsize: 0 0x2938-0x2940 (8)
      |                                               |                |    [24]{}: section_header 0x12f1-0x2980 (5775)
0x12f0|   4e 00 00 00 03 00 21 00 00 00 04 01 fb 0e 0d| N.....!........|      data: raw bits 0x12f1-0x13f3 (258)
0x1300|00 01 01 01 01 00 00 00 01 00 00 01 63 72 74 00|............crt.|
*     |until 0x13f2.7 (258)                           |                |
0x2940|e6 00 00 00                                    |....            |      name: ".debug_line" (230) 0x2940-0x2944 (4)
0x2940|            01 00 00 00                        |    ....        |      type: "progbits" (0x1) (Information defined by the program) 0x2944-0x2948 (4)
      |                                               |                |      flags{}: 0x2948-0x2950 (8)
0x2940|                        00                     |        .       |        link_order: false 0x2948-0x2948.1 (0.1)
0x2940|                        00                     |        .       |        info_link: false 0x2948.1-0x2948.2 (0.1)
0x2940|                        00                     |        .       |        strings: false 0x2948.2-0x2948.3 (0.1)
0x2940|                        00                     |        .       |        merge: false 0x2948.3-0x2948.4 (0.1)
0x2940|                        00                     |        .       |        unused0: 0 0x2948.4-0x2948.5 (0.1)
0x2940|                        00                     |        .       |        execinstr: false 0x2948.5-0x2948.6 (0.1)
0x2940|                        00                     |        .       |        alloc: false 0x2948.6-0x2948.7 (0.1)
0x2940|                        00                     |        .       |        write: false 0x2948.7-0x2949 (0.1)
0x2940|                           00                  |         .      |        tls: false 0x2949-0x2949.1 (0.1)
0x2940|                           00                  |         .      |        group: false 0x2949.1-0x2949.2 (0.1)
0x2940|                           00                  |         .      |        os_nonconforming: false 0x2949.2-0x2949.3 (0.1)
0x2940|                           00 00               |         ..     |        unused1: 0 0x2949.3-0x294a.4 (1.1)
0x2940|                              00 00            |          ..    |        os_specific: 0 0x294a.4-0x294b.4 (1)
0x2940|                                 00            |           .    |        processor_specific: 0 0x294b.4-0x294c (0.4)
0x2940|                                    00 00 00 00|            ....|        unused2: 0 0x294c-0x2950 (4)
0x2950|00 00 00 00 00 00 00 00                        |........        |      addr: 0x0 0x2950-0x2958 (8)
0x2950|                        f1 12 00 00 00 00 00 00|        ........|      offset: 0x12f1 0x2958-0x2960 (8)
0x2960|02 01 00 00 00 00 00 00                        |........        |      size: 258 0x2960-0x2968 (8)
0x2960|                        00 00 00 00            |        ....    |      link: 0 0x2968-0x296c (4)
0x2960|                                    00 00 00 00|            ....|      info: 0 0x296c-0x2970 (4)
0x2970|01 00 00 00 00 00 00 00                        |........        |      addralign: 1 0x2970-0x2978 (8)
0x2970|                        00 00 00 00 00 00 00 00|        ........|      entsize: 0 0x2978-0x2980 (8)
      |                                               |                |    [25]{}: section_header 0x13f8-0x29c0 (5576)
0x13f0|                        0c 00 00 00 ff ff ff ff|        ........|      data: raw bits 0x13f8-0x1420 (40)
0x1400|01 00 04 78 1e 0c 1f 00 14 00 00 00 00 00 00 00|...x............|
0x1410|8c 06 00 00 00 00 00 00 28 00 00 00 00 00 00 00|........(.......|
0x2980|f2 00 00 00                                    |....            |      name: ".debug_frame" (242) 0x2980-0x2984 (4)
0x2980|            01 00 00 00                        |    ....        |      type: "progbits" (0x1) (Information defined by the program) 0x2984-0x2988 (4)
      |                                               |                |      flags{}: 0x2988-0x2990 (8)
0x2980|                        00                     |        .       |        link_order: false 0x2988-0x2988.1 (0.1)
0x2980|                        00                     |        .       |        info_link: false 0x2988.1-0x2988.2 (0.1)
0x2980|                        00                     |        .       |        strings: false 0x2988.2-0x2988.3 (0.1)
0x2980|                        00                     |        .       |        merge: false 0x2988.3-0x2988.4 (0.1)
0x2980|                        00                     |        .       |        unused0: 0 0x2988.4-0x2988.5 (0.1)
0x2980|                        00                     |        .       |        execinstr: false 0x2988.5-0x2988.6 (0.1)
0x2980|                        00                     |        .       |        alloc: false 0x2988.6-0x2988.7 (0.1)
0x2980|                        00                     |        .       |        write: false 0x2988.7-0x2989 (0.1)
0x2980|                           00                  |         .      |        tls: false 0x2989-0x2989.1 (0.1)
0x2980|                           00                  |         .      |        group: false 0x2989.1-0x2989.2 (0.1)
0x2980|                           00                  |         .      |        os_nonconforming: false 0x2989.2-0x2989.3 (0.1)
0x2980|                           00 00               |         ..     |        unused1: 0 0x2989.3-0x298a.4 (1.1)
0x2980|                              00 00            |          ..    |        os_specific: 0 0x298a.4-0x298b.4 (1)
0x2980|                                 00            |           .    |        processor_specific: 0 0x298b.4-0x298c (0.4)
0x2980|                                    00 00 00 00|            ....|        unused2: 0 0x298c-0x2990 (4)
0x2990|00 00 00 00 00 00 00 00                        |........        |      addr: 0x0 0x2990-0x2998 (8)
0x2990|                        f8 13 00 00 00 00 00 00|        ........|      offset: 0x13f8 0x2998-0x29a0 (8)
0x29a0|28 00 00 00 00 00 00 00                        |(.......        |      size: 40 0x29a0-0x29a8 (8)
0x29a0|                        00 00 00 00            |        ....    |      link: 0 0x29a8-0x29ac (4)
0x29a0|                                    00 00 00 00|            ....|      info: 0 0x29ac-0x29b0 (4)
0x29b0|08 00 00 00 00 00 00 00                        |........        |      addralign: 8 0x29b0-0x29b8 (8)
0x29b0|                        00 00 00 00 00 00 00 00|        ........|      entsize: 0 0x29b8-0x29c0 (8)
      |                                               |                |    [26]{}: section_header 0x1420-0x2a00 (5600)
0x1420|63 72 74 2f 53 63 72 74 31 2e 63 00 6c 6f 6e 67|crt/Scrt1.c.long|      data: raw bits 0x1420-0x15e8 (456)
*     |until 0x15e7.7 (456)                           |                |
0x29c0|ff 00 00 00                                    |....            |      name: ".debug_str" (255) 0x29c0-0x29c4 (4)
0x29c0|            01 00 00 00                        |    ....        |      type: "progbits" (0x1) (Information defined by the program) 0x29c4-0x29c8 (4)
      |                                               |                |      flags{}: 0x29c8-0x29d0 (8)
0x29c0|                        30                     |        0       |        link_order: false 0x29c8-0x29c8.1 (0.1)
0x29c0|                        30                     |        0       |        info_link: false 0x29c8.1-0x29c8.2 (0.1)
0x29c0|                        30                     |        0       |        strings: true 0x29c8.2-0x29c8.3 (0.1)
0x29c0|                        30                     |        0       |        merge: true 0x29c8.3-0x29c8.4 (0.1)
0x29c0|                        30                     |        0       |        unused0: 0 0x29c8.4-0x29c8.5 (0.1)
0x29c0|                        30                     |        0       |        execinstr: false 0x29c8.5-0x29c8.6 (0.1)
0x29c0|                        30                     |        0       |        alloc: false 0x29c8.6-0x29c8.7 (0.1)
0x29c0|                        30                     |        0       |        write: false 0x29c8.7-0x29c9 (0.1)
0x29c0|                           00                  |         .      |        tls: false 0x29c9-0x29c9.1 (0.1)
0x29c0|                           00                  |         .      |        group: false 0x29c9.1-0x29c9.2 (0.1)
0x29c0|                           00                  |         .      |        os_nonconforming: false 0x29c9.2-0x29c9.3 (0.1)
0x29c0|                           00 00               |         ..     |        unused1: 0 0x29c9.3-0x29ca.4 (1.1)
0x29c0|                              00 00            |          ..    |        os_specific: 0 0x29ca.4-0x29cb.4 (1)
0x29c0|                                 00            |           .    |        processor_specific: 0 0x29cb.4-0x29cc (0.4)
0x29c0|                                    00 00 00 00|            ....|        unused2: 0 0x29cc-0x29d0 (4)
0x29d0|00 00 00 00 00 00 00 00                        |........        |      addr: 0x0 0x29d0-0x29d8 (8)
0x29d0|                        20 14 00 00 00 00 00 00|         .......|      offset: 0x1420 0x29d8-0x29e0 (8)
0x29e0|c8 01 00 00 00 00 00 00                        |........        |      size: 456 0x29e0-0x29e8 (8)
0x29e0|                        00 00 00 00            |        ....    |      link: 0 0x29e8-0x29ec (4)
0x29e0|                                    00 00 00 00|            ....|      info: 0 0x29ec-0x29f0 (4)
0x29f0|01 00 00 00 00 00 00 00                        |........        |      addralign: 1 0x29f0-0x29f8 (8)
0x29f0|                        01 00 00 00 00 00 00 00|        ........|      entsize: 1 0x29f8-0x2a00 (8)
      |                                               |                |    [27]{}: section_header 0x15e8-0x2a40 (5208)
0x15e0|                        00 00 00 00 00 00 00 00|        ........|      data: raw bits 0x15e8-0x1710 (296)
0x15f0|8c 06 00 00 00 00 00 00 9c 06 00 00 00 00 00 00|................|
*     |until 0x170f.7 (296)                           |                |
0x2a00|0a 01 00 00                                    |....            |      name: ".debug_loc" (266) 0x2a00-0x2a04 (4)
0x2a00|            01 00 00 00                        |    ....        |      type: "progbits" (0x1) (Information defined by the program) 0x2a04-0x2a08 (4)
      |                                               |                |      flags{}: 0x2a08-0x2a10 (8)
0x2a00|                        00                     |        .       |        link_order: false 0x2a08-0x2a08.1 (0.1)
0x2a00|                        00                     |        .       |        info_link: false 0x2a08.1-0x2a08.2 (0.1)
0x2a00|                        00                     |        .       |        strings: false 0x2a08.2-0x2a08.3 (0.1)
0x2a00|                        00                     |        .       |        merge: false 0x2a08.3-0x2a08.4 (0.1)
0x2a00|                        00                     |        .       |        unused0: 0 0x2a08.4-0x2a08.5 (0.1)
0x2a00|                        00                     |        .       |        execinstr: false 0x2a08.5-0x2a08.6 (0.1)
0x2a00|                        00                     |        .       |        alloc: false 0x2a08.6-0x2a08.7 (0.1)
0x2a00|                        00                     |        .       |        write: false 0x2a08.7-0x2a09 (0.1)
0x2a00|                           00                  |         .      |        tls: false 0x2a09-0x2a09.1 (0.1)
0x2a00|                           00                  |         .      |        group: false 0x2a09.1-0x2a09.2 (0.1)
0x2a00|                           00                  |         .      |        os_nonconforming: false 0x2a09.2-0x2a09.3 (0.1)
0x2a00|                           00 00               |         ..     |        unused1: 0 0x2a09.3-0x2a0a.4 (1.1)
0x2a00|                              00 00            |          ..    |        os_specific: 0 0x2a0a.4-0x2a0b.4 (1)
0x2a00|                                 00            |           .    |        processor_specific: 0 0x2a0b.4-0x2a0c (0.4)
0x2a00|                                    00 00 00 00|            ....|        unused2: 0 0x2a0c-0x2a10 (4)
0x2a10|00 00 00 00 00 00 00 00                        |........        |      addr: 0x0 0x2a10-0x2a18 (8)
0x2a10|                        e8 15 00 00 00 00 00 00|        ........|      offset: 0x15e8 0x2a18-0x2a20 (8)
0x2a20|28 01 00 00 00 00 00 00                        |(.......        |      size: 296 0x2a20-0x2a28 (8)
0x2a20|                        00 00 00 00            |        ....    |      link: 0 0x2a28-0x2a2c (4)
0x2a20|                                    00 00 00 00|            ....|      info: 0 0x2a2c-0x2a30 (4)
0x2a30|01 00 00 00 00 00 00 00                        |........        |      addralign: 1 0x2a30-0x2a38 (8)
0x2a30|                        00 00 00 00 00 00 00 00|        ........|      entsize: 0 0x2a38-0x2a40 (8)
      |                                               |                |    [28]{}: section_header 0x1710-0x2a80 (4976)
0x1710|8c 06 00 00 00 00 00 00 b4 06 00 00 00 00 00 00|................|      data: raw bits 0x1710-0x17b0 (160)
*     |until 0x17af.7 (160)                           |                |
0x2a40|15 01 00 00                                    |....            |      name: ".debug_ranges" (277) 0x2a40-0x2a44 (4)
0x2a40|            01 00 00 00                        |    ....        |      type: "progbits" (0x1) (Information defined by the program) 0x2a44-0x2a48 (4)
      |                                               |                |      flags{}: 0x2a48-0x2a50 (8)
0x2a40|                        00                     |        .       |        link_order: false 0x2a48-0x2a48.1 (0.1)
0x2a40|                        00                     |        .       |        info_link: false 0x2a48.1-0x2a48.2 (0.1)
0x2a40|                        00                     |        .       |        strings: false 0x2a48.2-0x2a48.3 (0.1)
0x2a40|                        00                     |        .       |        merge: false 0x2a48.3-0x2a48.4 (0.1)
0x2a40|                        00                     |        .       |        unused0: 0 0x2a48.4-0x2a48.5 (0.1)
0x2a40|                        00                     |        .       |        execinstr: false 0x2a48.5-0x2a48.6 (0.1)
0x2a40|                        00                     |        .       |        alloc: false 0x2a48.6-0x2a48.7 (0.1)
0x2a40|                        00                     |        .       |        write: false 0x2a48.7-0x2a49 (0.1)
0x2a40|                           00                  |         .      |        tls: false 0x2a49-0x2a49.1 (0.1)
0x2a40|                           00                  |         .      |        group: false 0x2a49.1-0x2a49.2 (0.1)
0x2a40|                           00                  |         .      |        os_nonconforming: false 0x2a49.2-0x2a49.3 (0.1)
0x2a40|                           00 00               |         ..     |        unused1: 0 0x2a49.3-0x2a4a.4 (1.1)
0x2a40|                              00 00            |          ..    |        os_specific: 0 0x2a4a.4-0x2a4b.4 (1)
0x2a40|                                 00            |           .    |        processor_specific: 0 0x2a4b.4-0x2a4c (0.4)
0x2a40|                                    00 00 00 00|            ....|        unused2: 0 0x2a4c-0x2a50 (4)
0x2a50|00 00 00 00 00 00 00 00                        |........        |      addr: 0x0 0x2a50-0x2a58 (8)
0x2a50|                        10 17 00 00 00 00 00 00|        ........|      offset: 0x1710 0x2a58-0x2a60 (8)
0x2a60|a0 00 00 00 00 00 00 00                        |........        |      size: 160 0x2a60-0x2a68 (8)
0x2a60|                        00 00 00 00            |        ....    |      link: 0 0x2a68-0x2a6c (4)
0x2a60|                                    00 00 00 00|            ....|      info: 0 0x2a6c-0x2a70 (4)
0x2a70|10 00 00 00 00 00 00 00                        |........        |      addralign: 16 0x2a70-0x2a78 (8)
0x2a70|                        00 00 00 00 00 00 00 00|        ........|      entsize: 0 0x2a78-0x2a80 (8)
      |                                               |                |    [29]{}: section_header 0x17b0-0x2ac0 (4880)
      |                                               |                |      symbol_table[0:89]: 0x17b0-0x2008 (2136)
      |                                               |                |        [0]{}: symbol 0x17b0-0x17c8 (24)
0x17b0|00 00 00 00                                    |....            |          name: "" (0) 0x17b0-0x17b4 (4)
0x17b0|            00                                 |    .           |          bind: "local" (0) 0x17b4-0x17b4.4 (0.4)
0x17b0|            00                                 |    .           |          type: "notype" (0) 0x17b4.4-0x17b5 (0.4)
0x17b0|               00                              |     .          |          other_unused: 0 0x17b5-0x17b5.6 (0.6)
0x17b0|               00                              |     .          |          visibility: "default" (0) 0x17b5.6-0x17b6 (0.2)
0x17b0|                  00 00                        |      ..        |          shndx: 0 0x17b6-0x17b8 (2)
0x17b0|                        00 00 00 00 00 00 00 00|        ........|          value: 0 0x17b8-0x17c0 (8)
0x17c0|00 00 00 00 00 00 00 00                        |........        |          size: 0 0x17c0-0x17c8 (8)
      |                                               |                |        [1]{}: symbol 0x17c8-0x17e0 (24)
0x17c0|                        00 00 00 00            |        ....    |          name: "" (0) 0x17c8-0x17cc (4)
0x17c0|                                    03         |            .   |          bind: "local" (0) 0x17cc-0x17cc.4 (0.4)
0x17c0|                                    03         |            .   |          type: "section" (3) 0x17cc.4-0x17cd (0.4)
0x17c0|                                       00      |             .  |          other_unused: 0 0x17cd-0x17cd.6 (0.6)
0x17c0|                                       00      |             .  |          visibility: "default" (0) 0x17cd.6-0x17ce (0.2)
0x17c0|                                          01 00|              ..|          shndx: 1 0x17ce-0x17d0 (2)
0x17d0|00 02 00 00 00 00 00 00                        |........        |          value: 512 0x17d0-0x17d8 (8)
0x17d0|                        00 00 00 00 00 00 00 00|        ........|          size: 0 0x17d8-0x17e0 (8)
      |                                               |                |        [2]{}: symbol 0x17e0-0x17f8 (24)
0x17e0|00 00 00 00                                    |....            |          name: "" (0) 0x17e0-0x17e4 (4)
0x17e0|            03                                 |    .           |          bind: "local" (0) 0x17e4-0x17e4.4 (0.4)
0x17e0|            03                                 |    .           |          type: "section" (3) 0x17e4.4-0x17e5 (0.4)
0x17e0|               00                              |     .          |          other_unused: 0 0x17e5-0x17e5.6 (0.6)
0x17e0|               00                              |     .          |          visibility: "default" (0) 0x17e5.6-0x17e6 (0.2)
0x17e0|                  02 00                        |      ..        |          shndx: 2 0x17e6-0x17e8 (2)
0x17e0|                        20 02 00 00 00 00 00 00|         .......|          value: 544 0x17e8-0x17f0 (8)
0x17f0|00 00 00 00 00 00 00 00                        |........        |          size: 0 0x17f0-0x17f8 (8)
      |                                               |                |        [3]{}: symbol 0x17f8-0x1810 (24)
0x17f0|                        00 00 00 00            |        ....    |          name: "" (0) 0x17f8-0x17fc (4)
0x17f0|                                    03         |            .   |          bind: "local" (0) 0x17fc-0x17fc.4 (0.4)
0x17f0|                                    03         |            .   |          type: "section" (3) 0x17fc.4-0x17fd (0.4)
0x17f0|                                       00      |             .  |          other_unused: 0 0x17fd-0x17fd.6 (0.6)
0x17f0|                                       00      |             .  |          visibility: "default" (0) 0x17fd.6-0x17fe (0.2)
0x17f0|                                          03 00|              ..|          shndx: 3 0x17fe-0x1800 (2)
0x1800|48 02 00 00 00 00 00 00                        |H.......        |          value: 584 0x1800-0x1808 (8)
0x1800|                        00 00 00 00 00 00 00 00|        ........|          size: 0 0x1808-0x1810 (8)
      |                                               |                |        [4]{}: symbol 0x1810-0x1828 (24)
0x1810|00 00 00 00                                    |....            |          name: "" (0) 0x1810-0x1814 (4)
0x1810|            03                                 |    .           |          bind: "local" (0) 0x1814-0x1814.4 (0.4)
0x1810|            03                                 |    .           |          type: "section" (3) 0x1814.4-0x1815 (0.4)
0x1810|               00                              |     .          |          other_unused: 0 0x1815-0x1815.6 (0.6)
0x1810|               00                              |     .          |          visibility: "default" (0) 0x1815.6-0x1816 (0.2)
0x1810|                  04 00                        |      ..        |          shndx: 4 0x1816-0x1818 (2)
0x1810|                        80 03 00 00 00 00 00 00|        ........|          value: 896 0x1818-0x1820 (8)
0x1820|00 00 00 00 00 00 00 00                        |........        |          size: 0 0x1820-0x1828 (8)
      |                                               |                |        [5]{}: symbol 0x1828-0x1840 (24)
0x1820|                        00 00 00 00            |        ....    |          name: "" (0) 0x1828-0x182c (4)
0x1820|                                    03         |            .   |          bind: "local" (0) 0x182c-0x182c.4 (0.4)
0x1820|                                    03         |            .   |          type: "section" (3) 0x182c.4-0x182d (0.4)
0x1820|                                       00      |             .  |          other_unused: 0 0x182d-0x182d.6 (0.6)
0x1820|                                       00      |             .  |          visibility: "default" (0) 0x182d.6-0x182e (0.2)
0x1820|                                          05 00|              ..|          shndx: 5 0x182e-0x1830 (2)
0x1830|48 04 00 00 00 00 00 00                        |H.......        |          value: 1096 0x1830-0x1838 (8)
0x1830|                        00 00 00 00 00 00 00 00|        ........|          size: 0 0x1838-0x1840 (8)
      |                                               |                |        [6]{}: symbol 0x1840-0x1858 (24)
0x1840|00 00 00 00                                    |....            |          name: "" (0) 0x1840-0x1844 (4)
0x1840|            03                                 |    .           |          bind: "local" (0) 0x1844-0x1844.4 (0.4)
0x1840|            03                                 |    .           |          type: "section" (3) 0x1844.4-0x1845 (0.4)
0x1840|               00                              |     .          |          other_unused: 0 0x1845-0x1845.6 (0.6)
0x1840|               00                              |     .          |          visibility: "default" (0) 0x1845.6-0x1846 (0.2)
0x1840|                  06 00                        |      ..        |          shndx: 6 0x1846-0x1848 (2)
0x1840|                        50 05 00 00 00 00 00 00|        P.......|          value: 1360 0x1848-0x1850 (8)
0x1850|00 00 00 00 00 00 00 00                        |........        |          size: 0 0x1850-0x1858 (8)
      |                                               |                |        [7]{}: symbol 0x1858-0x1870 (24)
0x1850|                        00 00 00 00            |        ....    |          name: "" (0) 0x1858-0x185c (4)
0x1850|                                    03         |            .   |          bind: "local" (0) 0x185c-0x185c.4 (0.4)
0x1850|                                    03         |            .   |          type: "section" (3) 0x185c.4-0x185d (0.4)
0x1850|                                       00      |             .  |          other_unused: 0 0x185d-0x185d.6 (0.6)
0x1850|                                       00      |             .  |          visibility: "default" (0) 0x185d.6-0x185e (0.2)
0x1850|                                          07 00|              ..|          shndx: 7 0x185e-0x1860 (2)
0x1860|e0 05 00 00 00 00 00 00                        |........        |          value: 1504 0x1860-0x1868 (8)
0x1860|                        00 00 00 00 00 00 00 00|        ........|          size: 0 0x1868-0x1870 (8)
      |                                               |                |        [8]{}: symbol 0x1870-0x1888 (24)
0x1870|00 00 00 00                                    |....            |          name: "" (0) 0x1870-0x1874 (4)
0x1870|            03                                 |    .           |          bind: "local" (0) 0x1874-0x1874.4 (0.4)
0x1870|            03                                 |    .           |          type: "section" (3) 0x1874.4-0x1875 (0.4)
0x1870|               00                              |     .          |          other_unused: 0 0x1875-0x1875.6 (0.6)
0x1870|               00                              |     .          |          visibility: "default" (0) 0x1875.6-0x1876 (0.2)
0x1870|                  08 00                        |      ..        |          shndx: 8 0x1876-0x1878 (2)
0x1870|                        f0 05 00 00 00 00 00 00|        ........|          value: 1520 0x1878-0x1880 (8)
0x1880|00 00 00 00 00 00 00 00                        |........        |          size: 0 0x1880-0x1888 (8)
      |                                               |                |        [9]{}: symbol 0x1888-0x18a0 (24)
0x1880|                        00 00 00 00            |        ....    |          name: "" (0) 0x1888-0x188c (4)
0x1880|                                    03         |            .   |          bind: "local" (0) 0x188c-0x188c.4 (0.4)
0x1880|                                    03         |            .   |          type: "section" (3) 0x188c.4-0x188d (0.4)
0x1880|                                       00      |             .  |          other_unused: 0 0x188d-0x188d.6 (0.6)
0x1880|                                       00      |             .  |          visibility: "default" (0) 0x188d.6-0x188e (0.2)
0x1880|                                          09 00|              ..|          shndx: 9 0x188e-0x1890 (2)
0x1890|70 06 00 00 00 00 00 00                        |p.......        |          value: 1648 0x1890-0x1898 (8)
0x1890|                        00 00 00 00 00 00 00 00|        ........|          size: 0 0x1898-0x18a0 (8)
      |                                               |                |        [10]{}: symbol 0x18a0-0x18b8 (24)
0x18a0|00 00 00 00                                    |....            |          name: "" (0) 0x18a0-0x18a4 (4)
0x18a0|            03                                 |    .           |          bind: "local" (0) 0x18a4-0x18a4.4 (0.4)
0x18a0|            03                                 |    .           |          type: "section" (3) 0x18a4.4-0x18a5 (0.4)
0x18a0|               00                              |     .          |          other_unused: 0 0x18a5-0x18a5.6 (0.6)
0x18a0|               00                              |     .          |          visibility: "default" (0) 0x18a5.6-0x18a6 (0.2)
0x18a0|                  0a 00                        |      ..        |          shndx: 10 0x18a6-0x18a8 (2)
0x18a0|                        00 08 00 00 00 00 00 00|        ........|          value: 2048 0x18a8-0x18b0 (8)
0x18b0|00 00 00 00 00 00 00 00                        |........        |          size: 0 0x18b0-0x18b8 (8)
      |                                               |                |        [11]{}: symbol 0x18b8-0x18d0 (24)
0x18b0|                        00 00 00 00            |        ....    |          name: "" (0) 0x18b8-0x18bc (4)
0x18b0|                                    03         |            .   |          bind: "local" (0) 0x18bc-0x18bc.4 (0.4)
0x18b0|                                    03         |            .   |          type: "section" (3) 0x18bc.4-0x18bd (0.4)
0x18b0|                                       00      |             .  |          other_unused: 0 0x18bd-0x18bd.6 (0.6)
0x18b0|                                       00      |             .  |          visibility: "default" (0) 0x18bd.6-0x18be (0.2)
0x18b0|                                          0b 00|              ..|          shndx: 11 0x18be-0x18c0 (2)
0x18c0|10 08 00 00 00 00 00 00                        |........        |          value: 2064 0x18c0-0x18c8 (8)
0x18c0|                        00 00 00 00 00 00 00 00|        ........|          size: 0 0x18c8-0x18d0 (8)
      |                                               |                |        [12]{}: symbol 0x18d0-0x18e8 (24)
0x18d0|00 00 00 00                                    |....            |          name: "" (0) 0x18d0-0x18d4 (4)
0x18d0|            03                                 |    .           |          bind: "local" (0) 0x18d4-0x18d4.4 (0.4)
0x18d0|            03                                 |    .           |          type: "section" (3) 0x18d4.4-0x18d5 (0.4)
0x18d0|               00                              |     .          |          other_unused: 0 0x18d5-0x18d5.6 (0.6)
0x18d0|               00                              |     .          |          visibility: "default" (0) 0x18d5.6-0x18d6 (0.2)
0x18d0|                  0c 00                        |      ..        |          shndx: 12 0x18d6-0x18d8 (2)
0x18d0|                        14 08 00 00 00 00 00 00|        ........|          value: 2068 0x18d8-0x18e0 (8)
0x18e0|00 00 00 00 00 00 00 00                        |........        |          size: 0 0x18e0-0x18e8 (8)
      |                                               |                |        [13]{}: symbol 0x18e8-0x1900 (24)
0x18e0|                        00 00 00 00            |        ....    |          name: "" (0) 0x18e8-0x18ec (4)
0x18e0|                                    03         |            .   |          bind: "local" (0) 0x18ec-0x18ec.4 (0.4)
0x18e0|                                    03         |            .   |          type: "section" (3) 0x18ec.4-0x18ed (0.4)
0x18e0|                                       00      |             .  |          other_unused: 0 0x18ed-0x18ed.6 (0.6)
0x18e0|                                       00      |             .  |          visibility: "default" (0) 0x18ed.6-0x18ee (0.2)
0x18e0|                                          0d 00|              ..|          shndx: 13 0x18ee-0x18f0 (2)
0x18f0|50 08 00 00 00 00 00 00                        |P.......        |          value: 2128 0x18f0-0x18f8 (8)
0x18f0|                        00 00 00 00 00 00 00 00|        ........|          size: 0 0x18f8-0x1900 (8)
      |                                               |                |        [14]{}: symbol 0x1900-0x1918 (24)
0x1900|00 00 00 00                                    |....            |          name: "" (0) 0x1900-0x1904 (4)
0x1900|            03                                 |    .           |          bind: "local" (0) 0x1904-0x1904.4 (0.4)
0x1900|            03                                 |    .           |          type: "section" (3) 0x1904.4-0x1905 (0.4)
0x1900|               00                              |     .          |          other_unused: 0 0x1905-0x1905.6 (0.6)
0x1900|               00                              |     .          |          visibility: "default" (0) 0x1905.6-0x1906 (0.2)
0x1900|                  0e 00                        |      ..        |          shndx: 14 0x1906-0x1908 (2)
0x1900|                        90 0d 01 00 00 00 00 00|        ........|          value: 69008 0x1908-0x1910 (8)
0x1910|00 00 00 00 00 00 00 00                        |........        |          size: 0 0x1910-0x1918 (8)
      |                                               |                |        [15]{}: symbol 0x1918-0x1930 (24)
0x1910|                        00 00 00 00            |        ....    |          name: "" (0) 0x1918-0x191c (4)
0x1910|                                    03         |            .   |          bind: "local" (0) 0x191c-0x191c.4 (0.4)
0x1910|                                    03         |            .   |          type: "section" (3) 0x191c.4-0x191d (0.4)
0x1910|                                       00      |             .  |          other_unused: 0 0x191d-0x191d.6 (0.6)
0x1910|                                       00      |             .  |          visibility: "default" (0) 0x191d.6-0x191e (0.2)
0x1910|                                          0f 00|              ..|          shndx: 15 0x191e-0x1920 (2)
0x1920|98 0d 01 00 00 00 00 00                        |........        |          value: 69016 0x1920-0x1928 (8)
0x1920|                        00 00 00 00 00 00 00 00|        ........|          size: 0 0x1928-0x1930 (8)
      |                                               |                |        [16]{}: symbol 0x1930-0x1948 (24)
0x1930|00 00 00 00                                    |....            |          name: "" (0) 0x1930-0x1934 (4)
0x1930|            03                                 |    .           |          bind: "local" (0) 0x1934-0x1934.4 (0.4)
0x1930|            03                                 |    .           |          type: "section" (3) 0x1934.4-0x1935 (0.4)
0x1930|               00                              |     .          |          other_unused: 0 0x1935-0x1935.6 (0.6)
0x1930|               00                              |     .          |          visibility: "default" (0) 0x1935.6-0x1936 (0.2)
0x1930|                  10 00                        |      ..        |          shndx: 16 0x1936-0x1938 (2)
0x1930|                        a0 0d 01 00 00 00 00 00|        ........|          value: 69024 0x1938-0x1940 (8)
0x1940|00 00 00 00 00 00 00 00                        |........        |          size: 0 0x1940-0x1948 (8)
      |                                               |                |        [17]{}: symbol 0x1948-0x1960 (24)
0x1940|                        00 00 00 00            |        ....    |          name: "" (0) 0x1948-0x194c (4)
0x1940|                                    03         |            .   |          bind: "local" (0) 0x194c-0x194c.4 (0.4)
0x1940|                                    03         |            .   |          type: "section" (3) 0x194c.4-0x194d (0.4)
0x1940|                                       00      |             .  |          other_unused: 0 0x194d-0x194d.6 (0.6)
0x1940|                                       00      |             .  |          visibility: "default" (0) 0x194d.6-0x194e (0.2)
0x1940|                                          11 00|              ..|          shndx: 17 0x194e-0x1950 (2)
0x1950|70 0f 01 00 00 00 00 00                        |p.......        |          value: 69488 0x1950-0x1958 (8)
0x1950|                        00 00 00 00 00 00 00 00|        ........|          size: 0 0x1958-0x1960 (8)
      |                                               |                |        [18]{}: symbol 0x1960-0x1978 (24)
0x1960|00 00 00 00                                    |....            |          name: "" (0) 0x1960-0x1964 (4)
0x1960|            03                                 |    .           |          bind: "local" (0) 0x1964-0x1964.4 (0.4)
0x1960|            03                                 |    .           |          type: "section" (3) 0x1964.4-0x1965 (0.4)
0x1960|               00                              |     .          |          other_unused: 0 0x1965-0x1965.6 (0.6)
0x1960|               00                              |     .          |          visibility: "default" (0) 0x1965.6-0x1966 (0.2)
0x1960|                  12 00                        |      ..        |          shndx: 18 0x1966-0x1968 (2)
0x1960|                        00 10 01 00 00 00 00 00|        ........|          value: 69632 0x1968-0x1970 (8)
0x1970|00 00 00 00 00 00 00 00                        |........        |          size: 0 0x1970-0x1978 (8)
      |                                               |                |        [19]{}: symbol 0x1978-0x1990 (24)
0x1970|                        00 00 00 00            |        ....    |          name: "" (0) 0x1978-0x197c (4)
0x1970|                                    03         |            .   |          bind: "local" (0) 0x197c-0x197c.4 (0.4)
0x1970|                                    03         |            .   |          type: "section" (3) 0x197c.4-0x197d (0.4)
0x1970|                                       00      |             .  |          other_unused: 0 0x197d-0x197d.6 (0.6)
0x1970|                                       00      |             .  |          visibility: "default" (0) 0x197d.6-0x197e (0.2)
0x1970|                                          13 00|              ..|          shndx: 19 0x197e-0x1980 (2)
0x1980|08 10 01 00 00 00 00 00                        |........        |          value: 69640 0x1980-0x1988 (8)
0x1980|                        00 00 00 00 00 00 00 00|        ........|          size: 0 0x1988-0x1990 (8)
      |                                               |                |        [20]{}: symbol 0x1990-0x19a8 (24)
0x1990|00 00 00 00                                    |....            |          name: "" (0) 0x1990-0x1994 (4)
0x1990|            03                                 |    .           |          bind: "local" (0) 0x1994-0x1994.4 (0.4)
0x1990|            03                                 |    .           |          type: "section" (3) 0x1994.4-0x1995 (0.4)
0x1990|               00                              |     .          |          other_unused: 0 0x1995-0x1995.6 (0.6)
0x1990|               00                              |     .          |          visibility: "default" (0) 0x1995.6-0x1996 (0.2)
0x1990|                  14 00                        |      ..        |          shndx: 20 0x1996-0x1998 (2)
0x1990|                        00 00 00 00 00 00 00 00|        ........|          value: 0 0x1998-0x19a0 (8)
0x19a0|00 00 00 00 00 00 00 00                        |........        |          size: 0 0x19a0-0x19a8 (8)
      |                                               |                |        [21]{}: symbol 0x19a8-0x19c0 (24)
0x19a0|                        00 00 00 00            |        ....    |          name: "" (0) 0x19a8-0x19ac (4)
0x19a0|                                    03         |            .   |          bind: "local" (0) 0x19ac-0x19ac.4 (0.4)
0x19a0|                                    03         |            .   |          type: "section" (3) 0x19ac.4-0x19ad (0.4)
0x19a0|                                       00      |             .  |          other_unused: 0 0x19ad-0x19ad.6 (0.6)
0x19a0|                                       00      |             .  |          visibility: "default" (0) 0x19ad.6-0x19ae (0.2)
0x19a0|                                          15 00|              ..|          shndx: 21 0x19ae-0x19b0 (2)
0x19b0|00 00 00 00 00 00 00 00                        |........        |          value: 0 0x19b0-0x19b8 (8)
0x19b0|                        00 00 00 00 00 00 00 00|        ........|          size: 0 0x19b8-0x19c0 (8)
      |                                               |                |        [22]{}: symbol 0x19c0-0x19d8 (24)
0x19c0|00 00 00 00                                    |....            |          name: "" (0) 0x19c0-0x19c4 (4)
0x19c0|            03                                 |    .           |          bind: "local" (0) 0x19c4-0x19c4.4 (0.4)
0x19c0|            03                                 |    .           |          type: "section" (3) 0x19c4.4-0x19c5 (0.4)
0x19c0|               00                              |     .          |          other_unused: 0 0x19c5-0x19c5.6 (0.6)
0x19c0|               00                              |     .          |          visibility: "default" (0) 0x19c5.6-0x19c6 (0.2)
0x19c0|                  16 00                        |      ..        |          shndx: 22 0x19c6-0x19c8 (2)
0x19c0|                        00 00 00 00 00 00 00 00|        ........|          value: 0 0x19c8-0x19d0 (8)
0x19d0|00 00 00 00 00 00 00 00                        |........        |          size: 0 0x19d0-0x19d8 (8)
      |                                               |                |        [23]{}: symbol 0x19d8-0x19f0 (24)
0x19d0|                        00 00 00 00            |        ....    |          name: "" (0) 0x19d8-0x19dc (4)
0x19d0|                                    03         |            .   |          bind: "local" (0) 0x19dc-0x19dc.4 (0.4)
0x19d0|                                    03         |            .   |          type: "section" (3) 0x19dc.4-0x19dd (0.4)
0x19d0|                                       00      |             .  |          other_unused: 0 0x19dd-0x19dd.6 (0.6)
0x19d0|                                       00      |             .  |          visibility: "default" (0) 0x19dd.6-0x19de (0.2)
0x19d0|                                          17 00|              ..|          shndx: 23 0x19de-0x19e0 (2)
0x19e0|00 00 00 00 00 00 00 00                        |........        |          value: 0 0x19e0-0x19e8 (8)
0x19e0|                        00 00 00 00 00 00 00 00|        ........|          size: 0 0x19e8-0x19f0 (8)
      |                                               |                |        [24]{}: symbol 0x19f0-0x1a08 (24)
0x19f0|00 00 00 00                                    |....            |          name: "" (0) 0x19f0-0x19f4 (4)
0x19f0|            03                                 |    .           |          bind: "local" (0) 0x19f4-0x19f4.4 (0.4)
0x19f0|            03                                 |    .           |          type: "section" (3) 0x19f4.4-0x19f5 (0.4)
0x19f0|               00                              |     .          |          other_unused: 0 0x19f5-0x19f5.6 (0.6)
0x19f0|               00                              |     .          |          visibility: "default" (0) 0x19f5.6-0x19f6 (0.2)
0x19f0|                  18 00                        |      ..        |          shndx: 24 0x19f6-0x19f8 (2)
0x19f0|                        00 00 00 00 00 00 00 00|        ........|          value: 0 0x19f8-0x1a00 (8)
0x1a00|00 00 00 00 00 00 00 00                        |........        |          size: 0 0x1a00-0x1a08 (8)
      |                                               |                |        [25]{}: symbol 0x1a08-0x1a20 (24)
0x1a00|                        00 00 00 00            |        ....    |          name: "" (0) 0x1a08-0x1a0c (4)
0x1a00|                                    03         |            .   |          bind: "local" (0) 0x1a0c-0x1a0c.4 (0.4)
0x1a00|                                    03         |            .   |          type: "section" (3) 0x1a0c.4-0x1a0d (0.4)
0x1a00|                                       00      |             .  |          other_unused: 0 0x1a0d-0x1a0d.6 (0.6)
0x1a00|                                       00      |             .  |          visibility: "default" (0) 0x1a0d.6-0x1a0e (0.2)
0x1a00|                                          19 00|              ..|          shndx: 25 0x1a0e-0x1a10 (2)
0x1a10|00 00 00 00 00 00 00 00                        |........        |          value: 0 0x1a10-0x1a18 (8)
0x1a10|                        00 00 00 00 00 00 00 00|        ........|          size: 0 0x1a18-0x1a20 (8)
      |                                               |                |        [26]{}: symbol 0x1a20-0x1a38 (24)
0x1a20|00 00 00 00                                    |....            |          name: "" (0) 0x1a20-0x1a24 (4)
0x1a20|            03                                 |    .           |          bind: "local" (0) 0x1a24-0x1a24.4 (0.4)
0x1a20|            03                                 |    .           |          type: "section" (3) 0x1a24.4-0x1a25 (0.4)
0x1a20|               00                              |     .          |          other_unused: 0 0x1a25-0x1a25.6 (0.6)
0x1a20|               00                              |     .          |          visibility: "default" (0) 0x1a25.6-0x1a26 (0.2)
0x1a20|                  1a 00                        |      ..        |          shndx: 26 0x1a26-0x1a28 (2)
0x1a20|                        00 00 00 00 00 00 00 00|        ........|          value: 0 0x1a28-0x1a30 (8)
0x1a30|00 00 00 00 00 00 00 00                        |........        |          size: 0 0x1a30-0x1a38 (8)
      |                                               |                |        [27]{}: symbol 0x1a38-0x1a50 (24)
0x1a30|                        00 00 00 00            |        ....    |          name: "" (0) 0x1a38-0x1a3c (4)
0x1a30|                                    03         |            .   |          bind: "local" (0) 0x1a3c-0x1a3c.4 (0.4)
0x1a30|                                    03         |            .   |          type: "section" (3) 0x1a3c.4-0x1a3d (0.4)
0x1a30|                                       00      |             .  |          other_unused: 0 0x1a3d-0x1a3d.6 (0.6)
0x1a30|                                       00      |             .  |          visibility: "default" (0) 0x1a3d.6-0x1a3e (0.2)
0x1a30|                                          1b 00|              ..|          shndx: 27 0x1a3e-0x1a40 (2)
0x1a40|00 00 00 00 00 00 00 00                        |........        |          value: 0 0x1a40-0x1a48 (8)
0x1a40|                        00 00 00 00 00 00 00 00|        ........|          size: 0 0x1a48-0x1a50 (8)
      |                                               |                |        [28]{}: symbol 0x1a50-0x1a68 (24)
0x1a50|00 00 00 00                                    |....            |          name: "" (0) 0x1a50-0x1a54 (4)
0x1a50|            03                                 |    .           |          bind: "local" (0) 0x1a54-0x1a54.4 (0.4)
0x1a50|            03                                 |    .           |          type: "section" (3) 0x1a54.4-0x1a55 (0.4)
0x1a50|               00                              |     .          |          other_unused: 0 0x1a55-0x1a55.6 (0.6)
0x1a50|               00                              |     .          |          visibility: "default" (0) 0x1a55.6-0x1a56 (0.2)
0x1a50|                  1c 00                        |      ..        |          shndx: 28 0x1a56-0x1a58 (2)
0x1a50|                        00 00 00 00 00 00 00 00|        ........|          value: 0 0x1a58-0x1a60 (8)
0x1a60|00 00 00 00 00 00 00 00                        |........        |          size: 0 0x1a60-0x1a68 (8)
      |                                               |                |        [29]{}: symbol 0x1a68-0x1a80 (24)
0x1a60|                        01 00 00 00            |        ....    |          name: "Scrt1.c" (1) 0x1a68-0x1a6c (4)
0x1a60|                                    04         |            .   |          bind: "local" (0) 0x1a6c-0x1a6c.4 (0.4)
0x1a60|                                    04         |            .   |          type: "file" (4) 0x1a6c.4-0x1a6d (0.4)
0x1a60|                                       00      |             .  |          other_unused: 0 0x1a6d-0x1a6d.6 (0.6)
0x1a60|                                       00      |             .  |          visibility: "default" (0) 0x1a6d.6-0x1a6e (0.2)
0x1a60|                                          f1 ff|              ..|          shndx: 65521 0x1a6e-0x1a70 (2)
0x1a70|00 00 00 00 00 00 00 00                        |........        |          value: 0 0x1a70-0x1a78 (8)
0x1a70|                        00 00 00 00 00 00 00 00|        ........|          size: 0 0x1a78-0x1a80 (8)
      |                                               |                |        [30]{}: symbol 0x1a80-0x1a98 (24)
0x1a80|09 00 00 00                                    |....            |          name: "$x" (9) 0x1a80-0x1a84 (4)
0x1a80|            00                                 |    .           |          bind: "local" (0) 0x1a84-0x1a84.4 (0.4)
0x1a80|            00                                 |    .           |          type: "notype" (0) 0x1a84.4-0x1a85 (0.4)
0x1a80|               00                              |     .          |          other_unused: 0 0x1a85-0x1a85.6 (0.6)
0x1a80|               00                              |     .          |          visibility: "default" (0) 0x1a85.6-0x1a86 (0.2)
0x1a80|                  09 00                        |      ..        |          shndx: 9 0x1a86-0x1a88 (2)
0x1a80|                        70 06 00 00 00 00 00 00|        p.......|          value: 1648 0x1a88-0x1a90 (8)
0x1a90|00 00 00 00 00 00 00 00                        |........        |          size: 0 0x1a90-0x1a98 (8)
      |                                               |                |        [31]{}: symbol 0x1a98-0x1ab0 (24)
0x1a90|                        09 00 00 00            |        ....    |          name: "$x" (9) 0x1a98-0x1a9c (4)
0x1a90|                                    00         |            .   |          bind: "local" (0) 0x1a9c-0x1a9c.4 (0.4)
0x1a90|                                    00         |            .   |          type: "notype" (0) 0x1a9c.4-0x1a9d (0.4)
0x1a90|                                       00      |             .  |          other_unused: 0 0x1a9d-0x1a9d.6 (0.6)
0x1a90|                                       00      |             .  |          visibility: "default" (0) 0x1a9d.6-0x1a9e (0.2)
0x1a90|                                          09 00|              ..|          shndx: 9 0x1a9e-0x1aa0 (2)
0x1aa0|8c 06 00 00 00 00 00 00                        |........        |          value: 1676 0x1aa0-0x1aa8 (8)
0x1aa0|                        00 00 00 00 00 00 00 00|        ........|          size: 0 0x1aa8-0x1ab0 (8)
      |                                               |                |        [32]{}: symbol 0x1ab0-0x1ac8 (24)
0x1ab0|0c 00 00 00                                    |....            |          name: "crti.o" (12) 0x1ab0-0x1ab4 (4)
0x1ab0|            04                                 |    .           |          bind: "local" (0) 0x1ab4-0x1ab4.4 (0.4)
0x1ab0|            04                                 |    .           |          type: "file" (4) 0x1ab4.4-0x1ab5 (0.4)
0x1ab0|               00                              |     .          |          other_unused: 0 0x1ab5-0x1ab5.6 (0.6)
0x1ab0|               00                              |     .          |          visibility: "default" (0) 0x1ab5.6-0x1ab6 (0.2)
0x1ab0|                  f1 ff                        |      ..        |          shndx: 65521 0x1ab6-0x1ab8 (2)
0x1ab0|                        00 00 00 00 00 00 00 00|        ........|          value: 0 0x1ab8-0x1ac0 (8)
0x1ac0|00 00 00 00 00 00 00 00                        |........        |          size: 0 0x1ac0-0x1ac8 (8)
      |                                               |                |        [33]{}: symbol 0x1ac8-0x1ae0 (24)
0x1ac0|                        09 00 00 00            |        ....    |          name: "$x" (9) 0x1ac8-0x1acc (4)
0x1ac0|                                    00         |            .   |          bind: "local" (0) 0x1acc-0x1acc.4 (0.4)
0x1ac0|                                    00         |            .   |          type: "notype" (0) 0x1acc.4-0x1acd (0.4)
0x1ac0|                                       00      |             .  |          other_unused: 0 0x1acd-0x1acd.6 (0.6)
0x1ac0|                                       00      |             .  |          visibility: "default" (0) 0x1acd.6-0x1ace (0.2)
0x1ac0|                                          07 00|              ..|          shndx: 7 0x1ace-0x1ad0 (2)
0x1ad0|e0 05 00 00 00 00 00 00                        |........        |          value: 1504 0x1ad0-0x1ad8 (8)
0x1ad0|                        00 00 00 00 00 00 00 00|        ........|          size: 0 0x1ad8-0x1ae0 (8)
      |                                               |                |        [34]{}: symbol 0x1ae0-0x1af8 (24)
0x1ae0|09 00 00 00                                    |....            |          name: "$x" (9) 0x1ae0-0x1ae4 (4)
0x1ae0|            00                                 |    .           |          bind: "local" (0) 0x1ae4-0x1ae4.4 (0.4)
0x1ae0|            00                                 |    .           |          type: "notype" (0) 0x1ae4.4-0x1ae5 (0.4)
0x1ae0|               00                              |     .          |          other_unused: 0 0x1ae5-0x1ae5.6 (0.6)
0x1ae0|               00                              |     .          |          visibility: "default" (0) 0x1ae5.6-0x1ae6 (0.2)
0x1ae0|                  0a 00                        |      ..        |          shndx: 10 0x1ae6-0x1ae8 (2)
0x1ae0|                        00 08 00 00 00 00 00 00|        ........|          value: 2048 0x1ae8-0x1af0 (8)
0x1af0|00 00 00 00 00 00 00 00                        |........        |          size: 0 0x1af0-0x1af8 (8)
      |                                               |                |        [35]{}: symbol 0x1af8-0x1b10 (24)
0x1af0|                        13 00 00 00            |        ....    |          name: "crtn.o" (19) 0x1af8-0x1afc (4)
0x1af0|                                    04         |            .   |          bind: "local" (0) 0x1afc-0x1afc.4 (0.4)
0x1af0|                                    04         |            .   |          type: "file" (4) 0x1afc.4-0x1afd (0.4)
0x1af0|                                       00      |             .  |          other_unused: 0 0x1afd-0x1afd.6 (0.6)
0x1af0|                                       00      |             .  |          visibility: "default" (0) 0x1afd.6-0x1afe (0.2)
0x1af0|                                          f1 ff|              ..|          shndx: 65521 0x1afe-0x1b00 (2)
0x1b00|00 00 00 00 00 00 00 00                        |........        |          value: 0 0x1b00-0x1b08 (8)
0x1b00|                        00 00 00 00 00 00 00 00|        ........|          size: 0 0x1b08-0x1b10 (8)
      |                                               |                |        [36]{}: symbol 0x1b10-0x1b28 (24)
0x1b10|09 00 00 00                                    |....            |          name: "$x" (9) 0x1b10-0x1b14 (4)
0x1b10|            00                                 |    .           |          bind: "local" (0) 0x1b14-0x1b14.4 (0.4)
0x1b10|            00                                 |    .           |          type: "notype" (0) 0x1b14.4-0x1b15 (0.4)
0x1b10|               00                              |     .          |          other_unused: 0 0x1b15-0x1b15.6 (0.6)
0x1b10|               00                              |     .          |          visibility: "default" (0) 0x1b15.6-0x1b16 (0.2)
0x1b10|                  07 00                        |      ..        |          shndx: 7 0x1b16-0x1b18 (2)
0x1b10|                        e8 05 00 00 00 00 00 00|        ........|          value: 1512 0x1b18-0x1b20 (8)
0x1b20|00 00 00 00 00 00 00 00                        |........        |          size: 0 0x1b20-0x1b28 (8)
      |                                               |                |        [37]{}: symbol 0x1b28-0x1b40 (24)
0x1b20|                        09 00 00 00            |        ....    |          name: "$x" (9) 0x1b28-0x1b2c (4)
0x1b20|                                    00         |            .   |          bind: "local" (0) 0x1b2c-0x1b2c.4 (0.4)
0x1b20|                                    00         |            .   |          type: "notype" (0) 0x1b2c.4-0x1b2d (0.4)
0x1b20|                                       00      |             .  |          other_unused: 0 0x1b2d-0x1b2d.6 (0.6)
0x1b20|                                       00      |             .  |          visibility: "default" (0) 0x1b2d.6-0x1b2e (0.2)
0x1b20|                                          0a 00|              ..|          shndx: 10 0x1b2e-0x1b30 (2)
0x1b30|08 08 00 00 00 00 00 00                        |........        |          value: 2056 0x1b30-0x1b38 (8)
0x1b30|                        00 00 00 00 00 00 00 00|        ........|          size: 0 0x1b38-0x1b40 (8)
      |                                               |                |        [38]{}: symbol 0x1b40-0x1b58 (24)
0x1b40|1a 00 00 00                                    |....            |          name: "crtstuff.c" (26) 0x1b40-0x1b44 (4)
0x1b40|            04                                 |    .           |          bind: "local" (0) 0x1b44-0x1b44.4 (0.4)
0x1b40|            04                                 |    .           |          type: "file" (4) 0x1b44.4-0x1b45 (0.4)
0x1b40|               00                              |     .          |          other_unused: 0 0x1b45-0x1b45.6 (0.6)
0x1b40|               00                              |     .          |          visibility: "default" (0) 0x1b45.6-0x1b46 (0.2)
0x1b40|                  f1 ff                        |      ..        |          shndx: 65521 0x1b46-0x1b48 (2)
0x1b40|                        00 00 00 00 00 00 00 00|        ........|          value: 0 0x1b48-0x1b50 (8)
0x1b50|00 00 00 00 00 00 00 00                        |........        |          size: 0 0x1b50-0x1b58 (8)
      |                                               |                |        [39]{}: symbol 0x1b58-0x1b70 (24)
0x1b50|                        25 00 00 00            |        %...    |          name: "$d" (37) 0x1b58-0x1b5c (4)
0x1b50|                                    00         |            .   |          bind: "local" (0) 0x1b5c-0x1b5c.4 (0.4)
0x1b50|                                    00         |            .   |          type: "notype" (0) 0x1b5c.4-0x1b5d (0.4)
0x1b50|                                       00      |             .  |          other_unused: 0 0x1b5d-0x1b5d.6 (0.6)
0x1b50|                                       00      |             .  |          visibility: "default" (0) 0x1b5d.6-0x1b5e (0.2)
0x1b50|                                          0d 00|              ..|          shndx: 13 0x1b5e-0x1b60 (2)
0x1b60|50 08 00 00 00 00 00 00                        |P.......        |          value: 2128 0x1b60-0x1b68 (8)
0x1b60|                        00 00 00 00 00 00 00 00|        ........|          size: 0 0x1b68-0x1b70 (8)
      |                                               |                |        [40]{}: symbol 0x1b70-0x1b88 (24)
0x1b70|28 00 00 00                                    |(...            |          name: "__EH_FRAME_BEGIN__" (40) 0x1b70-0x1b74 (4)
0x1b70|            01                                 |    .           |          bind: "local" (0) 0x1b74-0x1b74.4 (0.4)
0x1b70|            01                                 |    .           |          type: "object" (1) 0x1b74.4-0x1b75 (0.4)
0x1b70|               00                              |     .          |          other_unused: 0 0x1b75-0x1b75.6 (0.6)
0x1b70|               00                              |     .          |          visibility: "default" (0) 0x1b75.6-0x1b76 (0.2)
0x1b70|                  0d 00                        |      ..        |          shndx: 13 0x1b76-0x1b78 (2)
0x1b70|                        50 08 00 00 00 00 00 00|        P.......|          value: 2128 0x1b78-0x1b80 (8)
0x1b80|00 00 00 00 00 00 00 00                        |........        |          size: 0 0x1b80-0x1b88 (8)
      |                                               |                |        [41]{}: symbol 0x1b88-0x1ba0 (24)
0x1b80|                        09 00 00 00            |        ....    |          name: "$x" (9) 0x1b88-0x1b8c (4)
0x1b80|                                    00         |            .   |          bind: "local" (0) 0x1b8c-0x1b8c.4 (0.4)
0x1b80|                                    00         |            .   |          type: "notype" (0) 0x1b8c.4-0x1b8d (0.4)
0x1b80|                                       00      |             .  |          other_unused: 0 0x1b8d-0x1b8d.6 (0.6)
0x1b80|                                       00      |             .  |          visibility: "default" (0) 0x1b8d.6-0x1b8e (0.2)
0x1b80|                                          09 00|              ..|          shndx: 9 0x1b8e-0x1b90 (2)
0x1b90|c0 06 00 00 00 00 00 00                        |........        |          value: 1728 0x1b90-0x1b98 (8)
0x1b90|                        00 00 00 00 00 00 00 00|        ........|          size: 0 0x1b98-0x1ba0 (8)
      |                                               |                |        [42]{}: symbol 0x1ba0-0x1bb8 (24)
0x1ba0|3b 00 00 00                                    |;...            |          name: "deregister_tm_clones" (59) 0x1ba0-0x1ba4 (4)
0x1ba0|            02                                 |    .           |          bind: "local" (0) 0x1ba4-0x1ba4.4 (0.4)
0x1ba0|            02                                 |    .           |          type: "func" (2) 0x1ba4.4-0x1ba5 (0.4)
0x1ba0|               00                              |     .          |          other_unused: 0 0x1ba5-0x1ba5.6 (0.6)
0x1ba0|               00                              |     .          |          visibility: "default" (0) 0x1ba5.6-0x1ba6 (0.2)
0x1ba0|                  09 00                        |      ..        |          shndx: 9 0x1ba6-0x1ba8 (2)
0x1ba0|                        c0 06 00 00 00 00 00 00|        ........|          value: 1728 0x1ba8-0x1bb0 (8)
0x1bb0|00 00 00 00 00 00 00 00                        |........        |          size: 0 0x1bb0-0x1bb8 (8)
      |                                               |                |        [43]{}: symbol 0x1bb8-0x1bd0 (24)
0x1bb0|                        3d 00 00 00            |        =...    |          name: "register_tm_clones" (61) 0x1bb8-0x1bbc (4)
0x1bb0|                                    02         |            .   |          bind: "local" (0) 0x1bbc-0x1bbc.4 (0.4)
0x1bb0|                                    02         |            .   |          type: "func" (2) 0x1bbc.4-0x1bbd (0.4)
0x1bb0|                                       00      |             .  |          other_unused: 0 0x1bbd-0x1bbd.6 (0.6)
0x1bb0|                                       00      |             .  |          visibility: "default" (0) 0x1bbd.6-0x1bbe (0.2)
0x1bb0|                                          09 00|              ..|          shndx: 9 0x1bbe-0x1bc0 (2)
0x1bc0|f0 06 00 00 00 00 00 00                        |........        |          value: 1776 0x1bc0-0x1bc8 (8)
0x1bc0|                        00 00 00 00 00 00 00 00|        ........|          size: 0 0x1bc8-0x1bd0 (8)
      |                                               |                |        [44]{}: symbol 0x1bd0-0x1be8 (24)
0x1bd0|25 00 00 00                                    |%...            |          name: "$d" (37) 0x1bd0-0x1bd4 (4)
0x1bd0|            00                                 |    .           |          bind: "local" (0) 0x1bd4-0x1bd4.4 (0.4)
0x1bd0|            00                                 |    .           |          type: "notype" (0) 0x1bd4.4-0x1bd5 (0.4)
0x1bd0|               00                              |     .          |          other_unused: 0 0x1bd5-0x1bd5.6 (0.6)
0x1bd0|               00                              |     .          |          visibility: "default" (0) 0x1bd5.6-0x1bd6 (0.2)
0x1bd0|                  12 00                        |      ..        |          shndx: 18 0x1bd6-0x1bd8 (2)
0x1bd0|                        00 10 01 00 00 00 00 00|        ........|          value: 69632 0x1bd8-0x1be0 (8)
0x1be0|00 00 00 00 00 00 00 00                        |........        |          size: 0 0x1be0-0x1be8 (8)
      |                                               |                |        [45]{}: symbol 0x1be8-0x1c00 (24)
0x1be0|                        50 00 00 00            |        P...    |          name: "__do_global_dtors_aux" (80) 0x1be8-0x1bec (4)
0x1be0|                                    02         |            .   |          bind: "local" (0) 0x1bec-0x1bec.4 (0.4)
0x1be0|                                    02         |            .   |          type: "func" (2) 0x1bec.4-0x1bed (0.4)
0x1be0|                                       00      |             .  |          other_unused: 0 0x1bed-0x1bed.6 (0.6)
0x1be0|                                       00      |             .  |          visibility: "default" (0) 0x1bed.6-0x1bee (0.2)
0x1be0|                                          09 00|              ..|          shndx: 9 0x1bee-0x1bf0 (2)
0x1bf0|30 07 00 00 00 00 00 00                        |0.......        |          value: 1840 0x1bf0-0x1bf8 (8)
0x1bf0|                        00 00 00 00 00 00 00 00|        ........|          size: 0 0x1bf8-0x1c00 (8)
      |                                               |                |        [46]{}: symbol 0x1c00-0x1c18 (24)
0x1c00|66 00 00 00                                    |f...            |          name: "completed.1" (102) 0x1c00-0x1c04 (4)
0x1c00|            01                                 |    .           |          bind: "local" (0) 0x1c04-0x1c04.4 (0.4)
0x1c00|            01                                 |    .           |          type: "object" (1) 0x1c04.4-0x1c05 (0.4)
0x1c00|               00                              |     .          |          other_unused: 0 0x1c05-0x1c05.6 (0.6)
0x1c00|               00                              |     .          |          visibility: "default" (0) 0x1c05.6-0x1c06 (0.2)
0x1c00|                  13 00                        |      ..        |          shndx: 19 0x1c06-0x1c08 (2)
0x1c00|                        08 10 01 00 00 00 00 00|        ........|          value: 69640 0x1c08-0x1c10 (8)
0x1c10|01 00 00 00 00 00 00 00                        |........        |          size: 1 0x1c10-0x1c18 (8)
      |                                               |                |        [47]{}: symbol 0x1c18-0x1c30 (24)
0x1c10|                        25 00 00 00            |        %...    |          name: "$d" (37) 0x1c18-0x1c1c (4)
0x1c10|                                    00         |            .   |          bind: "local" (0) 0x1c1c-0x1c1c.4 (0.4)
0x1c10|                                    00         |            .   |          type: "notype" (0) 0x1c1c.4-0x1c1d (0.4)
0x1c10|                                       00      |             .  |          other_unused: 0 0x1c1d-0x1c1d.6 (0.6)
0x1c10|                                       00      |             .  |          visibility: "default" (0) 0x1c1d.6-0x1c1e (0.2)
0x1c10|                                          0f 00|              ..|          shndx: 15 0x1c1e-0x1c20 (2)
0x1c20|98 0d 01 00 00 00 00 00                        |........        |          value: 69016 0x1c20-0x1c28 (8)
0x1c20|                        00 00 00 00 00 00 00 00|        ........|          size: 0 0x1c28-0x1c30 (8)
      |                                               |                |        [48]{}: symbol 0x1c30-0x1c48 (24)
0x1c30|72 00 00 00                                    |r...            |          name: "__do_global_dtors_aux_fini_array_entry" (114) 0x1c30-0x1c34 (4)
0x1c30|            01                                 |    .           |          bind: "local" (0) 0x1c34-0x1c34.4 (0.4)
0x1c30|            01                                 |    .           |          type: "object" (1) 0x1c34.4-0x1c35 (0.4)
0x1c30|               00                              |     .          |          other_unused: 0 0x1c35-0x1c35.6 (0.6)
0x1c30|               00                              |     .          |          visibility: "default" (0) 0x1c35.6-0x1c36 (0.2)
0x1c30|                  0f 00                        |      ..        |          shndx: 15 0x1c36-0x1c38 (2)
0x1c30|                        98 0d 01 00 00 00 00 00|        ........|          value: 69016 0x1c38-0x1c40 (8)
0x1c40|00 00 00 00 00 00 00 00                        |........        |          size: 0 0x1c40-0x1c48 (8)
      |                                               |                |        [49]{}: symbol 0x1c48-0x1c60 (24)
0x1c40|                        99 00 00 00            |        ....    |          name: "frame_dummy" (153) 0x1c48-0x1c4c (4)
0x1c40|                                    02         |            .   |          bind: "local" (0) 0x1c4c-0x1c4c.4 (0.4)
0x1c40|                                    02         |            .   |          type: "func" (2) 0x1c4c.4-0x1c4d (0.4)
0x1c40|                                       00      |             .  |          other_unused: 0 0x1c4d-0x1c4d.6 (0.6)
0x1c40|                                       00      |             .  |          visibility: "default" (0) 0x1c4d.6-0x1c4e (0.2)
0x1c40|                                          09 00|              ..|          shndx: 9 0x1c4e-0x1c50 (2)
0x1c50|90 07 00 00 00 00 00 00                        |........        |          value: 1936 0x1c50-0x1c58 (8)
0x1c50|                        00 00 00 00 00 00 00 00|        ........|          size: 0 0x1c58-0x1c60 (8)
      |                                               |                |        [50]{}: symbol 0x1c60-0x1c78 (24)
0x1c60|a5 00 00 00                                    |....            |          name: "object.0" (165) 0x1c60-0x1c64 (4)
0x1c60|            01                                 |    .           |          bind: "local" (0) 0x1c64-0x1c64.4 (0.4)
0x1c60|            01                                 |    .           |          type: "object" (1) 0x1c64.4-0x1c65 (0.4)
0x1c60|               00                              |     .          |          other_unused: 0 0x1c65-0x1c65.6 (0.6)
0x1c60|               00                              |     .          |          visibility: "default" (0) 0x1c65.6-0x1c66 (0.2)
0x1c60|                  13 00                        |      ..        |          shndx: 19 0x1c66-0x1c68 (2)
0x1c60|                        10 10 01 00 00 00 00 00|        ........|          value: 69648 0x1c68-0x1c70 (8)
0x1c70|30 00 00 00 00 00 00 00                        |0.......        |          size: 48 0x1c70-0x1c78 (8)
      |                                               |                |        [51]{}: symbol 0x1c78-0x1c90 (24)
0x1c70|                        25 00 00 00            |        %...    |          name: "$d" (37) 0x1c78-0x1c7c (4)
0x1c70|                                    00         |            .   |          bind: "local" (0) 0x1c7c-0x1c7c.4 (0.4)
0x1c70|                                    00         |            .   |          type: "notype" (0) 0x1c7c.4-0x1c7d (0.4)
0x1c70|                                       00      |             .  |          other_unused: 0 0x1c7d-0x1c7d.6 (0.6)
0x1c70|                                       00      |             .  |          visibility: "default" (0) 0x1c7d.6-0x1c7e (0.2)
0x1c70|                                          0e 00|              ..|          shndx: 14 0x1c7e-0x1c80 (2)
0x1c80|90 0d 01 00 00 00 00 00                        |........        |          value: 69008 0x1c80-0x1c88 (8)
0x1c80|                        00 00 00 00 00 00 00 00|        ........|          size: 0 0x1c88-0x1c90 (8)
      |                                               |                |        [52]{}: symbol 0x1c90-0x1ca8 (24)
0x1c90|ae 00 00 00                                    |....            |          name: "__frame_dummy_init_array_entry" (174) 0x1c90-0x1c94 (4)
0x1c90|            01                                 |    .           |          bind: "local" (0) 0x1c94-0x1c94.4 (0.4)
0x1c90|            01                                 |    .           |          type: "object" (1) 0x1c94.4-0x1c95 (0.4)
0x1c90|               00                              |     .          |          other_unused: 0 0x1c95-0x1c95.6 (0.6)
0x1c90|               00                              |     .          |          visibility: "default" (0) 0x1c95.6-0x1c96 (0.2)
0x1c90|                  0e 00                        |      ..        |          shndx: 14 0x1c96-0x1c98 (2)
0x1c90|                        90 0d 01 00 00 00 00 00|        ........|          value: 69008 0x1c98-0x1ca0 (8)
0x1ca0|00 00 00 00 00 00 00 00                        |........        |          size: 0 0x1ca0-0x1ca8 (8)
      |                                               |                |        [53]{}: symbol 0x1ca8-0x1cc0 (24)
0x1ca0|                        25 00 00 00            |        %...    |          name: "$d" (37) 0x1ca8-0x1cac (4)
0x1ca0|                                    00         |            .   |          bind: "local" (0) 0x1cac-0x1cac.4 (0.4)
0x1ca0|                                    00         |            .   |          type: "notype" (0) 0x1cac.4-0x1cad (0.4)
0x1ca0|                                       00      |             .  |          other_unused: 0 0x1cad-0x1cad.6 (0.6)
0x1ca0|                                       00      |             .  |          visibility: "default" (0) 0x1cad.6-0x1cae (0.2)
0x1ca0|                                          13 00|              ..|          shndx: 19 0x1cae-0x1cb0 (2)
0x1cb0|09 10 01 00 00 00 00 00                        |........        |          value: 69641 0x1cb0-0x1cb8 (8)
0x1cb0|                        00 00 00 00 00 00 00 00|        ........|          size: 0 0x1cb8-0x1cc0 (8)
      |                                               |                |        [54]{}: symbol 0x1cc0-0x1cd8 (24)
0x1cc0|cd 00 00 00                                    |....            |          name: "a.c" (205) 0x1cc0-0x1cc4 (4)
0x1cc0|            04                                 |    .           |          bind: "local" (0) 0x1cc4-0x1cc4.4 (0.4)
0x1cc0|            04                                 |    .           |          type: "file" (4) 0x1cc4.4-0x1cc5 (0.4)
0x1cc0|               00                              |     .          |          other_unused: 0 0x1cc5-0x1cc5.6 (0.6)
0x1cc0|               00                              |     .          |          visibility: "default" (0) 0x1cc5.6-0x1cc6 (0.2)
0x1cc0|                  f1 ff                        |      ..        |          shndx: 65521 0x1cc6-0x1cc8 (2)
0x1cc0|                        00 00 00 00 00 00 00 00|        ........|          value: 0 0x1cc8-0x1cd0 (8)
0x1cd0|00 00 00 00 00 00 00 00                        |........        |          size: 0 0x1cd0-0x1cd8 (8)
      |                                               |                |        [55]{}: symbol 0x1cd8-0x1cf0 (24)
0x1cd0|                        25 00 00 00            |        %...    |          name: "$d" (37) 0x1cd8-0x1cdc (4)
0x1cd0|                                    00         |            .   |          bind: "local" (0) 0x1cdc-0x1cdc.4 (0.4)
0x1cd0|                                    00         |            .   |          type: "notype" (0) 0x1cdc.4-0x1cdd (0.4)
0x1cd0|                                       00      |             .  |          other_unused: 0 0x1cdd-0x1cdd.6 (0.6)
0x1cd0|                                       00      |             .  |          visibility: "default" (0) 0x1cdd.6-0x1cde (0.2)
0x1cd0|                                          0b 00|              ..|          shndx: 11 0x1cde-0x1ce0 (2)
0x1ce0|10 08 00 00 00 00 00 00                        |........        |          value: 2064 0x1ce0-0x1ce8 (8)
0x1ce0|                        00 00 00 00 00 00 00 00|        ........|          size: 0 0x1ce8-0x1cf0 (8)
      |                                               |                |        [56]{}: symbol 0x1cf0-0x1d08 (24)
0x1cf0|09 00 00 00                                    |....            |          name: "$x" (9) 0x1cf0-0x1cf4 (4)
0x1cf0|            00                                 |    .           |          bind: "local" (0) 0x1cf4-0x1cf4.4 (0.4)
0x1cf0|            00                                 |    .           |          type: "notype" (0) 0x1cf4.4-0x1cf5 (0.4)
0x1cf0|               00                              |     .          |          other_unused: 0 0x1cf5-0x1cf5.6 (0.6)
0x1cf0|               00                              |     .          |          visibility: "default" (0) 0x1cf5.6-0x1cf6 (0.2)
0x1cf0|                  09 00                        |      ..        |          shndx: 9 0x1cf6-0x1cf8 (2)
0x1cf0|                        c4 07 00 00 00 00 00 00|        ........|          value: 1988 0x1cf8-0x1d00 (8)
0x1d00|00 00 00 00 00 00 00 00                        |........        |          size: 0 0x1d00-0x1d08 (8)
      |                                               |                |        [57]{}: symbol 0x1d08-0x1d20 (24)
0x1d00|                        25 00 00 00            |        %...    |          name: "$d" (37) 0x1d08-0x1d0c (4)
0x1d00|                                    00         |            .   |          bind: "local" (0) 0x1d0c-0x1d0c.4 (0.4)
0x1d00|                                    00         |            .   |          type: "notype" (0) 0x1d0c.4-0x1d0d (0.4)
0x1d00|                                       00      |             .  |          other_unused: 0 0x1d0d-0x1d0d.6 (0.6)
0x1d00|                                       00      |             .  |          visibility: "default" (0) 0x1d0d.6-0x1d0e (0.2)
0x1d00|                                          0d 00|              ..|          shndx: 13 0x1d0e-0x1d10 (2)
0x1d10|d0 08 00 00 00 00 00 00                        |........        |          value: 2256 0x1d10-0x1d18 (8)
0x1d10|                        00 00 00 00 00 00 00 00|        ........|          size: 0 0x1d18-0x1d20 (8)
      |                                               |                |        [58]{}: symbol 0x1d20-0x1d38 (24)
0x1d20|1a 00 00 00                                    |....            |          name: "crtstuff.c" (26) 0x1d20-0x1d24 (4)
0x1d20|            04                                 |    .           |          bind: "local" (0) 0x1d24-0x1d24.4 (0.4)
0x1d20|            04                                 |    .           |          type: "file" (4) 0x1d24.4-0x1d25 (0.4)
0x1d20|               00                              |     .          |          other_unused: 0 0x1d25-0x1d25.6 (0.6)
0x1d20|               00                              |     .          |          visibility: "default" (0) 0x1d25.6-0x1d26 (0.2)
0x1d20|                  f1 ff                        |      ..        |          shndx: 65521 0x1d26-0x1d28 (2)
0x1d20|                        00 00 00 00 00 00 00 00|        ........|          value: 0 0x1d28-0x1d30 (8)
0x1d30|00 00 00 00 00 00 00 00                        |........        |          size: 0 0x1d30-0x1d38 (8)
      |                                               |                |        [59]{}: symbol 0x1d38-0x1d50 (24)
0x1d30|                        25 00 00 00            |        %...    |          name: "$d" (37) 0x1d38-0x1d3c (4)
0x1d30|                                    00         |            .   |          bind: "local" (0) 0x1d3c-0x1d3c.4 (0.4)
0x1d30|                                    00         |            .   |          type: "notype" (0) 0x1d3c.4-0x1d3d (0.4)
0x1d30|                                       00      |             .  |          other_unused: 0 0x1d3d-0x1d3d.6 (0.6)
0x1d30|                                       00      |             .  |          visibility: "default" (0) 0x1d3d.6-0x1d3e (0.2)
0x1d30|                                          0d 00|              ..|          shndx: 13 0x1d3e-0x1d40 (2)
0x1d40|10 09 00 00 00 00 00 00                        |........        |          value: 2320 0x1d40-0x1d48 (8)
0x1d40|                        00 00 00 00 00 00 00 00|        ........|          size: 0 0x1d48-0x1d50 (8)
      |                                               |                |        [60]{}: symbol 0x1d50-0x1d68 (24)
0x1d50|d1 00 00 00                                    |....            |          name: "__FRAME_END__" (209) 0x1d50-0x1d54 (4)
0x1d50|            01                                 |    .           |          bind: "local" (0) 0x1d54-0x1d54.4 (0.4)
0x1d50|            01                                 |    .           |          type: "object" (1) 0x1d54.4-0x1d55 (0.4)
0x1d50|               00                              |     .          |          other_unused: 0 0x1d55-0x1d55.6 (0.6)
0x1d50|               00                              |     .          |          visibility: "default" (0) 0x1d55.6-0x1d56 (0.2)
0x1d50|                  0d 00                        |      ..        |          shndx: 13 0x1d56-0x1d58 (2)
0x1d50|                        10 09 00 00 00 00 00 00|        ........|          value: 2320 0x1d58-0x1d60 (8)
0x1d60|00 00 00 00 00 00 00 00                        |........        |          size: 0 0x1d60-0x1d68 (8)
      |                                               |                |        [61]{}: symbol 0x1d68-0x1d80 (24)
0x1d60|                        00 00 00 00            |        ....    |          name: "" (0) 0x1d68-0x1d6c (4)
0x1d60|                                    04         |            .   |          bind: "local" (0) 0x1d6c-0x1d6c.4 (0.4)
0x1d60|                                    04         |            .   |          type: "file" (4) 0x1d6c.4-0x1d6d (0.4)
0x1d60|                                       00      |             .  |          other_unused: 0 0x1d6d-0x1d6d.6 (0.6)
0x1d60|                                       00      |             .  |          visibility: "default" (0) 0x1d6d.6-0x1d6e (0.2)
0x1d60|                                          f1 ff|              ..|          shndx: 65521 0x1d6e-0x1d70 (2)
0x1d70|00 00 00 00 00 00 00 00                        |........        |          value: 0 0x1d70-0x1d78 (8)
0x1d70|                        00 00 00 00 00 00 00 00|        ........|          size: 0 0x1d78-0x1d80 (8)
      |                                               |                |        [62]{}: symbol 0x1d80-0x1d98 (24)
0x1d80|df 00 00 00                                    |....            |          name: "_DYNAMIC" (223) 0x1d80-0x1d84 (4)
0x1d80|            01                                 |    .           |          bind: "local" (0) 0x1d84-0x1d84.4 (0.4)
0x1d80|            01                                 |    .           |          type: "object" (1) 0x1d84.4-0x1d85 (0.4)
0x1d80|               00                              |     .          |          other_unused: 0 0x1d85-0x1d85.6 (0.6)
0x1d80|               00                              |     .          |          visibility: "default" (0) 0x1d85.6-0x1d86 (0.2)
0x1d80|                  f1 ff                        |      ..        |          shndx: 65521 0x1d86-0x1d88 (2)
0x1d80|                        a0 0d 01 00 00 00 00 00|        ........|          value: 69024 0x1d88-0x1d90 (8)
0x1d90|00 00 00 00 00 00 00 00                        |........        |          size: 0 0x1d90-0x1d98 (8)
      |                                               |                |        [63]{}: symbol 0x1d98-0x1db0 (24)
0x1d90|                        e8 00 00 00            |        ....    |          name: "__GNU_EH_FRAME_HDR" (232) 0x1d98-0x1d9c (4)
0x1d90|                                    00         |            .   |          bind: "local" (0) 0x1d9c-0x1d9c.4 (0.4)
0x1d90|                                    00         |            .   |          type: "notype" (0) 0x1d9c.4-0x1d9d (0.4)
0x1d90|                                       00      |             .  |          other_unused: 0 0x1d9d-0x1d9d.6 (0.6)
0x1d90|                                       00      |             .  |          visibility: "default" (0) 0x1d9d.6-0x1d9e (0.2)
0x1d90|                                          0c 00|              ..|          shndx: 12 0x1d9e-0x1da0 (2)
0x1da0|14 08 00 00 00 00 00 00                        |........        |          value: 2068 0x1da0-0x1da8 (8)
0x1da0|                        00 00 00 00 00 00 00 00|        ........|          size: 0 0x1da8-0x1db0 (8)
      |                                               |                |        [64]{}: symbol 0x1db0-0x1dc8 (24)
0x1db0|fb 00 00 00                                    |....            |          name: "_GLOBAL_OFFSET_TABLE_" (251) 0x1db0-0x1db4 (4)
0x1db0|            01                                 |    .           |          bind: "local" (0) 0x1db4-0x1db4.4 (0.4)
0x1db0|            01                                 |    .           |          type: "object" (1) 0x1db4.4-0x1db5 (0.4)
0x1db0|               00                              |     .          |          other_unused: 0 0x1db5-0x1db5.6 (0.6)
0x1db0|               00                              |     .          |          visibility: "default" (0) 0x1db5.6-0x1db6 (0.2)
0x1db0|                  f1 ff                        |      ..        |          shndx: 65521 0x1db6-0x1db8 (2)
0x1db0|                        b8 0f 01 00 00 00 00 00|        ........|          value: 69560 0x1db8-0x1dc0 (8)
0x1dc0|00 00 00 00 00 00 00 00                        |........        |          size: 0 0x1dc0-0x1dc8 (8)
      |                                               |                |        [65]{}: symbol 0x1dc8-0x1de0 (24)
0x1dc0|                        09 00 00 00            |        ....    |          name: "$x" (9) 0x1dc8-0x1dcc (4)
0x1dc0|                                    00         |            .   |          bind: "local" (0) 0x1dcc-0x1dcc.4 (0.4)
0x1dc0|                                    00         |            .   |          type: "notype" (0) 0x1dcc.4-0x1dcd (0.4)
0x1dc0|                                       00      |             .  |          other_unused: 0 0x1dcd-0x1dcd.6 (0.6)
0x1dc0|                                       00      |             .  |          visibility: "default" (0) 0x1dcd.6-0x1dce (0.2)
0x1dc0|                                          08 00|              ..|          shndx: 8 0x1dce-0x1dd0 (2)
0x1dd0|f0 05 00 00 00 00 00 00                        |........        |          value: 1520 0x1dd0-0x1dd8 (8)
0x1dd0|                        00 00 00 00 00 00 00 00|        ........|          size: 0 0x1dd8-0x1de0 (8)
      |                                               |                |        [66]{}: symbol 0x1de0-0x1df8 (24)
0x1de0|89 01 00 00                                    |....            |          name: "_bss_end__" (393) 0x1de0-0x1de4 (4)
0x1de0|            10                                 |    .           |          bind: "global" (1) 0x1de4-0x1de4.4 (0.4)
0x1de0|            10                                 |    .           |          type: "notype" (0) 0x1de4.4-0x1de5 (0.4)
0x1de0|               00                              |     .          |          other_unused: 0 0x1de5-0x1de5.6 (0.6)
0x1de0|               00                              |     .          |          visibility: "default" (0) 0x1de5.6-0x1de6 (0.2)
0x1de0|                  13 00                        |      ..        |          shndx: 19 0x1de6-0x1de8 (2)
0x1de0|                        40 10 01 00 00 00 00 00|        @.......|          value: 69696 0x1de8-0x1df0 (8)
0x1df0|00 00 00 00 00 00 00 00                        |........        |          size: 0 0x1df0-0x1df8 (8)
      |                                               |                |        [67]{}: symbol 0x1df8-0x1e10 (24)
0x1df0|                        11 01 00 00            |        ....    |          name: "__TMC_END__" (273) 0x1df8-0x1dfc (4)
0x1df0|                                    11         |            .   |          bind: "global" (1) 0x1dfc-0x1dfc.4 (0.4)
0x1df0|                                    11         |            .   |          type: "object" (1) 0x1dfc.4-0x1dfd (0.4)
0x1df0|                                       02      |             .  |          other_unused: 0 0x1dfd-0x1dfd.6 (0.6)
0x1df0|                                       02      |             .  |          visibility: "hidden" (2) 0x1dfd.6-0x1dfe (0.2)
0x1df0|                                          12 00|              ..|          shndx: 18 0x1dfe-0x1e00 (2)
0x1e00|08 10 01 00 00 00 00 00                        |........        |          value: 69640 0x1e00-0x1e08 (8)
0x1e00|                        00 00 00 00 00 00 00 00|        ........|          size: 0 0x1e08-0x1e10 (8)
      |                                               |                |        [68]{}: symbol 0x1e10-0x1e28 (24)
0x1e10|1d 01 00 00                                    |....            |          name: "puts" (285) 0x1e10-0x1e14 (4)
0x1e10|            12                                 |    .           |          bind: "global" (1) 0x1e14-0x1e14.4 (0.4)
0x1e10|            12                                 |    .           |          type: "func" (2) 0x1e14.4-0x1e15 (0.4)
0x1e10|               00                              |     .          |          other_unused: 0 0x1e15-0x1e15.6 (0.6)
0x1e10|               00                              |     .          |          visibility: "default" (0) 0x1e15.6-0x1e16 (0.2)
0x1e10|                  00 00                        |      ..        |          shndx: 0 0x1e16-0x1e18 (2)
0x1e10|                        00 00 00 00 00 00 00 00|        ........|          value: 0 0x1e18-0x1e20 (8)
0x1e20|00 00 00 00 00 00 00 00                        |........        |          size: 0 0x1e20-0x1e28 (8)
      |                                               |                |        [69]{}: symbol 0x1e28-0x1e40 (24)
0x1e20|                        22 01 00 00            |        "...    |          name: "__cxa_finalize" (290) 0x1e28-0x1e2c (4)
0x1e20|                                    22         |            "   |          bind: "weak" (2) 0x1e2c-0x1e2c.4 (0.4)
0x1e20|                                    22         |            "   |          type: "func" (2) 0x1e2c.4-0x1e2d (0.4)
0x1e20|                                       00      |             .  |          other_unused: 0 0x1e2d-0x1e2d.6 (0.6)
0x1e20|                                       00      |             .  |          visibility: "default" (0) 0x1e2d.6-0x1e2e (0.2)
0x1e20|                                          00 00|              ..|          shndx: 0 0x1e2e-0x1e30 (2)
0x1e30|00 00 00 00 00 00 00 00                        |........        |          value: 0 0x1e30-0x1e38 (8)
0x1e30|                        00 00 00 00 00 00 00 00|        ........|          size: 0 0x1e38-0x1e40 (8)
      |                                               |                |        [70]{}: symbol 0x1e40-0x1e58 (24)
0x1e40|31 01 00 00                                    |1...            |          name: "__bss_start__" (305) 0x1e40-0x1e44 (4)
0x1e40|            10                                 |    .           |          bind: "global" (1) 0x1e44-0x1e44.4 (0.4)
0x1e40|            10                                 |    .           |          type: "notype" (0) 0x1e44.4-0x1e45 (0.4)
0x1e40|               00                              |     .          |          other_unused: 0 0x1e45-0x1e45.6 (0.6)
0x1e40|               00                              |     .          |          visibility: "default" (0) 0x1e45.6-0x1e46 (0.2)
0x1e40|                  13 00                        |      ..        |          shndx: 19 0x1e46-0x1e48 (2)
0x1e40|                        08 10 01 00 00 00 00 00|        ........|          value: 69640 0x1e48-0x1e50 (8)
0x1e50|00 00 00 00 00 00 00 00                        |........        |          size: 0 0x1e50-0x1e58 (8)
      |                                               |                |        [71]{}: symbol 0x1e58-0x1e70 (24)
0x1e50|                        3f 01 00 00            |        ?...    |          name: "__dso_handle" (319) 0x1e58-0x1e5c (4)
0x1e50|                                    11         |            .   |          bind: "global" (1) 0x1e5c-0x1e5c.4 (0.4)
0x1e50|                                    11         |            .   |          type: "object" (1) 0x1e5c.4-0x1e5d (0.4)
0x1e50|                                       02      |             .  |          other_unused: 0 0x1e5d-0x1e5d.6 (0.6)
0x1e50|                                       02      |             .  |          visibility: "hidden" (2) 0x1e5d.6-0x1e5e (0.2)
0x1e50|                                          12 00|              ..|          shndx: 18 0x1e5e-0x1e60 (2)
0x1e60|00 10 01 00 00 00 00 00                        |........        |          value: 69632 0x1e60-0x1e68 (8)
0x1e60|                        00 00 00 00 00 00 00 00|        ........|          size: 0 0x1e68-0x1e70 (8)
      |                                               |                |        [72]{}: symbol 0x1e70-0x1e88 (24)
0x1e70|4c 01 00 00                                    |L...            |          name: "aaa" (332) 0x1e70-0x1e74 (4)
0x1e70|            12                                 |    .           |          bind: "global" (1) 0x1e74-0x1e74.4 (0.4)
0x1e70|            12                                 |    .           |          type: "func" (2) 0x1e74.4-0x1e75 (0.4)
0x1e70|               00                              |     .          |          other_unused: 0 0x1e75-0x1e75.6 (0.6)
0x1e70|               00                              |     .          |          visibility: "default" (0) 0x1e75.6-0x1e76 (0.2)
0x1e70|                  09 00                        |      ..        |          shndx: 9 0x1e76-0x1e78 (2)
0x1e70|                        c4 07 00 00 00 00 00 00|        ........|          value: 1988 0x1e78-0x1e80 (8)
0x1e80|20 00 00 00 00 00 00 00                        | .......        |          size: 32 0x1e80-0x1e88 (8)
      |                                               |                |        [73]{}: symbol 0x1e88-0x1ea0 (24)
0x1e80|                        50 01 00 00            |        P...    |          name: "_init" (336) 0x1e88-0x1e8c (4)
0x1e80|                                    12         |            .   |          bind: "global" (1) 0x1e8c-0x1e8c.4 (0.4)
0x1e80|                                    12         |            .   |          type: "func" (2) 0x1e8c.4-0x1e8d (0.4)
0x1e80|                                       00      |             .  |          other_unused: 0 0x1e8d-0x1e8d.6 (0.6)
0x1e80|                                       00      |             .  |          visibility: "default" (0) 0x1e8d.6-0x1e8e (0.2)
0x1e80|                                          07 00|              ..|          shndx: 7 0x1e8e-0x1e90 (2)
0x1e90|e0 05 00 00 00 00 00 00                        |........        |          value: 1504 0x1e90-0x1e98 (8)
0x1e90|                        04 00 00 00 00 00 00 00|        ........|          size: 4 0x1e98-0x1ea0 (8)
      |                                               |                |        [74]{}: symbol 0x1ea0-0x1eb8 (24)
0x1ea0|56 01 00 00                                    |V...            |          name: "__deregister_frame_info" (342) 0x1ea0-0x1ea4 (4)
0x1ea0|            20                                 |                |          bind: "weak" (2) 0x1ea4-0x1ea4.4 (0.4)
0x1ea0|            20                                 |                |          type: "notype" (0) 0x1ea4.4-0x1ea5 (0.4)
0x1ea0|               00                              |     .          |          other_unused: 0 0x1ea5-0x1ea5.6 (0.6)
0x1ea0|               00                              |     .          |          visibility: "default" (0) 0x1ea5.6-0x1ea6 (0.2)
0x1ea0|                  00 00                        |      ..        |          shndx: 0 0x1ea6-0x1ea8 (2)
0x1ea0|                        00 00 00 00 00 00 00 00|        ........|          value: 0 0x1ea8-0x1eb0 (8)
0x1eb0|00 00 00 00 00 00 00 00                        |........        |          size: 0 0x1eb0-0x1eb8 (8)
      |                                               |                |        [75]{}: symbol 0x1eb8-0x1ed0 (24)
0x1eb0|                        6e 01 00 00            |        n...    |          name: "_ITM_registerTMCloneTable" (366) 0x1eb8-0x1ebc (4)
0x1eb0|                                    20         |                |          bind: "weak" (2) 0x1ebc-0x1ebc.4 (0.4)
0x1eb0|                                    20         |                |          type: "notype" (0) 0x1ebc.4-0x1ebd (0.4)
0x1eb0|                                       00      |             .  |          other_unused: 0 0x1ebd-0x1ebd.6 (0.6)
0x1eb0|                                       00      |             .  |          visibility: "default" (0) 0x1ebd.6-0x1ebe (0.2)
0x1eb0|                                          00 00|              ..|          shndx: 0 0x1ebe-0x1ec0 (2)
0x1ec0|00 00 00 00 00 00 00 00                        |........        |          value: 0 0x1ec0-0x1ec8 (8)
0x1ec0|                        00 00 00 00 00 00 00 00|        ........|          size: 0 0x1ec8-0x1ed0 (8)
      |                                               |                |        [76]{}: symbol 0x1ed0-0x1ee8 (24)
0x1ed0|88 01 00 00                                    |....            |          name: "__bss_end__" (392) 0x1ed0-0x1ed4 (4)
0x1ed0|            10                                 |    .           |          bind: "global" (1) 0x1ed4-0x1ed4.4 (0.4)
0x1ed0|            10                                 |    .           |          type: "notype" (0) 0x1ed4.4-0x1ed5 (0.4)
0x1ed0|               00                              |     .          |          other_unused: 0 0x1ed5-0x1ed5.6 (0.6)
0x1ed0|               00                              |     .          |          visibility: "default" (0) 0x1ed5.6-0x1ed6 (0.2)
0x1ed0|                  13 00                        |      ..        |          shndx: 19 0x1ed6-0x1ed8 (2)
0x1ed0|                        40 10 01 00 00 00 00 00|        @.......|          value: 69696 0x1ed8-0x1ee0 (8)
0x1ee0|00 00 00 00 00 00 00 00                        |........        |          size: 0 0x1ee0-0x1ee8 (8)
      |                                               |                |        [77]{}: symbol 0x1ee8-0x1f00 (24)
0x1ee0|                        be 01 00 00            |        ....    |          name: "_start" (446) 0x1ee8-0x1eec (4)
0x1ee0|                                    12         |            .   |          bind: "global" (1) 0x1eec-0x1eec.4 (0.4)
0x1ee0|                                    12         |            .   |          type: "func" (2) 0x1eec.4-0x1eed (0.4)
0x1ee0|                                       00      |             .  |          other_unused: 0 0x1eed-0x1eed.6 (0.6)
0x1ee0|                                       00      |             .  |          visibility: "default" (0) 0x1eed.6-0x1eee (0.2)
0x1ee0|                                          09 00|              ..|          shndx: 9 0x1eee-0x1ef0 (2)
0x1ef0|70 06 00 00 00 00 00 00                        |p.......        |          value: 1648 0x1ef0-0x1ef8 (8)
0x1ef0|                        00 00 00 00 00 00 00 00|        ........|          size: 0 0x1ef8-0x1f00 (8)
      |                                               |                |        [78]{}: symbol 0x1f00-0x1f18 (24)
0x1f00|94 01 00 00                                    |....            |          name: "_start_c" (404) 0x1f00-0x1f04 (4)
0x1f00|            12                                 |    .           |          bind: "global" (1) 0x1f04-0x1f04.4 (0.4)
0x1f00|            12                                 |    .           |          type: "func" (2) 0x1f04.4-0x1f05 (0.4)
0x1f00|               00                              |     .          |          other_unused: 0 0x1f05-0x1f05.6 (0.6)
0x1f00|               00                              |     .          |          visibility: "default" (0) 0x1f05.6-0x1f06 (0.2)
0x1f00|                  09 00                        |      ..        |          shndx: 9 0x1f06-0x1f08 (2)
0x1f00|                        8c 06 00 00 00 00 00 00|        ........|          value: 1676 0x1f08-0x1f10 (8)
0x1f10|28 00 00 00 00 00 00 00                        |(.......        |          size: 40 0x1f10-0x1f18 (8)
      |                                               |                |        [79]{}: symbol 0x1f18-0x1f30 (24)
0x1f10|                        9d 01 00 00            |        ....    |          name: "_ITM_deregisterTMCloneTable" (413) 0x1f18-0x1f1c (4)
0x1f10|                                    20         |                |          bind: "weak" (2) 0x1f1c-0x1f1c.4 (0.4)
0x1f10|                                    20         |                |          type: "notype" (0) 0x1f1c.4-0x1f1d (0.4)
0x1f10|                                       00      |             .  |          other_unused: 0 0x1f1d-0x1f1d.6 (0.6)
0x1f10|                                       00      |             .  |          visibility: "default" (0) 0x1f1d.6-0x1f1e (0.2)
0x1f10|                                          00 00|              ..|          shndx: 0 0x1f1e-0x1f20 (2)
0x1f20|00 00 00 00 00 00 00 00                        |........        |          value: 0 0x1f20-0x1f28 (8)
0x1f20|                        00 00 00 00 00 00 00 00|        ........|          size: 0 0x1f28-0x1f30 (8)
      |                                               |                |        [80]{}: symbol 0x1f30-0x1f48 (24)
0x1f30|b9 01 00 00                                    |....            |          name: "__bss_start" (441) 0x1f30-0x1f34 (4)
0x1f30|            10                                 |    .           |          bind: "global" (1) 0x1f34-0x1f34.4 (0.4)
0x1f30|            10                                 |    .           |          type: "notype" (0) 0x1f34.4-0x1f35 (0.4)
0x1f30|               00                              |     .          |          other_unused: 0 0x1f35-0x1f35.6 (0.6)
0x1f30|               00                              |     .          |          visibility: "default" (0) 0x1f35.6-0x1f36 (0.2)
0x1f30|                  13 00                        |      ..        |          shndx: 19 0x1f36-0x1f38 (2)
0x1f30|                        08 10 01 00 00 00 00 00|        ........|          value: 69640 0x1f38-0x1f40 (8)
0x1f40|00 00 00 00 00 00 00 00                        |........        |          size: 0 0x1f40-0x1f48 (8)
      |                                               |                |        [81]{}: symbol 0x1f48-0x1f60 (24)
0x1f40|                        f7 01 00 00            |        ....    |          name: "main" (503) 0x1f48-0x1f4c (4)
0x1f40|                                    12         |            .   |          bind: "global" (1) 0x1f4c-0x1f4c.4 (0.4)
0x1f40|                                    12         |            .   |          type: "func" (2) 0x1f4c.4-0x1f4d (0.4)
0x1f40|                                       00      |             .  |          other_unused: 0 0x1f4d-0x1f4d.6 (0.6)
0x1f40|                                       00      |             .  |          visibility: "default" (0) 0x1f4d.6-0x1f4e (0.2)
0x1f40|                                          09 00|              ..|          shndx: 9 0x1f4e-0x1f50 (2)
0x1f50|e4 07 00 00 00 00 00 00                        |........        |          value: 2020 0x1f50-0x1f58 (8)
0x1f50|                        1c 00 00 00 00 00 00 00|        ........|          size: 28 0x1f58-0x1f60 (8)
      |                                               |                |        [82]{}: symbol 0x1f60-0x1f78 (24)
0x1f60|c5 01 00 00                                    |....            |          name: "__end__" (453) 0x1f60-0x1f64 (4)
0x1f60|            10                                 |    .           |          bind: "global" (1) 0x1f64-0x1f64.4 (0.4)
0x1f60|            10                                 |    .           |          type: "notype" (0) 0x1f64.4-0x1f65 (0.4)
0x1f60|               00                              |     .          |          other_unused: 0 0x1f65-0x1f65.6 (0.6)
0x1f60|               00                              |     .          |          visibility: "default" (0) 0x1f65.6-0x1f66 (0.2)
0x1f60|                  13 00                        |      ..        |          shndx: 19 0x1f66-0x1f68 (2)
0x1f60|                        40 10 01 00 00 00 00 00|        @.......|          value: 69696 0x1f68-0x1f70 (8)
0x1f70|00 00 00 00 00 00 00 00                        |........        |          size: 0 0x1f70-0x1f78 (8)
      |                                               |                |        [83]{}: symbol 0x1f78-0x1f90 (24)
0x1f70|                        cd 01 00 00            |        ....    |          name: "_fini" (461) 0x1f78-0x1f7c (4)
0x1f70|                                    12         |            .   |          bind: "global" (1) 0x1f7c-0x1f7c.4 (0.4)
0x1f70|                                    12         |            .   |          type: "func" (2) 0x1f7c.4-0x1f7d (0.4)
0x1f70|                                       00      |             .  |          other_unused: 0 0x1f7d-0x1f7d.6 (0.6)
0x1f70|                                       00      |             .  |          visibility: "default" (0) 0x1f7d.6-0x1f7e (0.2)
0x1f70|                                          0a 00|              ..|          shndx: 10 0x1f7e-0x1f80 (2)
0x1f80|00 08 00 00 00 00 00 00                        |........        |          value: 2048 0x1f80-0x1f88 (8)
0x1f80|                        04 00 00 00 00 00 00 00|        ........|          size: 4 0x1f88-0x1f90 (8)
      |                                               |                |        [84]{}: symbol 0x1f90-0x1fa8 (24)
0x1f90|d3 01 00 00                                    |....            |          name: "_edata" (467) 0x1f90-0x1f94 (4)
0x1f90|            10                                 |    .           |          bind: "global" (1) 0x1f94-0x1f94.4 (0.4)
0x1f90|            10                                 |    .           |          type: "notype" (0) 0x1f94.4-0x1f95 (0.4)
0x1f90|               00                              |     .          |          other_unused: 0 0x1f95-0x1f95.6 (0.6)
0x1f90|               00                              |     .          |          visibility: "default" (0) 0x1f95.6-0x1f96 (0.2)
0x1f90|                  12 00                        |      ..        |          shndx: 18 0x1f96-0x1f98 (2)
0x1f90|                        08 10 01 00 00 00 00 00|        ........|          value: 69640 0x1f98-0x1fa0 (8)
0x1fa0|00 00 00 00 00 00 00 00                        |........        |          size: 0 0x1fa0-0x1fa8 (8)
      |                                               |                |        [85]{}: symbol 0x1fa8-0x1fc0 (24)
0x1fa0|                        da 01 00 00            |        ....    |          name: "_end" (474) 0x1fa8-0x1fac (4)
0x1fa0|                                    10         |            .   |          bind: "global" (1) 0x1fac-0x1fac.4 (0.4)
0x1fa0|                                    10         |            .   |          type: "notype" (0) 0x1fac.4-0x1fad (0.4)
0x1fa0|                                       00      |             .  |          other_unused: 0 0x1fad-0x1fad.6 (0.6)
0x1fa0|                                       00      |             .  |          visibility: "default" (0) 0x1fad.6-0x1fae (0.2)
0x1fa0|                                          13 00|              ..|          shndx: 19 0x1fae-0x1fb0 (2)
0x1fb0|40 10 01 00 00 00 00 00                        |@.......        |          value: 69696 0x1fb0-0x1fb8 (8)
0x1fb0|                        00 00 00 00 00 00 00 00|        ........|          size: 0 0x1fb8-0x1fc0 (8)
      |                                               |                |        [86]{}: symbol 0x1fc0-0x1fd8 (24)
0x1fc0|df 01 00 00                                    |....            |          name: "libbbb_bbb" (479) 0x1fc0-0x1fc4 (4)
0x1fc0|            12                                 |    .           |          bind: "global" (1) 0x1fc4-0x1fc4.4 (0.4)
0x1fc0|            12                                 |    .           |          type: "func" (2) 0x1fc4.4-0x1fc5 (0.4)
0x1fc0|               00                              |     .          |          other_unused: 0 0x1fc5-0x1fc5.6 (0.6)
0x1fc0|               00                              |     .          |          visibility: "default" (0) 0x1fc5.6-0x1fc6 (0.2)
0x1fc0|                  00 00                        |      ..        |          shndx: 0 0x1fc6-0x1fc8 (2)
0x1fc0|                        00 00 00 00 00 00 00 00|        ........|          value: 0 0x1fc8-0x1fd0 (8)
0x1fd0|00 00 00 00 00 00 00 00                        |........        |          size: 0 0x1fd0-0x1fd8 (8)
      |                                               |                |        [87]{}: symbol 0x1fd8-0x1ff0 (24)
0x1fd0|                        ea 01 00 00            |        ....    |          name: "__libc_start_main" (490) 0x1fd8-0x1fdc (4)
0x1fd0|                                    12         |            .   |          bind: "global" (1) 0x1fdc-0x1fdc.4 (0.4)
0x1fd0|                                    12         |            .   |          type: "func" (2) 0x1fdc.4-0x1fdd (0.4)
0x1fd0|                                       00      |             .  |          other_unused: 0 0x1fdd-0x1fdd.6 (0.6)
0x1fd0|                                       00      |             .  |          visibility: "default" (0) 0x1fdd.6-0x1fde (0.2)
0x1fd0|                                          00 00|              ..|          shndx: 0 0x1fde-0x1fe0 (2)
0x1fe0|00 00 00 00 00 00 00 00                        |........        |          value: 0 0x1fe0-0x1fe8 (8)
0x1fe0|                        00 00 00 00 00 00 00 00|        ........|          size: 0 0x1fe8-0x1ff0 (8)
      |                                               |                |        [88]{}: symbol 0x1ff0-0x2008 (24)
0x1ff0|fc 01 00 00                                    |....            |          name: "__register_frame_info" (508) 0x1ff0-0x1ff4 (4)
0x1ff0|            20                                 |                |          bind: "weak" (2) 0x1ff4-0x1ff4.4 (0.4)
0x1ff0|            20                                 |                |          type: "notype" (0) 0x1ff4.4-0x1ff5 (0.4)
0x1ff0|               00                              |     .          |          other_unused: 0 0x1ff5-0x1ff5.6 (0.6)
0x1ff0|               00                              |     .          |          visibility: "default" (0) 0x1ff5.6-0x1ff6 (0.2)
0x1ff0|                  00 00                        |      ..        |          shndx: 0 0x1ff6-0x1ff8 (2)
0x1ff0|                        00 00 00 00 00 00 00 00|        ........|          value: 0 0x1ff8-0x2000 (8)
0x2000|00 00 00 00 00 00 00 00                        |........        |          size: 0 0x2000-0x2008 (8)
0x2a80|01 00 00 00                                    |....            |      name: ".symtab" (1) 0x2a80-0x2a84 (4)
0x2a80|            02 00 00 00                        |    ....        |      type: "symtab" (0x2) (Symbol table) 0x2a84-0x2a88 (4)
      |                                               |                |      flags{}: 0x2a88-0x2a90 (8)
0x2a80|                        00                     |        .       |        link_order: false 0x2a88-0x2a88.1 (0.1)
0x2a80|                        00                     |        .       |        info_link: false 0x2a88.1-0x2a88.2 (0.1)
0x2a80|                        00                     |        .       |        strings: false 0x2a88.2-0x2a88.3 (0.1)
0x2a80|                        00                     |        .       |        merge: false 0x2a88.3-0x2a88.4 (0.1)
0x2a80|                        00                     |        .       |        unused0: 0 0x2a88.4-0x2a88.5 (0.1)
0x2a80|                        00                     |        .       |        execinstr: false 0x2a88.5-0x2a88.6 (0.1)
0x2a80|                        00                     |        .       |        alloc: false 0x2a88.6-0x2a88.7 (0.1)
0x2a80|                        00                     |        .       |        write: false 0x2a88.7-0x2a89 (0.1)
0x2a80|                           00                  |         .      |        tls: false 0x2a89-0x2a89.1 (0.1)
0x2a80|                           00                  |         .      |        group: false 0x2a89.1-0x2a89.2 (0.1)
0x2a80|                           00                  |         .      |        os_nonconforming: false 0x2a89.2-0x2a89.3 (0.1)
0x2a80|                           00 00               |         ..     |        unused1: 0 0x2a89.3-0x2a8a.4 (1.1)
0x2a80|                              00 00            |          ..    |        os_specific: 0 0x2a8a.4-0x2a8b.4 (1)
0x2a80|                                 00            |           .    |        processor_specific: 0 0x2a8b.4-0x2a8c (0.4)
0x2a80|                                    00 00 00 00|            ....|        unused2: 0 0x2a8c-0x2a90 (4)
0x2a90|00 00 00 00 00 00 00 00                        |........        |      addr: 0x0 0x2a90-0x2a98 (8)
0x2a90|                        b0 17 00 00 00 00 00 00|        ........|      offset: 0x17b0 0x2a98-0x2aa0 (8)
0x2aa0|58 08 00 00 00 00 00 00                        |X.......        |      size: 2136 0x2aa0-0x2aa8 (8)
0x2aa0|                        1e 00 00 00            |        ....    |      link: 30 0x2aa8-0x2aac (4)
0x2aa0|                                    42 00 00 00|            B...|      info: 66 0x2aac-0x2ab0 (4)
0x2ab0|08 00 00 00 00 00 00 00                        |........        |      addralign: 8 0x2ab0-0x2ab8 (8)
0x2ab0|                        18 00 00 00 00 00 00 00|        ........|      entsize: 24 0x2ab8-0x2ac0 (8)
      |                                               |                |    [30]{}: section_header 0x2008-0x2b00 (2808)
0x2000|                        00 53 63 72 74 31 2e 63|        .Scrt1.c|      string: "\x00Scrt1.c\x00$x\x00crti.o\x00crtn.o\x00crtstuff.c\x00$d\x00__EH_FRAME_BEGIN__\x00deregister_tm_clones\x00__do_global_dtors_aux\x00completed.1\x00__do_global_dtors_aux_fini_array_entry\x00frame_dummy\x00object.0\x00__frame_dummy_init_array_entry\x00a.c\x00__FRAME_END__\x00_DYNAMIC\x00__GNU_EH_FRAME_HDR\x00_GLOBAL_OFFSET_TABLE_\x00__TMC_END__\x00puts\x00__cxa_finalize\x00__bss_start__\x00__dso_handle\x00aaa\x00_init\x00__deregister_frame_info\x00_ITM_registerTMCloneTable\x00__bss_end__\x00_start_c\x00_ITM_deregisterTMCloneTable\x00__bss_start\x00__end__\x00_fini\x00_edata\x00_end\x00libbbb_bbb\x00__libc_start_main\x00__register_frame_info\x00" 0x2008-0x221a (530)
0x2010|00 24 78 00 63 72 74 69 2e 6f 00 63 72 74 6e 2e|.$x.crti.o.crtn.|
*     |until 0x2219.7 (530)                           |                |
0x2ac0|09 00 00 00                                    |....            |      name: ".strtab" (9) 0x2ac0-0x2ac4 (4)
0x2ac0|            03 00 00 00                        |    ....        |      type: "strtab" (0x3) (String table) 0x2ac4-0x2ac8 (4)
      |                                               |                |      flags{}: 0x2ac8-0x2ad0 (8)
0x2ac0|                        00                     |        .       |        link_order: false 0x2ac8-0x2ac8.1 (0.1)
0x2ac0|                        00                     |        .       |        info_link: false 0x2ac8.1-0x2ac8.2 (0.1)
0x2ac0|                        00                     |        .       |        strings: false 0x2ac8.2-0x2ac8.3 (0.1)
0x2ac0|                        00                     |        .       |        merge: false 0x2ac8.3-0x2ac8.4 (0.1)
0x2ac0|                        00                     |        .       |        unused0: 0 0x2ac8.4-0x2ac8.5 (0.1)
0x2ac0|                        00                     |        .       |        execinstr: false 0x2ac8.5-0x2ac8.6 (0.1)
0x2ac0|                        00                     |        .       |        alloc: false 0x2ac8.6-0x2ac8.7 (0.1)
0x2ac0|                        00                     |        .       |        write: false 0x2ac8.7-0x2ac9 (0.1)
0x2ac0|                           00                  |         .      |        tls: false 0x2ac9-0x2ac9.1 (0.1)
0x2ac0|                           00                  |         .      |        group: false 0x2ac9.1-0x2ac9.2 (0.1)
0x2ac0|                           00                  |         .      |        os_nonconforming: false 0x2ac9.2-0x2ac9.3 (0.1)
0x2ac0|                           00 00               |         ..     |        unused1: 0 0x2ac9.3-0x2aca.4 (1.1)
0x2ac0|                              00 00            |          ..    |        os_specific: 0 0x2aca.4-0x2acb.4 (1)
0x2ac0|                                 00            |           .    |        processor_specific: 0 0x2acb.4-0x2acc (0.4)
0x2ac0|                                    00 00 00 00|            ....|        unused2: 0 0x2acc-0x2ad0 (4)
0x2ad0|00 00 00 00 00 00 00 00                        |........        |      addr: 0x0 0x2ad0-0x2ad8 (8)
0x2ad0|                        08 20 00 00 00 00 00 00|        . ......|      offset: 0x2008 0x2ad8-0x2ae0 (8)
0x2ae0|12 02 00 00 00 00 00 00                        |........        |      size: 530 0x2ae0-0x2ae8 (8)
0x2ae0|                        00 00 00 00            |        ....    |      link: 0 0x2ae8-0x2aec (4)
0x2ae0|                                    00 00 00 00|            ....|      info: 0 0x2aec-0x2af0 (4)
0x2af0|01 00 00 00 00 00 00 00                        |........        |      addralign: 1 0x2af0-0x2af8 (8)
0x2af0|                        00 00 00 00 00 00 00 00|        ........|      entsize: 0 0x2af8-0x2b00 (8)
      |                                               |                |    [31]{}: section_header 0x221a-0x2b40 (2342)
0x2210|                              00 2e 73 79 6d 74|          ..symt|      string: "\x00.symtab\x00.strtab\x00.shstrtab\x00.interp\x00.gnu.hash\x00.dynsym\x00.dynstr\x00.rela.dyn\x00.rela.plt\x00.init\x00.text\x00.fini\x00.rodata\x00.eh_frame_hdr\x00.eh_frame\x00.init_array\x00.fini_array\x00.dynamic\x00.got\x00.data\x00.bss\x00.comment\x00.debug_aranges\x00.debug_info\x00.debug_abbrev\x00.debug_line\x00.debug_frame\x00.debug_str\x00.debug_loc\x00.debug_ranges\x00" 0x221a-0x233d (291)
0x2220|61 62 00 2e 73 74 72 74 61 62 00 2e 73 68 73 74|ab..strtab..shst|
*     |until 0x233c.7 (291)                           |                |
0x2b00|11 00 00 00                                    |....            |      name: ".shstrtab" (17) 0x2b00-0x2b04 (4)
0x2b00|            03 00 00 00                        |    ....        |      type: "strtab" (0x3) (String table) 0x2b04-0x2b08 (4)
      |                                               |                |      flags{}: 0x2b08-0x2b10 (8)
0x2b00|                        00                     |        .       |        link_order: false 0x2b08-0x2b08.1 (0.1)
0x2b00|                        00                     |        .       |        info_link: false 0x2b08.1-0x2b08.2 (0.1)
0x2b00|                        00                     |        .       |        strings: false 0x2b08.2-0x2b08.3 (0.1)
0x2b00|                        00                     |        .       |        merge: false 0x2b08.3-0x2b08.4 (0.1)
0x2b00|                        00                     |        .       |        unused0: 0 0x2b08.4-0x2b08.5 (0.1)
0x2b00|                        00                     |        .       |        execinstr: false 0x2b08.5-0x2b08.6 (0.1)
0x2b00|                        00                     |        .       |        alloc: false 0x2b08.6-0x2b08.7 (0.1)
0x2b00|                        00                     |        .       |        write: false 0x2b08.7-0x2b09 (0.1)
0x2b00|                           00                  |         .      |        tls: false 0x2b09-0x2b09.1 (0.1)
0x2b00|                           00                  |         .      |        group: false 0x2b09.1-0x2b09.2 (0.1)
0x2b00|                           00                  |         .      |        os_nonconforming: false 0x2b09.2-0x2b09.3 (0.1)
0x2b00|                           00 00               |         ..     |        unused1: 0 0x2b09.3-0x2b0a.4 (1.1)
0x2b00|                              00 00            |          ..    |        os_specific: 0 0x2b0a.4-0x2b0b.4 (1)
0x2b00|                                 00            |           .    |        processor_specific: 0 0x2b0b.4-0x2b0c (0.4)
0x2b00|                                    00 00 00 00|            ....|        unused2: 0 0x2b0c-0x2b10 (4)
0x2b10|00 00 00 00 00 00 00 00                        |........        |      addr: 0x0 0x2b10-0x2b18 (8)
0x2b10|                        1a 22 00 00 00 00 00 00|        ."......|      offset: 0x221a 0x2b18-0x2b20 (8)
0x2b20|23 01 00 00 00 00 00 00                        |#.......        |      size: 291 0x2b20-0x2b28 (8)
0x2b20|                        00 00 00 00            |        ....    |      link: 0 0x2b28-0x2b2c (4)
0x2b20|                                    00 00 00 00|            ....|      info: 0 0x2b2c-0x2b30 (4)
0x2b30|01 00 00 00 00 00 00 00                        |........        |      addralign: 1 0x2b30-0x2b38 (8)
0x2b30|                        00 00 00 00 00 00 00 00|        ........|      entsize: 0 0x2b38-0x2b40 (8)
0x0910|            00 00 00 00 00 00 00 00 00 00 00 00|    ............|  gap0: raw bits 0x914-0xd90 (1148)
0x0920|00 00 00 00 00 00 00 00 00 00 00 00 00 00 00 00|................|
*     |until 0xd8f.7 (1148)                           |                |
0x1030|                           00 00 00 00 00 00 00|         .......|  gap1: raw bits 0x1039-0x1040 (7)
0x13f0|         00 00 00 00 00                        |   .....        |  gap2: raw bits 0x13f3-0x13f8 (5)
0x2330|                                       00 00 00|             ...|  gap3: raw bits 0x233d-0x2340 (3)
