$ fq -d elf dv a_dynamic
      |00 01 02 03 04 05 06 07 08 09 0a 0b 0c 0d 0e 0f|0123456789abcdef|.{}: a_dynamic (elf) 0x0-0x2b6f.7 (11120)
      |                                               |                |  header{}: 0x0-0x3f.7 (64)
      |                                               |                |    ident{}: 0x0-0xf.7 (16)
0x0000|7f 45 4c 46                                    |.ELF            |      magic: raw bits (valid) 0x0-0x3.7 (4)
0x0000|            02                                 |    .           |      class: 64 (2) 0x4-0x4.7 (1)
0x0000|               01                              |     .          |      data: "little_endian" (1) 0x5-0x5.7 (1)
0x0000|                  01                           |      .         |      version: 1 0x6-0x6.7 (1)
0x0000|                     00                        |       .        |      os_abi: "sysv" (0) 0x7-0x7.7 (1)
0x0000|                        00                     |        .       |      abi_version: 0 0x8-0x8.7 (1)
0x0000|                           00 00 00 00 00 00 00|         .......|      pad: raw bits (all zero) 0x9-0xf.7 (7)
0x0010|03 00                                          |..              |    type: "dyn" (0x3) 0x10-0x11.7 (2)
0x0010|      b7 00                                    |  ..            |    machine: "arm64" (0xb7) (ARM 64-bits (ARMv8/Aarch64)) 0x12-0x13.7 (2)
0x0010|            01 00 00 00                        |    ....        |    version: 1 0x14-0x17.7 (4)
0x0010|                        70 06 00 00 00 00 00 00|        p.......|    entry: 1648 0x18-0x1f.7 (8)
0x0020|40 00 00 00 00 00 00 00                        |@.......        |    phoff: 64 0x20-0x27.7 (8)
0x0020|                        70 23 00 00 00 00 00 00|        p#......|    shoff: 9072 0x28-0x2f.7 (8)
0x0030|00 00 00 00                                    |....            |    flags: 0 0x30-0x33.7 (4)
0x0030|            40 00                              |    @.          |    ehsize: 64 0x34-0x35.7 (2)
0x0030|                  38 00                        |      8.        |    phentsize: 56 0x36-0x37.7 (2)
0x0030|                        08 00                  |        ..      |    phnum: 8 0x38-0x39.7 (2)
0x0030|                              40 00            |          @.    |    shentsize: 64 0x3a-0x3b.7 (2)
0x0030|                                    20 00      |             .  |    shnum: 32 0x3c-0x3d.7 (2)
0x0030|                                          1f 00|              ..|    shstrndx: 31 0x3e-0x3f.7 (2)
      |                                               |                |  program_headers[0:8]: 0x0-0x1007.7 (4104)
      |                                               |                |    [0]{}: program_header 0x40-0x1ff.7 (448)
      |                                               |                |      program_header{}: 0x40-0x1ff.7 (448)
0x0040|06 00 00 00                                    |....            |        type: "phdr" (6) (Program header location and size) 0x40-0x43.7 (4)
0x0040|06 00 00 00 04 00 00 00 40 00 00 00 00 00 00 00|........@.......|        data: raw bits 0x40-0x1ff.7 (448)
*     |until 0x1ff.7 (448)                            |                |
      |                                               |                |        flags{}: 0x44-0x47.7 (4)
0x0040|            04                                 |    .           |          unused0: 0 0x44-0x44.4 (0.5)
0x0040|            04                                 |    .           |          r: true 0x44.5-0x44.5 (0.1)
0x0040|            04                                 |    .           |          w: false 0x44.6-0x44.6 (0.1)
0x0040|            04                                 |    .           |          x: false 0x44.7-0x44.7 (0.1)
0x0040|               00 00 00                        |     ...        |          unused1: 0 0x45-0x47.7 (3)
0x0040|                        40 00 00 00 00 00 00 00|        @.......|        offset: 0x40 0x48-0x4f.7 (8)
0x0050|40 00 00 00 00 00 00 00                        |@.......        |        vaddr: 0x40 0x50-0x57.7 (8)
0x0050|                        40 00 00 00 00 00 00 00|        @.......|        paddr: 0x40 0x58-0x5f.7 (8)
0x0060|c0 01 00 00 00 00 00 00                        |........        |        filesz: 448 0x60-0x67.7 (8)
0x0060|                        c0 01 00 00 00 00 00 00|        ........|        memsz: 448 0x68-0x6f.7 (8)
0x0070|08 00 00 00 00 00 00 00                        |........        |        align: 8 0x70-0x77.7 (8)
      |                                               |                |    [1]{}: program_header 0x78-0x219.7 (418)
      |                                               |                |      program_header{}: 0x78-0x219.7 (418)
0x0070|                        03 00 00 00            |        ....    |        type: "interp" (3) (Interpreter to invoke) 0x78-0x7b.7 (4)
      |                                               |                |        flags{}: 0x7c-0x7f.7 (4)
0x0070|                                    04         |            .   |          unused0: 0 0x7c-0x7c.4 (0.5)
0x0070|                                    04         |            .   |          r: true 0x7c.5-0x7c.5 (0.1)
0x0070|                                    04         |            .   |          w: false 0x7c.6-0x7c.6 (0.1)
0x0070|                                    04         |            .   |          x: false 0x7c.7-0x7c.7 (0.1)
0x0070|                                       00 00 00|             ...|          unused1: 0 0x7d-0x7f.7 (3)
0x0080|00 02 00 00 00 00 00 00                        |........        |        offset: 0x200 0x80-0x87.7 (8)
0x0080|                        00 02 00 00 00 00 00 00|        ........|        vaddr: 0x200 0x88-0x8f.7 (8)
0x0090|00 02 00 00 00 00 00 00                        |........        |        paddr: 0x200 0x90-0x97.7 (8)
0x0090|                        1a 00 00 00 00 00 00 00|        ........|        filesz: 26 0x98-0x9f.7 (8)
0x00a0|1a 00 00 00 00 00 00 00                        |........        |        memsz: 26 0xa0-0xa7.7 (8)
0x00a0|                        01 00 00 00 00 00 00 00|        ........|        align: 1 0xa8-0xaf.7 (8)
0x0200|2f 6c 69 62 2f 6c 64 2d 6d 75 73 6c 2d 61 61 72|/lib/ld-musl-aar|        data: raw bits 0x200-0x219.7 (26)
0x0210|63 68 36 34 2e 73 6f 2e 31 00                  |ch64.so.1.      |
      |                                               |                |    [2]{}: program_header 0x0-0x913.7 (2324)
      |                                               |                |      program_header{}: 0x0-0x913.7 (2324)
0x0000|7f 45 4c 46 02 01 01 00 00 00 00 00 00 00 00 00|.ELF............|        data: raw bits 0x0-0x913.7 (2324)
*     |until 0x913.7 (2324)                           |                |
0x00b0|01 00 00 00                                    |....            |        type: "load" (1) (Loadable segment) 0xb0-0xb3.7 (4)
      |                                               |                |        flags{}: 0xb4-0xb7.7 (4)
0x00b0|            05                                 |    .           |          unused0: 0 0xb4-0xb4.4 (0.5)
0x00b0|            05                                 |    .           |          r: true 0xb4.5-0xb4.5 (0.1)
0x00b0|            05                                 |    .           |          w: false 0xb4.6-0xb4.6 (0.1)
0x00b0|            05                                 |    .           |          x: true 0xb4.7-0xb4.7 (0.1)
0x00b0|               00 00 00                        |     ...        |          unused1: 0 0xb5-0xb7.7 (3)
0x00b0|                        00 00 00 00 00 00 00 00|        ........|        offset: 0x0 0xb8-0xbf.7 (8)
0x00c0|00 00 00 00 00 00 00 00                        |........        |        vaddr: 0x0 0xc0-0xc7.7 (8)
0x00c0|                        00 00 00 00 00 00 00 00|        ........|        paddr: 0x0 0xc8-0xcf.7 (8)
0x00d0|14 09 00 00 00 00 00 00                        |........        |        filesz: 2324 0xd0-0xd7.7 (8)
0x00d0|                        14 09 00 00 00 00 00 00|        ........|        memsz: 2324 0xd8-0xdf.7 (8)
0x00e0|00 00 01 00 00 00 00 00                        |........        |        align: 65536 0xe0-0xe7.7 (8)
      |                                               |                |    [3]{}: program_header 0xe8-0x1007.7 (3872)
      |                                               |                |      program_header{}: 0xe8-0x1007.7 (3872)
0x00e0|                        01 00 00 00            |        ....    |        type: "load" (1) (Loadable segment) 0xe8-0xeb.7 (4)
      |                                               |                |        flags{}: 0xec-0xef.7 (4)
0x00e0|                                    06         |            .   |          unused0: 0 0xec-0xec.4 (0.5)
0x00e0|                                    06         |            .   |          r: true 0xec.5-0xec.5 (0.1)
0x00e0|                                    06         |            .   |          w: true 0xec.6-0xec.6 (0.1)
0x00e0|                                    06         |            .   |          x: false 0xec.7-0xec.7 (0.1)
0x00e0|                                       00 00 00|             ...|          unused1: 0 0xed-0xef.7 (3)
0x00f0|90 0d 00 00 00 00 00 00                        |........        |        offset: 0xd90 0xf0-0xf7.7 (8)
0x00f0|                        90 0d 01 00 00 00 00 00|        ........|        vaddr: 0x10d90 0xf8-0xff.7 (8)
0x0100|90 0d 01 00 00 00 00 00                        |........        |        paddr: 0x10d90 0x100-0x107.7 (8)
0x0100|                        78 02 00 00 00 00 00 00|        x.......|        filesz: 632 0x108-0x10f.7 (8)
0x0110|b0 02 00 00 00 00 00 00                        |........        |        memsz: 688 0x110-0x117.7 (8)
0x0110|                        00 00 01 00 00 00 00 00|        ........|        align: 65536 0x118-0x11f.7 (8)
0x0d90|90 07 00 00 00 00 00 00 30 07 00 00 00 00 00 00|........0.......|        data: raw bits 0xd90-0x1007.7 (632)
*     |until 0x1007.7 (632)                           |                |
      |                                               |                |    [4]{}: program_header 0x120-0xf6f.7 (3664)
      |                                               |                |      program_header{}: 0x120-0xf6f.7 (3664)
0x0120|02 00 00 00                                    |....            |        type: "dynamic" (2) (Dynamic linking information) 0x120-0x123.7 (4)
      |                                               |                |        flags{}: 0x124-0x127.7 (4)
0x0120|            06                                 |    .           |          unused0: 0 0x124-0x124.4 (0.5)
0x0120|            06                                 |    .           |          r: true 0x124.5-0x124.5 (0.1)
0x0120|            06                                 |    .           |          w: true 0x124.6-0x124.6 (0.1)
0x0120|            06                                 |    .           |          x: false 0x124.7-0x124.7 (0.1)
0x0120|               00 00 00                        |     ...        |          unused1: 0 0x125-0x127.7 (3)
0x0120|                        a0 0d 00 00 00 00 00 00|        ........|        offset: 0xda0 0x128-0x12f.7 (8)
0x0130|a0 0d 01 00 00 00 00 00                        |........        |        vaddr: 0x10da0 0x130-0x137.7 (8)
0x0130|                        a0 0d 01 00 00 00 00 00|        ........|        paddr: 0x10da0 0x138-0x13f.7 (8)
0x0140|d0 01 00 00 00 00 00 00                        |........        |        filesz: 464 0x140-0x147.7 (8)
0x0140|                        d0 01 00 00 00 00 00 00|        ........|        memsz: 464 0x148-0x14f.7 (8)
0x0150|08 00 00 00 00 00 00 00                        |........        |        align: 8 0x150-0x157.7 (8)
0x0da0|01 00 00 00 00 00 00 00 a2 00 00 00 00 00 00 00|................|        data: raw bits 0xda0-0xf6f.7 (464)
*     |until 0xf6f.7 (464)                            |                |
      |                                               |                |    [5]{}: program_header 0x158-0x84f.7 (1784)
      |                                               |                |      program_header{}: 0x158-0x84f.7 (1784)
0x0150|                        50 e5 74 64            |        P.td    |        type: "gnu_eh_frame" (1685382480) (GNU frame unwind information) 0x158-0x15b.7 (4)
      |                                               |                |        flags{}: 0x15c-0x15f.7 (4)
0x0150|                                    04         |            .   |          unused0: 0 0x15c-0x15c.4 (0.5)
0x0150|                                    04         |            .   |          r: true 0x15c.5-0x15c.5 (0.1)
0x0150|                                    04         |            .   |          w: false 0x15c.6-0x15c.6 (0.1)
0x0150|                                    04         |            .   |          x: false 0x15c.7-0x15c.7 (0.1)
0x0150|                                       00 00 00|             ...|          unused1: 0 0x15d-0x15f.7 (3)
0x0160|14 08 00 00 00 00 00 00                        |........        |        offset: 0x814 0x160-0x167.7 (8)
0x0160|                        14 08 00 00 00 00 00 00|        ........|        vaddr: 0x814 0x168-0x16f.7 (8)
0x0170|14 08 00 00 00 00 00 00                        |........        |        paddr: 0x814 0x170-0x177.7 (8)
0x0170|                        3c 00 00 00 00 00 00 00|        <.......|        filesz: 60 0x178-0x17f.7 (8)
0x0180|3c 00 00 00 00 00 00 00                        |<.......        |        memsz: 60 0x180-0x187.7 (8)
0x0180|                        04 00 00 00 00 00 00 00|        ........|        align: 4 0x188-0x18f.7 (8)
0x0810|            01 1b 03 3b 38 00 00 00 06 00 00 00|    ...;8.......|        data: raw bits 0x814-0x84f.7 (60)
0x0820|ac fe ff ff 50 00 00 00 dc fe ff ff 64 00 00 00|....P.......d...|
*     |until 0x84f.7 (60)                             |                |
      |                                               |                |    [6]{}: program_header 0x0-0x1c7.7 (456)
      |                                               |                |      program_header{}: 0x0-0x1c7.7 (456)
      |                                               |                |        data: raw bits 0x0-NA (0)
0x0190|51 e5 74 64                                    |Q.td            |        type: "gnu_stack" (1685382481) (GNU stack permission) 0x190-0x193.7 (4)
      |                                               |                |        flags{}: 0x194-0x197.7 (4)
0x0190|            06                                 |    .           |          unused0: 0 0x194-0x194.4 (0.5)
0x0190|            06                                 |    .           |          r: true 0x194.5-0x194.5 (0.1)
0x0190|            06                                 |    .           |          w: true 0x194.6-0x194.6 (0.1)
0x0190|            06                                 |    .           |          x: false 0x194.7-0x194.7 (0.1)
0x0190|               00 00 00                        |     ...        |          unused1: 0 0x195-0x197.7 (3)
0x0190|                        00 00 00 00 00 00 00 00|        ........|        offset: 0x0 0x198-0x19f.7 (8)
0x01a0|00 00 00 00 00 00 00 00                        |........        |        vaddr: 0x0 0x1a0-0x1a7.7 (8)
0x01a0|                        00 00 00 00 00 00 00 00|        ........|        paddr: 0x0 0x1a8-0x1af.7 (8)
0x01b0|00 00 00 00 00 00 00 00                        |........        |        filesz: 0 0x1b0-0x1b7.7 (8)
0x01b0|                        00 00 00 00 00 00 00 00|        ........|        memsz: 0 0x1b8-0x1bf.7 (8)
0x01c0|10 00 00 00 00 00 00 00                        |........        |        align: 16 0x1c0-0x1c7.7 (8)
      |                                               |                |    [7]{}: program_header 0x1c8-0xfff.7 (3640)
      |                                               |                |      program_header{}: 0x1c8-0xfff.7 (3640)
0x01c0|                        52 e5 74 64            |        R.td    |        type: "gnu_relro" (1685382482) (GNU read-only after relocation) 0x1c8-0x1cb.7 (4)
      |                                               |                |        flags{}: 0x1cc-0x1cf.7 (4)
0x01c0|                                    04         |            .   |          unused0: 0 0x1cc-0x1cc.4 (0.5)
0x01c0|                                    04         |            .   |          r: true 0x1cc.5-0x1cc.5 (0.1)
0x01c0|                                    04         |            .   |          w: false 0x1cc.6-0x1cc.6 (0.1)
0x01c0|                                    04         |            .   |          x: false 0x1cc.7-0x1cc.7 (0.1)
0x01c0|                                       00 00 00|             ...|          unused1: 0 0x1cd-0x1cf.7 (3)
0x01d0|90 0d 00 00 00 00 00 00                        |........        |        offset: 0xd90 0x1d0-0x1d7.7 (8)
0x01d0|                        90 0d 01 00 00 00 00 00|        ........|        vaddr: 0x10d90 0x1d8-0x1df.7 (8)
0x01e0|90 0d 01 00 00 00 00 00                        |........        |        paddr: 0x10d90 0x1e0-0x1e7.7 (8)
0x01e0|                        70 02 00 00 00 00 00 00|        p.......|        filesz: 624 0x1e8-0x1ef.7 (8)
0x01f0|70 02 00 00 00 00 00 00                        |p.......        |        memsz: 624 0x1f0-0x1f7.7 (8)
0x01f0|                        01 00 00 00 00 00 00 00|        ........|        align: 1 0x1f8-0x1ff.7 (8)
0x0d90|90 07 00 00 00 00 00 00 30 07 00 00 00 00 00 00|........0.......|        data: raw bits 0xd90-0xfff.7 (624)
*     |until 0xfff.7 (624)                            |                |
      |                                               |                |  section_headers[0:32]: 0x0-0x2b6f.7 (11120)
      |                                               |                |    [0]{}: section_header 0x0-0x23af.7 (9136)
      |                                               |                |      data: raw bits 0x0-NA (0)
0x2370|00 00 00 00                                    |....            |      name: "" (0) 0x2370-0x2373.7 (4)
0x2370|            00 00 00 00                        |    ....        |      type: "null" (0x0) (Header inactive) 0x2374-0x2377.7 (4)
      |                                               |                |      flags{}: 0x2378-0x237f.7 (8)
0x2370|                        00                     |        .       |        link_order: false 0x2378-0x2378 (0.1)
0x2370|                        00                     |        .       |        info_link: false 0x2378.1-0x2378.1 (0.1)
0x2370|                        00                     |        .       |        strings: false 0x2378.2-0x2378.2 (0.1)
0x2370|                        00                     |        .       |        merge: false 0x2378.3-0x2378.3 (0.1)
0x2370|                        00                     |        .       |        unused0: 0 0x2378.4-0x2378.4 (0.1)
0x2370|                        00                     |        .       |        execinstr: false 0x2378.5-0x2378.5 (0.1)
0x2370|                        00                     |        .       |        alloc: false 0x2378.6-0x2378.6 (0.1)
0x2370|                        00                     |        .       |        write: false 0x2378.7-0x2378.7 (0.1)
0x2370|                           00                  |         .      |        tls: false 0x2379-0x2379 (0.1)
0x2370|                           00                  |         .      |        group: false 0x2379.1-0x2379.1 (0.1)
0x2370|                           00                  |         .      |        os_nonconforming: false 0x2379.2-0x2379.2 (0.1)
0x2370|                           00 00               |         ..     |        unused1: 0 0x2379.3-0x237a.3 (1.1)
0x2370|                              00 00            |          ..    |        os_specific: 0 0x237a.4-0x237b.3 (1)
0x2370|                                 00            |           .    |        processor_specific: 0 0x237b.4-0x237b.7 (0.4)
0x2370|                                    00 00 00 00|            ....|        unused2: 0 0x237c-0x237f.7 (4)
0x2380|00 00 00 00 00 00 00 00                        |........        |      addr: 0x0 0x2380-0x2387.7 (8)
0x2380|                        00 00 00 00 00 00 00 00|        ........|      offset: 0x0 0x2388-0x238f.7 (8)
0x2390|00 00 00 00 00 00 00 00                        |........        |      size: 0 0x2390-0x2397.7 (8)
0x2390|                        00 00 00 00            |        ....    |      link: 0 0x2398-0x239b.7 (4)
0x2390|                                    00 00 00 00|            ....|      info: 0 0x239c-0x239f.7 (4)
0x23a0|00 00 00 00 00 00 00 00                        |........        |      addralign: 0 0x23a0-0x23a7.7 (8)
0x23a0|                        00 00 00 00 00 00 00 00|        ........|      entsize: 0 0x23a8-0x23af.7 (8)
      |                                               |                |    [1]{}: section_header 0x200-0x23ef.7 (8688)
0x0200|2f 6c 69 62 2f 6c 64 2d 6d 75 73 6c 2d 61 61 72|/lib/ld-musl-aar|      data: raw bits 0x200-0x219.7 (26)
0x0210|63 68 36 34 2e 73 6f 2e 31 00                  |ch64.so.1.      |
0x23b0|1b 00 00 00                                    |....            |      name: ".interp" (27) 0x23b0-0x23b3.7 (4)
0x23b0|            01 00 00 00                        |    ....        |      type: "progbits" (0x1) (Information defined by the program) 0x23b4-0x23b7.7 (4)
      |                                               |                |      flags{}: 0x23b8-0x23bf.7 (8)
0x23b0|                        02                     |        .       |        link_order: false 0x23b8-0x23b8 (0.1)
0x23b0|                        02                     |        .       |        info_link: false 0x23b8.1-0x23b8.1 (0.1)
0x23b0|                        02                     |        .       |        strings: false 0x23b8.2-0x23b8.2 (0.1)
0x23b0|                        02                     |        .       |        merge: false 0x23b8.3-0x23b8.3 (0.1)
0x23b0|                        02                     |        .       |        unused0: 0 0x23b8.4-0x23b8.4 (0.1)
0x23b0|                        02                     |        .       |        execinstr: false 0x23b8.5-0x23b8.5 (0.1)
0x23b0|                        02                     |        .       |        alloc: true 0x23b8.6-0x23b8.6 (0.1)
0x23b0|                        02                     |        .       |        write: false 0x23b8.7-0x23b8.7 (0.1)
0x23b0|                           00                  |         .      |        tls: false 0x23b9-0x23b9 (0.1)
0x23b0|                           00                  |         .      |        group: false 0x23b9.1-0x23b9.1 (0.1)
0x23b0|                           00                  |         .      |        os_nonconforming: false 0x23b9.2-0x23b9.2 (0.1)
0x23b0|                           00 00               |         ..     |        unused1: 0 0x23b9.3-0x23ba.3 (1.1)
0x23b0|                              00 00            |          ..    |        os_specific: 0 0x23ba.4-0x23bb.3 (1)
0x23b0|                                 00            |           .    |        processor_specific: 0 0x23bb.4-0x23bb.7 (0.4)
0x23b0|                                    00 00 00 00|            ....|        unused2: 0 0x23bc-0x23bf.7 (4)
0x23c0|00 02 00 00 00 00 00 00                        |........        |      addr: 0x200 0x23c0-0x23c7.7 (8)
0x23c0|                        00 02 00 00 00 00 00 00|        ........|      offset: 0x200 0x23c8-0x23cf.7 (8)
0x23d0|1a 00 00 00 00 00 00 00                        |........        |      size: 26 0x23d0-0x23d7.7 (8)
0x23d0|                        00 00 00 00            |        ....    |      link: 0 0x23d8-0x23db.7 (4)
0x23d0|                                    00 00 00 00|            ....|      info: 0 0x23dc-0x23df.7 (4)
0x23e0|01 00 00 00 00 00 00 00                        |........        |      addralign: 1 0x23e0-0x23e7.7 (8)
0x23e0|                        00 00 00 00 00 00 00 00|        ........|      entsize: 0 0x23e8-0x23ef.7 (8)
      |                                               |                |    [2]{}: section_header 0x220-0x242f.7 (8720)
      |                                               |                |      gnu_hash{}: 0x220-0x247.7 (40)
0x0220|02 00 00 00                                    |....            |        nbuckets: 2 0x220-0x223.7 (4)
0x0220|            0b 00 00 00                        |    ....        |        symndx: 11 0x224-0x227.7 (4)
0x0220|                        01 00 00 00            |        ....    |        maskwords: 1 0x228-0x22b.7 (4)
0x0220|                                    06 00 00 00|            ....|        shift2: 6 0x22c-0x22f.7 (4)
      |                                               |                |        bloom_filter[0:1]: 0x230-0x237.7 (8)
0x0230|00 80 00 00 00 04 40 01                        |......@.        |          [0]: 90076390593953792 maskword 0x230-0x237.7 (8)
      |                                               |                |        buckets[0:2]: 0x238-0x23f.7 (8)
0x0230|                        0b 00 00 00            |        ....    |          [0]: 11 bucket 0x238-0x23b.7 (4)
0x0230|                                    00 00 00 00|            ....|          [1]: 0 bucket 0x23c-0x23f.7 (4)
      |                                               |                |        values[0:2]: 0x240-0x247.7 (8)
0x0240|b8 8d f1 0e                                    |....            |          [0]: 250711480 value 0x240-0x243.7 (4)
0x0240|            eb d3 ef 0e                        |    ....        |          [1]: 250598379 value 0x244-0x247.7 (4)
0x23f0|23 00 00 00                                    |#...            |      name: ".gnu.hash" (35) 0x23f0-0x23f3.7 (4)
0x23f0|            f6 ff ff 6f                        |    ...o        |      type: "gnu_hash" (0x6ffffff6) (GNU symbol hash table) 0x23f4-0x23f7.7 (4)
      |                                               |                |      flags{}: 0x23f8-0x23ff.7 (8)
0x23f0|                        02                     |        .       |        link_order: false 0x23f8-0x23f8 (0.1)
0x23f0|                        02                     |        .       |        info_link: false 0x23f8.1-0x23f8.1 (0.1)
0x23f0|                        02                     |        .       |        strings: false 0x23f8.2-0x23f8.2 (0.1)
0x23f0|                        02                     |        .       |        merge: false 0x23f8.3-0x23f8.3 (0.1)
0x23f0|                        02                     |        .       |        unused0: 0 0x23f8.4-0x23f8.4 (0.1)
0x23f0|                        02                     |        .       |        execinstr: false 0x23f8.5-0x23f8.5 (0.1)
0x23f0|                        02                     |        .       |        alloc: true 0x23f8.6-0x23f8.6 (0.1)
0x23f0|                        02                     |        .       |        write: false 0x23f8.7-0x23f8.7 (0.1)
0x23f0|                           00                  |         .      |        tls: false 0x23f9-0x23f9 (0.1)
0x23f0|                           00                  |         .      |        group: false 0x23f9.1-0x23f9.1 (0.1)
0x23f0|                           00                  |         .      |        os_nonconforming: false 0x23f9.2-0x23f9.2 (0.1)
0x23f0|                           00 00               |         ..     |        unused1: 0 0x23f9.3-0x23fa.3 (1.1)
0x23f0|                              00 00            |          ..    |        os_specific: 0 0x23fa.4-0x23fb.3 (1)
0x23f0|                                 00            |           .    |        processor_specific: 0 0x23fb.4-0x23fb.7 (0.4)
0x23f0|                                    00 00 00 00|            ....|        unused2: 0 0x23fc-0x23ff.7 (4)
0x2400|20 02 00 00 00 00 00 00                        | .......        |      addr: 0x220 0x2400-0x2407.7 (8)
0x2400|                        20 02 00 00 00 00 00 00|         .......|      offset: 0x220 0x2408-0x240f.7 (8)
0x2410|28 00 00 00 00 00 00 00                        |(.......        |      size: 40 0x2410-0x2417.7 (8)
0x2410|                        03 00 00 00            |        ....    |      link: 3 0x2418-0x241b.7 (4)
0x2410|                                    00 00 00 00|            ....|      info: 0 0x241c-0x241f.7 (4)
0x2420|08 00 00 00 00 00 00 00                        |........        |      addralign: 8 0x2420-0x2427.7 (8)
0x2420|                        00 00 00 00 00 00 00 00|        ........|      entsize: 0 0x2428-0x242f.7 (8)
      |                                               |                |    [3]{}: section_header 0x248-0x246f.7 (8744)
      |                                               |                |      symbol_table[0:13]: 0x248-0x37f.7 (312)
      |                                               |                |        [0]{}: symbol 0x248-0x25f.7 (24)
0x0240|                        00 00 00 00            |        ....    |          name: "" (0) 0x248-0x24b.7 (4)
0x0240|                                    00         |            .   |          bind: "local" (0) 0x24c-0x24c.3 (0.4)
0x0240|                                    00         |            .   |          type: "notype" (0) 0x24c.4-0x24c.7 (0.4)
0x0240|                                       00      |             .  |          other_unused: 0 0x24d-0x24d.5 (0.6)
0x0240|                                       00      |             .  |          visibility: "default" (0) 0x24d.6-0x24d.7 (0.2)
0x0240|                                          00 00|              ..|          shndx: 0 0x24e-0x24f.7 (2)
0x0250|00 00 00 00 00 00 00 00                        |........        |          value: 0 0x250-0x257.7 (8)
0x0250|                        00 00 00 00 00 00 00 00|        ........|          size: 0 0x258-0x25f.7 (8)
      |                                               |                |        [1]{}: symbol 0x260-0x277.7 (24)
0x0260|00 00 00 00                                    |....            |          name: "" (0) 0x260-0x263.7 (4)
0x0260|            03                                 |    .           |          bind: "local" (0) 0x264-0x264.3 (0.4)
0x0260|            03                                 |    .           |          type: "section" (3) 0x264.4-0x264.7 (0.4)
0x0260|               00                              |     .          |          other_unused: 0 0x265-0x265.5 (0.6)
0x0260|               00                              |     .          |          visibility: "default" (0) 0x265.6-0x265.7 (0.2)
0x0260|                  07 00                        |      ..        |          shndx: 7 0x266-0x267.7 (2)
0x0260|                        e0 05 00 00 00 00 00 00|        ........|          value: 1504 0x268-0x26f.7 (8)
0x0270|00 00 00 00 00 00 00 00                        |........        |          size: 0 0x270-0x277.7 (8)
      |                                               |                |        [2]{}: symbol 0x278-0x28f.7 (24)
0x0270|                        00 00 00 00            |        ....    |          name: "" (0) 0x278-0x27b.7 (4)
0x0270|                                    03         |            .   |          bind: "local" (0) 0x27c-0x27c.3 (0.4)
0x0270|                                    03         |            .   |          type: "section" (3) 0x27c.4-0x27c.7 (0.4)
0x0270|                                       00      |             .  |          other_unused: 0 0x27d-0x27d.5 (0.6)
0x0270|                                       00      |             .  |          visibility: "default" (0) 0x27d.6-0x27d.7 (0.2)
0x0270|                                          12 00|              ..|          shndx: 18 0x27e-0x27f.7 (2)
0x0280|00 10 01 00 00 00 00 00                        |........        |          value: 69632 0x280-0x287.7 (8)
0x0280|                        00 00 00 00 00 00 00 00|        ........|          size: 0 0x288-0x28f.7 (8)
      |                                               |                |        [3]{}: symbol 0x290-0x2a7.7 (24)
0x0290|01 00 00 00                                    |....            |          name: "puts" (1) 0x290-0x293.7 (4)
0x0290|            12                                 |    .           |          bind: "global" (1) 0x294-0x294.3 (0.4)
0x0290|            12                                 |    .           |          type: "func" (2) 0x294.4-0x294.7 (0.4)
0x0290|               00                              |     .          |          other_unused: 0 0x295-0x295.5 (0.6)
0x0290|               00                              |     .          |          visibility: "default" (0) 0x295.6-0x295.7 (0.2)
0x0290|                  00 00                        |      ..        |          shndx: 0 0x296-0x297.7 (2)
0x0290|                        00 00 00 00 00 00 00 00|        ........|          value: 0 0x298-0x29f.7 (8)
0x02a0|00 00 00 00 00 00 00 00                        |........        |          size: 0 0x2a0-0x2a7.7 (8)
      |                                               |                |        [4]{}: symbol 0x2a8-0x2bf.7 (24)
0x02a0|                        06 00 00 00            |        ....    |          name: "__cxa_finalize" (6) 0x2a8-0x2ab.7 (4)
0x02a0|                                    22         |            "   |          bind: "weak" (2) 0x2ac-0x2ac.3 (0.4)
0x02a0|                                    22         |            "   |          type: "func" (2) 0x2ac.4-0x2ac.7 (0.4)
0x02a0|                                       00      |             .  |          other_unused: 0 0x2ad-0x2ad.5 (0.6)
0x02a0|                                       00      |             .  |          visibility: "default" (0) 0x2ad.6-0x2ad.7 (0.2)
0x02a0|                                          00 00|              ..|          shndx: 0 0x2ae-0x2af.7 (2)
0x02b0|00 00 00 00 00 00 00 00                        |........        |          value: 0 0x2b0-0x2b7.7 (8)
0x02b0|                        00 00 00 00 00 00 00 00|        ........|          size: 0 0x2b8-0x2bf.7 (8)
      |                                               |                |        [5]{}: symbol 0x2c0-0x2d7.7 (24)
0x02c0|15 00 00 00                                    |....            |          name: "__deregister_frame_info" (21) 0x2c0-0x2c3.7 (4)
0x02c0|            20                                 |                |          bind: "weak" (2) 0x2c4-0x2c4.3 (0.4)
0x02c0|            20                                 |                |          type: "notype" (0) 0x2c4.4-0x2c4.7 (0.4)
0x02c0|               00                              |     .          |          other_unused: 0 0x2c5-0x2c5.5 (0.6)
0x02c0|               00                              |     .          |          visibility: "default" (0) 0x2c5.6-0x2c5.7 (0.2)
0x02c0|                  00 00                        |      ..        |          shndx: 0 0x2c6-0x2c7.7 (2)
0x02c0|                        00 00 00 00 00 00 00 00|        ........|          value: 0 0x2c8-0x2cf.7 (8)
0x02d0|00 00 00 00 00 00 00 00                        |........        |          size: 0 0x2d0-0x2d7.7 (8)
      |                                               |                |        [6]{}: symbol 0x2d8-0x2ef.7 (24)
0x02d0|                        2d 00 00 00            |        -...    |          name: "_ITM_registerTMCloneTable" (45) 0x2d8-0x2db.7 (4)
0x02d0|                                    20         |                |          bind: "weak" (2) 0x2dc-0x2dc.3 (0.4)
0x02d0|                                    20         |                |          type: "notype" (0) 0x2dc.4-0x2dc.7 (0.4)
0x02d0|                                       00      |             .  |          other_unused: 0 0x2dd-0x2dd.5 (0.6)
0x02d0|                                       00      |             .  |          visibility: "default" (0) 0x2dd.6-0x2dd.7 (0.2)
0x02d0|                                          00 00|              ..|          shndx: 0 0x2de-0x2df.7 (2)
0x02e0|00 00 00 00 00 00 00 00                        |........        |          value: 0 0x2e0-0x2e7.7 (8)
0x02e0|                        00 00 00 00 00 00 00 00|        ........|          size: 0 0x2e8-0x2ef.7 (8)
      |                                               |                |        [7]{}: symbol 0x2f0-0x307.7 (24)
0x02f0|47 00 00 00                                    |G...            |          name: "_ITM_deregisterTMCloneTable" (71) 0x2f0-0x2f3.7 (4)
0x02f0|            20                                 |                |          bind: "weak" (2) 0x2f4-0x2f4.3 (0.4)
0x02f0|            20                                 |                |          type: "notype" (0) 0x2f4.4-0x2f4.7 (0.4)
0x02f0|               00                              |     .          |          other_unused: 0 0x2f5-0x2f5.5 (0.6)
0x02f0|               00                              |     .          |          visibility: "default" (0) 0x2f5.6-0x2f5.7 (0.2)
0x02f0|                  00 00                        |      ..        |          shndx: 0 0x2f6-0x2f7.7 (2)
0x02f0|                        00 00 00 00 00 00 00 00|        ........|          value: 0 0x2f8-0x2ff.7 (8)
0x0300|00 00 00 00 00 00 00 00                        |........        |          size: 0 0x300-0x307.7 (8)
      |                                               |                |        [8]{}: symbol 0x308-0x31f.7 (24)
0x0300|                        85 00 00 00            |        ....    |          name: "libbbb_bbb" (133) 0x308-0x30b.7 (4)
0x0300|                                    12         |            .   |          bind: "global" (1) 0x30c-0x30c.3 (0.4)
0x0300|                                    12         |            .   |          type: "func" (2) 0x30c.4-0x30c.7 (0.4)
0x0300|                                       00      |             .  |          other_unused: 0 0x30d-0x30d.5 (0.6)
0x0300|                                       00      |             .  |          visibility: "default" (0) 0x30d.6-0x30d.7 (0.2)
0x0300|                                          00 00|              ..|          shndx: 0 0x30e-0x30f.7 (2)
0x0310|00 00 00 00 00 00 00 00                        |........        |          value: 0 0x310-0x317.7 (8)
0x0310|                        00 00 00 00 00 00 00 00|        ........|          size: 0 0x318-0x31f.7 (8)
      |                                               |                |        [9]{}: symbol 0x320-0x337.7 (24)
0x0320|90 00 00 00                                    |....            |          name: "__libc_start_main" (144) 0x320-0x323.7 (4)
0x0320|            12                                 |    .           |          bind: "global" (1) 0x324-0x324.3 (0.4)
0x0320|            12                                 |    .           |          type: "func" (2) 0x324.4-0x324.7 (0.4)
0x0320|               00                              |     .          |          other_unused: 0 0x325-0x325.5 (0.6)
0x0320|               00                              |     .          |          visibility: "default" (0) 0x325.6-0x325.7 (0.2)
0x0320|                  00 00                        |      ..        |          shndx: 0 0x326-0x327.7 (2)
0x0320|                        00 00 00 00 00 00 00 00|        ........|          value: 0 0x328-0x32f.7 (8)
0x0330|00 00 00 00 00 00 00 00                        |........        |          size: 0 0x330-0x337.7 (8)
      |                                               |                |        [10]{}: symbol 0x338-0x34f.7 (24)
0x0330|                        63 00 00 00            |        c...    |          name: "__register_frame_info" (99) 0x338-0x33b.7 (4)
0x0330|                                    20         |                |          bind: "weak" (2) 0x33c-0x33c.3 (0.4)
0x0330|                                    20         |                |          type: "notype" (0) 0x33c.4-0x33c.7 (0.4)
0x0330|                                       00      |             .  |          other_unused: 0 0x33d-0x33d.5 (0.6)
0x0330|                                       00      |             .  |          visibility: "default" (0) 0x33d.6-0x33d.7 (0.2)
0x0330|                                          00 00|              ..|          shndx: 0 0x33e-0x33f.7 (2)
0x0340|00 00 00 00 00 00 00 00                        |........        |          value: 0 0x340-0x347.7 (8)
0x0340|                        00 00 00 00 00 00 00 00|        ........|          size: 0 0x348-0x34f.7 (8)
      |                                               |                |        [11]{}: symbol 0x350-0x367.7 (24)
0x0350|79 00 00 00                                    |y...            |          name: "_init" (121) 0x350-0x353.7 (4)
0x0350|            12                                 |    .           |          bind: "global" (1) 0x354-0x354.3 (0.4)
0x0350|            12                                 |    .           |          type: "func" (2) 0x354.4-0x354.7 (0.4)
0x0350|               00                              |     .          |          other_unused: 0 0x355-0x355.5 (0.6)
0x0350|               00                              |     .          |          visibility: "default" (0) 0x355.6-0x355.7 (0.2)
0x0350|                  07 00                        |      ..        |          shndx: 7 0x356-0x357.7 (2)
0x0350|                        e0 05 00 00 00 00 00 00|        ........|          value: 1504 0x358-0x35f.7 (8)
0x0360|04 00 00 00 00 00 00 00                        |........        |          size: 4 0x360-0x367.7 (8)
      |                                               |                |        [12]{}: symbol 0x368-0x37f.7 (24)
0x0360|                        7f 00 00 00            |        ....    |          name: "_fini" (127) 0x368-0x36b.7 (4)
0x0360|                                    12         |            .   |          bind: "global" (1) 0x36c-0x36c.3 (0.4)
0x0360|                                    12         |            .   |          type: "func" (2) 0x36c.4-0x36c.7 (0.4)
0x0360|                                       00      |             .  |          other_unused: 0 0x36d-0x36d.5 (0.6)
0x0360|                                       00      |             .  |          visibility: "default" (0) 0x36d.6-0x36d.7 (0.2)
0x0360|                                          0a 00|              ..|          shndx: 10 0x36e-0x36f.7 (2)
0x0370|00 08 00 00 00 00 00 00                        |........        |          value: 2048 0x370-0x377.7 (8)
0x0370|                        04 00 00 00 00 00 00 00|        ........|          size: 4 0x378-0x37f.7 (8)
0x2430|2d 00 00 00                                    |-...            |      name: ".dynsym" (45) 0x2430-0x2433.7 (4)
0x2430|            0b 00 00 00                        |    ....        |      type: "dynsym" (0xb) (Dynamic linking symbol table) 0x2434-0x2437.7 (4)
      |                                               |                |      flags{}: 0x2438-0x243f.7 (8)
0x2430|                        02                     |        .       |        link_order: false 0x2438-0x2438 (0.1)
0x2430|                        02                     |        .       |        info_link: false 0x2438.1-0x2438.1 (0.1)
0x2430|                        02                     |        .       |        strings: false 0x2438.2-0x2438.2 (0.1)
0x2430|                        02                     |        .       |        merge: false 0x2438.3-0x2438.3 (0.1)
0x2430|                        02                     |        .       |        unused0: 0 0x2438.4-0x2438.4 (0.1)
0x2430|                        02                     |        .       |        execinstr: false 0x2438.5-0x2438.5 (0.1)
0x2430|                        02                     |        .       |        alloc: true 0x2438.6-0x2438.6 (0.1)
0x2430|                        02                     |        .       |        write: false 0x2438.7-0x2438.7 (0.1)
0x2430|                           00                  |         .      |        tls: false 0x2439-0x2439 (0.1)
0x2430|                           00                  |         .      |        group: false 0x2439.1-0x2439.1 (0.1)
0x2430|                           00                  |         .      |        os_nonconforming: false 0x2439.2-0x2439.2 (0.1)
0x2430|                           00 00               |         ..     |        unused1: 0 0x2439.3-0x243a.3 (1.1)
0x2430|                              00 00            |          ..    |        os_specific: 0 0x243a.4-0x243b.3 (1)
0x2430|                                 00            |           .    |        processor_specific: 0 0x243b.4-0x243b.7 (0.4)
0x2430|                                    00 00 00 00|            ....|        unused2: 0 0x243c-0x243f.7 (4)
0x2440|48 02 00 00 00 00 00 00                        |H.......        |      addr: 0x248 0x2440-0x2447.7 (8)
0x2440|                        48 02 00 00 00 00 00 00|        H.......|      offset: 0x248 0x2448-0x244f.7 (8)
0x2450|38 01 00 00 00 00 00 00                        |8.......        |      size: 312 0x2450-0x2457.7 (8)
0x2450|                        04 00 00 00            |        ....    |      link: 4 0x2458-0x245b.7 (4)
0x2450|                                    03 00 00 00|            ....|      info: 3 0x245c-0x245f.7 (4)
0x2460|08 00 00 00 00 00 00 00                        |........        |      addralign: 8 0x2460-0x2467.7 (8)
0x2460|                        18 00 00 00 00 00 00 00|        ........|      entsize: 24 0x2468-0x246f.7 (8)
      |                                               |                |    [4]{}: section_header 0x380-0x24af.7 (8496)
0x0380|00 70 75 74 73 00 5f 5f 63 78 61 5f 66 69 6e 61|.puts.__cxa_fina|      string: "\x00puts\x00__cxa_finalize\x00__deregister_frame_info\x00_ITM_"... 0x380-0x442.7 (195)
*     |until 0x442.7 (195)                            |                |
0x2470|35 00 00 00                                    |5...            |      name: ".dynstr" (53) 0x2470-0x2473.7 (4)
0x2470|            03 00 00 00                        |    ....        |      type: "strtab" (0x3) (String table) 0x2474-0x2477.7 (4)
      |                                               |                |      flags{}: 0x2478-0x247f.7 (8)
0x2470|                        02                     |        .       |        link_order: false 0x2478-0x2478 (0.1)
0x2470|                        02                     |        .       |        info_link: false 0x2478.1-0x2478.1 (0.1)
0x2470|                        02                     |        .       |        strings: false 0x2478.2-0x2478.2 (0.1)
0x2470|                        02                     |        .       |        merge: false 0x2478.3-0x2478.3 (0.1)
0x2470|                        02                     |        .       |        unused0: 0 0x2478.4-0x2478.4 (0.1)
0x2470|                        02                     |        .       |        execinstr: false 0x2478.5-0x2478.5 (0.1)
0x2470|                        02                     |        .       |        alloc: true 0x2478.6-0x2478.6 (0.1)
0x2470|                        02                     |        .       |        write: false 0x2478.7-0x2478.7 (0.1)
0x2470|                           00                  |         .      |        tls: false 0x2479-0x2479 (0.1)
0x2470|                           00                  |         .      |        group: false 0x2479.1-0x2479.1 (0.1)
0x2470|                           00                  |         .      |        os_nonconforming: false 0x2479.2-0x2479.2 (0.1)
0x2470|                           00 00               |         ..     |        unused1: 0 0x2479.3-0x247a.3 (1.1)
0x2470|                              00 00            |          ..    |        os_specific: 0 0x247a.4-0x247b.3 (1)
0x2470|                                 00            |           .    |        processor_specific: 0 0x247b.4-0x247b.7 (0.4)
0x2470|                                    00 00 00 00|            ....|        unused2: 0 0x247c-0x247f.7 (4)
0x2480|80 03 00 00 00 00 00 00                        |........        |      addr: 0x380 0x2480-0x2487.7 (8)
0x2480|                        80 03 00 00 00 00 00 00|        ........|      offset: 0x380 0x2488-0x248f.7 (8)
0x2490|c3 00 00 00 00 00 00 00                        |........        |      size: 195 0x2490-0x2497.7 (8)
0x2490|                        00 00 00 00            |        ....    |      link: 0 0x2498-0x249b.7 (4)
0x2490|                                    00 00 00 00|            ....|      info: 0 0x249c-0x249f.7 (4)
0x24a0|01 00 00 00 00 00 00 00                        |........        |      addralign: 1 0x24a0-0x24a7.7 (8)
0x24a0|                        00 00 00 00 00 00 00 00|        ........|      entsize: 0 0x24a8-0x24af.7 (8)
      |                                               |                |    [5]{}: section_header 0x448-0x24ef.7 (8360)
0x0440|                        90 0d 01 00 00 00 00 00|        ........|      data: raw bits 0x448-0x54f.7 (264)
0x0450|03 04 00 00 00 00 00 00 90 07 00 00 00 00 00 00|................|
*     |until 0x54f.7 (264)                            |                |
0x24b0|3d 00 00 00                                    |=...            |      name: ".rela.dyn" (61) 0x24b0-0x24b3.7 (4)
0x24b0|            04 00 00 00                        |    ....        |      type: "rela" (0x4) (Relocation entries with explicit addends) 0x24b4-0x24b7.7 (4)
      |                                               |                |      flags{}: 0x24b8-0x24bf.7 (8)
0x24b0|                        02                     |        .       |        link_order: false 0x24b8-0x24b8 (0.1)
0x24b0|                        02                     |        .       |        info_link: false 0x24b8.1-0x24b8.1 (0.1)
0x24b0|                        02                     |        .       |        strings: false 0x24b8.2-0x24b8.2 (0.1)
0x24b0|                        02                     |        .       |        merge: false 0x24b8.3-0x24b8.3 (0.1)
0x24b0|                        02                     |        .       |        unused0: 0 0x24b8.4-0x24b8.4 (0.1)
0x24b0|                        02                     |        .       |        execinstr: false 0x24b8.5-0x24b8.5 (0.1)
0x24b0|                        02                     |        .       |        alloc: true 0x24b8.6-0x24b8.6 (0.1)
0x24b0|                        02                     |        .       |        write: false 0x24b8.7-0x24b8.7 (0.1)
0x24b0|                           00                  |         .      |        tls: false 0x24b9-0x24b9 (0.1)
0x24b0|                           00                  |         .      |        group: false 0x24b9.1-0x24b9.1 (0.1)
0x24b0|                           00                  |         .      |        os_nonconforming: false 0x24b9.2-0x24b9.2 (0.1)
0x24b0|                           00 00               |         ..     |        unused1: 0 0x24b9.3-0x24ba.3 (1.1)
0x24b0|                              00 00            |          ..    |        os_specific: 0 0x24ba.4-0x24bb.3 (1)
0x24b0|                                 00            |           .    |        processor_specific: 0 0x24bb.4-0x24bb.7 (0.4)
0x24b0|                                    00 00 00 00|            ....|        unused2: 0 0x24bc-0x24bf.7 (4)
0x24c0|48 04 00 00 00 00 00 00                        |H.......        |      addr: 0x448 0x24c0-0x24c7.7 (8)
0x24c0|                        48 04 00 00 00 00 00 00|        H.......|      offset: 0x448 0x24c8-0x24cf.7 (8)
0x24d0|08 01 00 00 00 00 00 00                        |........        |      size: 264 0x24d0-0x24d7.7 (8)
0x24d0|                        03 00 00 00            |        ....    |      link: 3 0x24d8-0x24db.7 (4)
0x24d0|                                    00 00 00 00|            ....|      info: 0 0x24dc-0x24df.7 (4)
0x24e0|08 00 00 00 00 00 00 00                        |........        |      addralign: 8 0x24e0-0x24e7.7 (8)
0x24e0|                        18 00 00 00 00 00 00 00|        ........|      entsize: 24 0x24e8-0x24ef.7 (8)
      |                                               |                |    [6]{}: section_header 0x550-0x252f.7 (8160)
0x0550|88 0f 01 00 00 00 00 00 02 04 00 00 03 00 00 00|................|      data: raw bits 0x550-0x5df.7 (144)
*     |until 0x5df.7 (144)                            |                |
0x24f0|47 00 00 00                                    |G...            |      name: ".rela.plt" (71) 0x24f0-0x24f3.7 (4)
0x24f0|            04 00 00 00                        |    ....        |      type: "rela" (0x4) (Relocation entries with explicit addends) 0x24f4-0x24f7.7 (4)
      |                                               |                |      flags{}: 0x24f8-0x24ff.7 (8)
0x24f0|                        42                     |        B       |        link_order: false 0x24f8-0x24f8 (0.1)
0x24f0|                        42                     |        B       |        info_link: true 0x24f8.1-0x24f8.1 (0.1)
0x24f0|                        42                     |        B       |        strings: false 0x24f8.2-0x24f8.2 (0.1)
0x24f0|                        42                     |        B       |        merge: false 0x24f8.3-0x24f8.3 (0.1)
0x24f0|                        42                     |        B       |        unused0: 0 0x24f8.4-0x24f8.4 (0.1)
0x24f0|                        42                     |        B       |        execinstr: false 0x24f8.5-0x24f8.5 (0.1)
0x24f0|                        42                     |        B       |        alloc: true 0x24f8.6-0x24f8.6 (0.1)
0x24f0|                        42                     |        B       |        write: false 0x24f8.7-0x24f8.7 (0.1)
0x24f0|                           00                  |         .      |        tls: false 0x24f9-0x24f9 (0.1)
0x24f0|                           00                  |         .      |        group: false 0x24f9.1-0x24f9.1 (0.1)
0x24f0|                           00                  |         .      |        os_nonconforming: false 0x24f9.2-0x24f9.2 (0.1)
0x24f0|                           00 00               |         ..     |        unused1: 0 0x24f9.3-0x24fa.3 (1.1)
0x24f0|                              00 00            |          ..    |        os_specific: 0 0x24fa.4-0x24fb.3 (1)
0x24f0|                                 00            |           .    |        processor_specific: 0 0x24fb.4-0x24fb.7 (0.4)
0x24f0|                                    00 00 00 00|            ....|        unused2: 0 0x24fc-0x24ff.7 (4)
0x2500|50 05 00 00 00 00 00 00                        |P.......        |      addr: 0x550 0x2500-0x2507.7 (8)
0x2500|                        50 05 00 00 00 00 00 00|        P.......|      offset: 0x550 0x2508-0x250f.7 (8)
0x2510|90 00 00 00 00 00 00 00                        |........        |      size: 144 0x2510-0x2517.7 (8)
0x2510|                        03 00 00 00            |        ....    |      link: 3 0x2518-0x251b.7 (4)
0x2510|                                    11 00 00 00|            ....|      info: 17 0x251c-0x251f.7 (4)
0x2520|08 00 00 00 00 00 00 00                        |........        |      addralign: 8 0x2520-0x2527.7 (8)
0x2520|                        18 00 00 00 00 00 00 00|        ........|      entsize: 24 0x2528-0x252f.7 (8)
      |                                               |                |    [7]{}: section_header 0x5e0-0x256f.7 (8080)
0x05e0|fd 7b bf a9 fd 03 00 91 fd 7b c1 a8 c0 03 5f d6|.{.......{...._.|      data: raw bits 0x5e0-0x5ef.7 (16)
0x2530|51 00 00 00                                    |Q...            |      name: ".init" (81) 0x2530-0x2533.7 (4)
0x2530|            01 00 00 00                        |    ....        |      type: "progbits" (0x1) (Information defined by the program) 0x2534-0x2537.7 (4)
      |                                               |                |      flags{}: 0x2538-0x253f.7 (8)
0x2530|                        06                     |        .       |        link_order: false 0x2538-0x2538 (0.1)
0x2530|                        06                     |        .       |        info_link: false 0x2538.1-0x2538.1 (0.1)
0x2530|                        06                     |        .       |        strings: false 0x2538.2-0x2538.2 (0.1)
0x2530|                        06                     |        .       |        merge: false 0x2538.3-0x2538.3 (0.1)
0x2530|                        06                     |        .       |        unused0: 0 0x2538.4-0x2538.4 (0.1)
0x2530|                        06                     |        .       |        execinstr: true 0x2538.5-0x2538.5 (0.1)
0x2530|                        06                     |        .       |        alloc: true 0x2538.6-0x2538.6 (0.1)
0x2530|                        06                     |        .       |        write: false 0x2538.7-0x2538.7 (0.1)
0x2530|                           00                  |         .      |        tls: false 0x2539-0x2539 (0.1)
0x2530|                           00                  |         .      |        group: false 0x2539.1-0x2539.1 (0.1)
0x2530|                           00                  |         .      |        os_nonconforming: false 0x2539.2-0x2539.2 (0.1)
0x2530|                           00 00               |         ..     |        unused1: 0 0x2539.3-0x253a.3 (1.1)
0x2530|                              00 00            |          ..    |        os_specific: 0 0x253a.4-0x253b.3 (1)
0x2530|                                 00            |           .    |        processor_specific: 0 0x253b.4-0x253b.7 (0.4)
0x2530|                                    00 00 00 00|            ....|        unused2: 0 0x253c-0x253f.7 (4)
0x2540|e0 05 00 00 00 00 00 00                        |........        |      addr: 0x5e0 0x2540-0x2547.7 (8)
0x2540|                        e0 05 00 00 00 00 00 00|        ........|      offset: 0x5e0 0x2548-0x254f.7 (8)
0x2550|10 00 00 00 00 00 00 00                        |........        |      size: 16 0x2550-0x2557.7 (8)
0x2550|                        00 00 00 00            |        ....    |      link: 0 0x2558-0x255b.7 (4)
0x2550|                                    00 00 00 00|            ....|      info: 0 0x255c-0x255f.7 (4)
0x2560|04 00 00 00 00 00 00 00                        |........        |      addralign: 4 0x2560-0x2567.7 (8)
0x2560|                        00 00 00 00 00 00 00 00|        ........|      entsize: 0 0x2568-0x256f.7 (8)
      |                                               |                |    [8]{}: section_header 0x5f0-0x25af.7 (8128)
0x05f0|f0 7b bf a9 90 00 00 90 11 c2 47 f9 10 02 3e 91|.{........G...>.|      data: raw bits 0x5f0-0x66f.7 (128)
*     |until 0x66f.7 (128)                            |                |
0x2570|4c 00 00 00                                    |L...            |      name: ".plt" (76) 0x2570-0x2573.7 (4)
0x2570|            01 00 00 00                        |    ....        |      type: "progbits" (0x1) (Information defined by the program) 0x2574-0x2577.7 (4)
      |                                               |                |      flags{}: 0x2578-0x257f.7 (8)
0x2570|                        06                     |        .       |        link_order: false 0x2578-0x2578 (0.1)
0x2570|                        06                     |        .       |        info_link: false 0x2578.1-0x2578.1 (0.1)
0x2570|                        06                     |        .       |        strings: false 0x2578.2-0x2578.2 (0.1)
0x2570|                        06                     |        .       |        merge: false 0x2578.3-0x2578.3 (0.1)
0x2570|                        06                     |        .       |        unused0: 0 0x2578.4-0x2578.4 (0.1)
0x2570|                        06                     |        .       |        execinstr: true 0x2578.5-0x2578.5 (0.1)
0x2570|                        06                     |        .       |        alloc: true 0x2578.6-0x2578.6 (0.1)
0x2570|                        06                     |        .       |        write: false 0x2578.7-0x2578.7 (0.1)
0x2570|                           00                  |         .      |        tls: false 0x2579-0x2579 (0.1)
0x2570|                           00                  |         .      |        group: false 0x2579.1-0x2579.1 (0.1)
0x2570|                           00                  |         .      |        os_nonconforming: false 0x2579.2-0x2579.2 (0.1)
0x2570|                           00 00               |         ..     |        unused1: 0 0x2579.3-0x257a.3 (1.1)
0x2570|                              00 00            |          ..    |        os_specific: 0 0x257a.4-0x257b.3 (1)
0x2570|                                 00            |           .    |        processor_specific: 0 0x257b.4-0x257b.7 (0.4)
0x2570|                                    00 00 00 00|            ....|        unused2: 0 0x257c-0x257f.7 (4)
0x2580|f0 05 00 00 00 00 00 00                        |........        |      addr: 0x5f0 0x2580-0x2587.7 (8)
0x2580|                        f0 05 00 00 00 00 00 00|        ........|      offset: 0x5f0 0x2588-0x258f.7 (8)
0x2590|80 00 00 00 00 00 00 00                        |........        |      size: 128 0x2590-0x2597.7 (8)
0x2590|                        00 00 00 00            |        ....    |      link: 0 0x2598-0x259b.7 (4)
0x2590|                                    00 00 00 00|            ....|      info: 0 0x259c-0x259f.7 (4)
0x25a0|10 00 00 00 00 00 00 00                        |........        |      addralign: 16 0x25a0-0x25a7.7 (8)
0x25a0|                        00 00 00 00 00 00 00 00|        ........|      entsize: 0 0x25a8-0x25af.7 (8)
      |                                               |                |    [9]{}: section_header 0x670-0x25ef.7 (8064)
0x0670|1d 00 80 d2 1e 00 80 d2 e0 03 00 91 81 00 00 90|................|      data: raw bits 0x670-0x7ff.7 (400)
*     |until 0x7ff.7 (400)                            |                |
0x25b0|57 00 00 00                                    |W...            |      name: ".text" (87) 0x25b0-0x25b3.7 (4)
0x25b0|            01 00 00 00                        |    ....        |      type: "progbits" (0x1) (Information defined by the program) 0x25b4-0x25b7.7 (4)
      |                                               |                |      flags{}: 0x25b8-0x25bf.7 (8)
0x25b0|                        06                     |        .       |        link_order: false 0x25b8-0x25b8 (0.1)
0x25b0|                        06                     |        .       |        info_link: false 0x25b8.1-0x25b8.1 (0.1)
0x25b0|                        06                     |        .       |        strings: false 0x25b8.2-0x25b8.2 (0.1)
0x25b0|                        06                     |        .       |        merge: false 0x25b8.3-0x25b8.3 (0.1)
0x25b0|                        06                     |        .       |        unused0: 0 0x25b8.4-0x25b8.4 (0.1)
0x25b0|                        06                     |        .       |        execinstr: true 0x25b8.5-0x25b8.5 (0.1)
0x25b0|                        06                     |        .       |        alloc: true 0x25b8.6-0x25b8.6 (0.1)
0x25b0|                        06                     |        .       |        write: false 0x25b8.7-0x25b8.7 (0.1)
0x25b0|                           00                  |         .      |        tls: false 0x25b9-0x25b9 (0.1)
0x25b0|                           00                  |         .      |        group: false 0x25b9.1-0x25b9.1 (0.1)
0x25b0|                           00                  |         .      |        os_nonconforming: false 0x25b9.2-0x25b9.2 (0.1)
0x25b0|                           00 00               |         ..     |        unused1: 0 0x25b9.3-0x25ba.3 (1.1)
0x25b0|                              00 00            |          ..    |        os_specific: 0 0x25ba.4-0x25bb.3 (1)
0x25b0|                                 00            |           .    |        processor_specific: 0 0x25bb.4-0x25bb.7 (0.4)
0x25b0|                                    00 00 00 00|            ....|        unused2: 0 0x25bc-0x25bf.7 (4)
0x25c0|70 06 00 00 00 00 00 00                        |p.......        |      addr: 0x670 0x25c0-0x25c7.7 (8)
0x25c0|                        70 06 00 00 00 00 00 00|        p.......|      offset: 0x670 0x25c8-0x25cf.7 (8)
0x25d0|90 01 00 00 00 00 00 00                        |........        |      size: 400 0x25d0-0x25d7.7 (8)
0x25d0|                        00 00 00 00            |        ....    |      link: 0 0x25d8-0x25db.7 (4)
0x25d0|                                    00 00 00 00|            ....|      info: 0 0x25dc-0x25df.7 (4)
0x25e0|10 00 00 00 00 00 00 00                        |........        |      addralign: 16 0x25e0-0x25e7.7 (8)
0x25e0|                        00 00 00 00 00 00 00 00|        ........|      entsize: 0 0x25e8-0x25ef.7 (8)
      |                                               |                |    [10]{}: section_header 0x800-0x262f.7 (7728)
0x0800|fd 7b bf a9 fd 03 00 91 fd 7b c1 a8 c0 03 5f d6|.{.......{...._.|      data: raw bits 0x800-0x80f.7 (16)
0x25f0|5d 00 00 00                                    |]...            |      name: ".fini" (93) 0x25f0-0x25f3.7 (4)
0x25f0|            01 00 00 00                        |    ....        |      type: "progbits" (0x1) (Information defined by the program) 0x25f4-0x25f7.7 (4)
      |                                               |                |      flags{}: 0x25f8-0x25ff.7 (8)
0x25f0|                        06                     |        .       |        link_order: false 0x25f8-0x25f8 (0.1)
0x25f0|                        06                     |        .       |        info_link: false 0x25f8.1-0x25f8.1 (0.1)
0x25f0|                        06                     |        .       |        strings: false 0x25f8.2-0x25f8.2 (0.1)
0x25f0|                        06                     |        .       |        merge: false 0x25f8.3-0x25f8.3 (0.1)
0x25f0|                        06                     |        .       |        unused0: 0 0x25f8.4-0x25f8.4 (0.1)
0x25f0|                        06                     |        .       |        execinstr: true 0x25f8.5-0x25f8.5 (0.1)
0x25f0|                        06                     |        .       |        alloc: true 0x25f8.6-0x25f8.6 (0.1)
0x25f0|                        06                     |        .       |        write: false 0x25f8.7-0x25f8.7 (0.1)
0x25f0|                           00                  |         .      |        tls: false 0x25f9-0x25f9 (0.1)
0x25f0|                           00                  |         .      |        group: false 0x25f9.1-0x25f9.1 (0.1)
0x25f0|                           00                  |         .      |        os_nonconforming: false 0x25f9.2-0x25f9.2 (0.1)
0x25f0|                           00 00               |         ..     |        unused1: 0 0x25f9.3-0x25fa.3 (1.1)
0x25f0|                              00 00            |          ..    |        os_specific: 0 0x25fa.4-0x25fb.3 (1)
0x25f0|                                 00            |           .    |        processor_specific: 0 0x25fb.4-0x25fb.7 (0.4)
0x25f0|                                    00 00 00 00|            ....|        unused2: 0 0x25fc-0x25ff.7 (4)
0x2600|00 08 00 00 00 00 00 00                        |........        |      addr: 0x800 0x2600-0x2607.7 (8)
0x2600|                        00 08 00 00 00 00 00 00|        ........|      offset: 0x800 0x2608-0x260f.7 (8)
0x2610|10 00 00 00 00 00 00 00                        |........        |      size: 16 0x2610-0x2617.7 (8)
0x2610|                        00 00 00 00            |        ....    |      link: 0 0x2618-0x261b.7 (4)
0x2610|                                    00 00 00 00|            ....|      info: 0 0x261c-0x261f.7 (4)
0x2620|04 00 00 00 00 00 00 00                        |........        |      addralign: 4 0x2620-0x2627.7 (8)
0x2620|                        00 00 00 00 00 00 00 00|        ........|      entsize: 0 0x2628-0x262f.7 (8)
      |                                               |                |    [11]{}: section_header 0x810-0x266f.7 (7776)
0x0810|61 61 61 00                                    |aaa.            |      data: raw bits 0x810-0x813.7 (4)
0x2630|63 00 00 00                                    |c...            |      name: ".rodata" (99) 0x2630-0x2633.7 (4)
0x2630|            01 00 00 00                        |    ....        |      type: "progbits" (0x1) (Information defined by the program) 0x2634-0x2637.7 (4)
      |                                               |                |      flags{}: 0x2638-0x263f.7 (8)
0x2630|                        02                     |        .       |        link_order: false 0x2638-0x2638 (0.1)
0x2630|                        02                     |        .       |        info_link: false 0x2638.1-0x2638.1 (0.1)
0x2630|                        02                     |        .       |        strings: false 0x2638.2-0x2638.2 (0.1)
0x2630|                        02                     |        .       |        merge: false 0x2638.3-0x2638.3 (0.1)
0x2630|                        02                     |        .       |        unused0: 0 0x2638.4-0x2638.4 (0.1)
0x2630|                        02                     |        .       |        execinstr: false 0x2638.5-0x2638.5 (0.1)
0x2630|                        02                     |        .       |        alloc: true 0x2638.6-0x2638.6 (0.1)
0x2630|                        02                     |        .       |        write: false 0x2638.7-0x2638.7 (0.1)
0x2630|                           00                  |         .      |        tls: false 0x2639-0x2639 (0.1)
0x2630|                           00                  |         .      |        group: false 0x2639.1-0x2639.1 (0.1)
0x2630|                           00                  |         .      |        os_nonconforming: false 0x2639.2-0x2639.2 (0.1)
0x2630|                           00 00               |         ..     |        unused1: 0 0x2639.3-0x263a.3 (1.1)
0x2630|                              00 00            |          ..    |        os_specific: 0 0x263a.4-0x263b.3 (1)
0x2630|                                 00            |           .    |        processor_specific: 0 0x263b.4-0x263b.7 (0.4)
0x2630|                                    00 00 00 00|            ....|        unused2: 0 0x263c-0x263f.7 (4)
0x2640|10 08 00 00 00 00 00 00                        |........        |      addr: 0x810 0x2640-0x2647.7 (8)
0x2640|                        10 08 00 00 00 00 00 00|        ........|      offset: 0x810 0x2648-0x264f.7 (8)
0x2650|04 00 00 00 00 00 00 00                        |........        |      size: 4 0x2650-0x2657.7 (8)
0x2650|                        00 00 00 00            |        ....    |      link: 0 0x2658-0x265b.7 (4)
0x2650|                                    00 00 00 00|            ....|      info: 0 0x265c-0x265f.7 (4)
0x2660|08 00 00 00 00 00 00 00                        |........        |      addralign: 8 0x2660-0x2667.7 (8)
0x2660|                        00 00 00 00 00 00 00 00|        ........|      entsize: 0 0x2668-0x266f.7 (8)
      |                                               |                |    [12]{}: section_header 0x814-0x26af.7 (7836)
0x0810|            01 1b 03 3b 38 00 00 00 06 00 00 00|    ...;8.......|      data: raw bits 0x814-0x84f.7 (60)
0x0820|ac fe ff ff 50 00 00 00 dc fe ff ff 64 00 00 00|....P.......d...|
*     |until 0x84f.7 (60)                             |                |
0x2670|6b 00 00 00                                    |k...            |      name: ".eh_frame_hdr" (107) 0x2670-0x2673.7 (4)
0x2670|            01 00 00 00                        |    ....        |      type: "progbits" (0x1) (Information defined by the program) 0x2674-0x2677.7 (4)
      |                                               |                |      flags{}: 0x2678-0x267f.7 (8)
0x2670|                        02                     |        .       |        link_order: false 0x2678-0x2678 (0.1)
0x2670|                        02                     |        .       |        info_link: false 0x2678.1-0x2678.1 (0.1)
0x2670|                        02                     |        .       |        strings: false 0x2678.2-0x2678.2 (0.1)
0x2670|                        02                     |        .       |        merge: false 0x2678.3-0x2678.3 (0.1)
0x2670|                        02                     |        .       |        unused0: 0 0x2678.4-0x2678.4 (0.1)
0x2670|                        02                     |        .       |        execinstr: false 0x2678.5-0x2678.5 (0.1)
0x2670|                        02                     |        .       |        alloc: true 0x2678.6-0x2678.6 (0.1)
0x2670|                        02                     |        .       |        write: false 0x2678.7-0x2678.7 (0.1)
0x2670|                           00                  |         .      |        tls: false 0x2679-0x2679 (0.1)
0x2670|                           00                  |         .      |        group: false 0x2679.1-0x2679.1 (0.1)
0x2670|                           00                  |         .      |        os_nonconforming: false 0x2679.2-0x2679.2 (0.1)
0x2670|                           00 00               |         ..     |        unused1: 0 0x2679.3-0x267a.3 (1.1)
0x2670|                              00 00            |          ..    |        os_specific: 0 0x267a.4-0x267b.3 (1)
0x2670|                                 00            |           .    |        processor_specific: 0 0x267b.4-0x267b.7 (0.4)
0x2670|                                    00 00 00 00|            ....|        unused2: 0 0x267c-0x267f.7 (4)
0x2680|14 08 00 00 00 00 00 00                        |........        |      addr: 0x814 0x2680-0x2687.7 (8)
0x2680|                        14 08 00 00 00 00 00 00|        ........|      offset: 0x814 0x2688-0x268f.7 (8)
0x2690|3c 00 00 00 00 00 00 00                        |<.......        |      size: 60 0x2690-0x2697.7 (8)
0x2690|                        00 00 00 00            |        ....    |      link: 0 0x2698-0x269b.7 (4)
0x2690|                                    00 00 00 00|            ....|      info: 0 0x269c-0x269f.7 (4)
0x26a0|04 00 00 00 00 00 00 00                        |........        |      addralign: 4 0x26a0-0x26a7.7 (8)
0x26a0|                        00 00 00 00 00 00 00 00|        ........|      entsize: 0 0x26a8-0x26af.7 (8)
      |                                               |                |    [13]{}: section_header 0x850-0x26ef.7 (7840)
0x0850|10 00 00 00 00 00 00 00 01 7a 52 00 04 78 1e 01|.........zR..x..|      data: raw bits 0x850-0x913.7 (196)
*     |until 0x913.7 (196)                            |                |
0x26b0|79 00 00 00                                    |y...            |      name: ".eh_frame" (121) 0x26b0-0x26b3.7 (4)
0x26b0|            01 00 00 00                        |    ....        |      type: "progbits" (0x1) (Information defined by the program) 0x26b4-0x26b7.7 (4)
      |                                               |                |      flags{}: 0x26b8-0x26bf.7 (8)
0x26b0|                        02                     |        .       |        link_order: false 0x26b8-0x26b8 (0.1)
0x26b0|                        02                     |        .       |        info_link: false 0x26b8.1-0x26b8.1 (0.1)
0x26b0|                        02                     |        .       |        strings: false 0x26b8.2-0x26b8.2 (0.1)
0x26b0|                        02                     |        .       |        merge: false 0x26b8.3-0x26b8.3 (0.1)
0x26b0|                        02                     |        .       |        unused0: 0 0x26b8.4-0x26b8.4 (0.1)
0x26b0|                        02                     |        .       |        execinstr: false 0x26b8.5-0x26b8.5 (0.1)
0x26b0|                        02                     |        .       |        alloc: true 0x26b8.6-0x26b8.6 (0.1)
0x26b0|                        02                     |        .       |        write: false 0x26b8.7-0x26b8.7 (0.1)
0x26b0|                           00                  |         .      |        tls: false 0x26b9-0x26b9 (0.1)
0x26b0|                           00                  |         .      |        group: false 0x26b9.1-0x26b9.1 (0.1)
0x26b0|                           00                  |         .      |        os_nonconforming: false 0x26b9.2-0x26b9.2 (0.1)
0x26b0|                           00 00               |         ..     |        unused1: 0 0x26b9.3-0x26ba.3 (1.1)
0x26b0|                              00 00            |          ..    |        os_specific: 0 0x26ba.4-0x26bb.3 (1)
0x26b0|                                 00            |           .    |        processor_specific: 0 0x26bb.4-0x26bb.7 (0.4)
0x26b0|                                    00 00 00 00|            ....|        unused2: 0 0x26bc-0x26bf.7 (4)
0x26c0|50 08 00 00 00 00 00 00                        |P.......        |      addr: 0x850 0x26c0-0x26c7.7 (8)
0x26c0|                        50 08 00 00 00 00 00 00|        P.......|      offset: 0x850 0x26c8-0x26cf.7 (8)
0x26d0|c4 00 00 00 00 00 00 00                        |........        |      size: 196 0x26d0-0x26d7.7 (8)
0x26d0|                        00 00 00 00            |        ....    |      link: 0 0x26d8-0x26db.7 (4)
0x26d0|                                    00 00 00 00|            ....|      info: 0 0x26dc-0x26df.7 (4)
0x26e0|08 00 00 00 00 00 00 00                        |........        |      addralign: 8 0x26e0-0x26e7.7 (8)
0x26e0|                        00 00 00 00 00 00 00 00|        ........|      entsize: 0 0x26e8-0x26ef.7 (8)
      |                                               |                |    [14]{}: section_header 0xd90-0x272f.7 (6560)
0x0d90|90 07 00 00 00 00 00 00                        |........        |      data: raw bits 0xd90-0xd97.7 (8)
0x26f0|83 00 00 00                                    |....            |      name: ".init_array" (131) 0x26f0-0x26f3.7 (4)
0x26f0|            0e 00 00 00                        |    ....        |      type: "init_array" (0xe) (Initialization functions) 0x26f4-0x26f7.7 (4)
      |                                               |                |      flags{}: 0x26f8-0x26ff.7 (8)
0x26f0|                        03                     |        .       |        link_order: false 0x26f8-0x26f8 (0.1)
0x26f0|                        03                     |        .       |        info_link: false 0x26f8.1-0x26f8.1 (0.1)
0x26f0|                        03                     |        .       |        strings: false 0x26f8.2-0x26f8.2 (0.1)
0x26f0|                        03                     |        .       |        merge: false 0x26f8.3-0x26f8.3 (0.1)
0x26f0|                        03                     |        .       |        unused0: 0 0x26f8.4-0x26f8.4 (0.1)
0x26f0|                        03                     |        .       |        execinstr: false 0x26f8.5-0x26f8.5 (0.1)
0x26f0|                        03                     |        .       |        alloc: true 0x26f8.6-0x26f8.6 (0.1)
0x26f0|                        03                     |        .       |        write: true 0x26f8.7-0x26f8.7 (0.1)
0x26f0|                           00                  |         .      |        tls: false 0x26f9-0x26f9 (0.1)
0x26f0|                           00                  |         .      |        group: false 0x26f9.1-0x26f9.1 (0.1)
0x26f0|                           00                  |         .      |        os_nonconforming: false 0x26f9.2-0x26f9.2 (0.1)
0x26f0|                           00 00               |         ..     |        unused1: 0 0x26f9.3-0x26fa.3 (1.1)
0x26f0|                              00 00            |          ..    |        os_specific: 0 0x26fa.4-0x26fb.3 (1)
0x26f0|                                 00            |           .    |        processor_specific: 0 0x26fb.4-0x26fb.7 (0.4)
0x26f0|                                    00 00 00 00|            ....|        unused2: 0 0x26fc-0x26ff.7 (4)
0x2700|90 0d 01 00 00 00 00 00                        |........        |      addr: 0x10d90 0x2700-0x2707.7 (8)
0x2700|                        90 0d 00 00 00 00 00 00|        ........|      offset: 0xd90 0x2708-0x270f.7 (8)
0x2710|08 00 00 00 00 00 00 00                        |........        |      size: 8 0x2710-0x2717.7 (8)
0x2710|                        00 00 00 00            |        ....    |      link: 0 0x2718-0x271b.7 (4)
0x2710|                                    00 00 00 00|            ....|      info: 0 0x271c-0x271f.7 (4)
0x2720|08 00 00 00 00 00 00 00                        |........        |      addralign: 8 0x2720-0x2727.7 (8)
0x2720|                        08 00 00 00 00 00 00 00|        ........|      entsize: 8 0x2728-0x272f.7 (8)
      |                                               |                |    [15]{}: section_header 0xd98-0x276f.7 (6616)
0x0d90|                        30 07 00 00 00 00 00 00|        0.......|      data: raw bits 0xd98-0xd9f.7 (8)
0x2730|8f 00 00 00                                    |....            |      name: ".fini_array" (143) 0x2730-0x2733.7 (4)
0x2730|            0f 00 00 00                        |    ....        |      type: "fini_array" (0xf) (Termination functions) 0x2734-0x2737.7 (4)
      |                                               |                |      flags{}: 0x2738-0x273f.7 (8)
0x2730|                        03                     |        .       |        link_order: false 0x2738-0x2738 (0.1)
0x2730|                        03                     |        .       |        info_link: false 0x2738.1-0x2738.1 (0.1)
0x2730|                        03                     |        .       |        strings: false 0x2738.2-0x2738.2 (0.1)
0x2730|                        03                     |        .       |        merge: false 0x2738.3-0x2738.3 (0.1)
0x2730|                        03                     |        .       |        unused0: 0 0x2738.4-0x2738.4 (0.1)
0x2730|                        03                     |        .       |        execinstr: false 0x2738.5-0x2738.5 (0.1)
0x2730|                        03                     |        .       |        alloc: true 0x2738.6-0x2738.6 (0.1)
0x2730|                        03                     |        .       |        write: true 0x2738.7-0x2738.7 (0.1)
0x2730|                           00                  |         .      |        tls: false 0x2739-0x2739 (0.1)
0x2730|                           00                  |         .      |        group: false 0x2739.1-0x2739.1 (0.1)
0x2730|                           00                  |         .      |        os_nonconforming: false 0x2739.2-0x2739.2 (0.1)
0x2730|                           00 00               |         ..     |        unused1: 0 0x2739.3-0x273a.3 (1.1)
0x2730|                              00 00            |          ..    |        os_specific: 0 0x273a.4-0x273b.3 (1)
0x2730|                                 00            |           .    |        processor_specific: 0 0x273b.4-0x273b.7 (0.4)
0x2730|                                    00 00 00 00|            ....|        unused2: 0 0x273c-0x273f.7 (4)
0x2740|98 0d 01 00 00 00 00 00                        |........        |      addr: 0x10d98 0x2740-0x2747.7 (8)
0x2740|                        98 0d 00 00 00 00 00 00|        ........|      offset: 0xd98 0x2748-0x274f.7 (8)
0x2750|08 00 00 00 00 00 00 00                        |........        |      size: 8 0x2750-0x2757.7 (8)
0x2750|                        00 00 00 00            |        ....    |      link: 0 0x2758-0x275b.7 (4)
0x2750|                                    00 00 00 00|            ....|      info: 0 0x275c-0x275f.7 (4)
0x2760|08 00 00 00 00 00 00 00                        |........        |      addralign: 8 0x2760-0x2767.7 (8)
0x2760|                        08 00 00 00 00 00 00 00|        ........|      entsize: 8 0x2768-0x276f.7 (8)
      |                                               |                |    [16]{}: section_header 0xda0-0x27af.7 (6672)
      |                                               |                |      dynamic_tags[0:25]: 0xda0-0xf2f.7 (400)
      |                                               |                |        [0]{}: dynamic_tags 0xda0-0xdaf.7 (16)
0x0da0|01 00 00 00 00 00 00 00                        |........        |          tag: "needed" (1) (String table offset to name of a needed library) 0xda0-0xda7.7 (8)
0x0da0|                        a2 00 00 00 00 00 00 00|        ........|          val: "libbbb.so" (162) 0xda8-0xdaf.7 (8)
      |                                               |                |        [1]{}: dynamic_tags 0xdb0-0xdbf.7 (16)
0x0db0|01 00 00 00 00 00 00 00                        |........        |          tag: "needed" (1) (String table offset to name of a needed library) 0xdb0-0xdb7.7 (8)
0x0db0|                        ac 00 00 00 00 00 00 00|        ........|          val: "libc.musl-aarch64.so.1" (172) 0xdb8-0xdbf.7 (8)
      |                                               |                |        [2]{}: dynamic_tags 0xdc0-0xdcf.7 (16)
0x0dc0|0c 00 00 00 00 00 00 00                        |........        |          tag: "init" (12) (Address of the initialization function) 0xdc0-0xdc7.7 (8)
0x0dc0|                        e0 05 00 00 00 00 00 00|        ........|          ptr: 0x5e0 0xdc8-0xdcf.7 (8)
      |                                               |                |          section_index: 7 0xdd0-NA (0)
      |                                               |                |        [3]{}: dynamic_tags 0xdd0-0xddf.7 (16)
0x0dd0|0d 00 00 00 00 00 00 00                        |........        |          tag: "fini" (13) (Address of the termination function) 0xdd0-0xdd7.7 (8)
0x0dd0|                        00 08 00 00 00 00 00 00|        ........|          ptr: 0x800 0xdd8-0xddf.7 (8)
      |                                               |                |          section_index: 10 0xde0-NA (0)
      |                                               |                |        [4]{}: dynamic_tags 0xde0-0xdef.7 (16)
0x0de0|19 00 00 00 00 00 00 00                        |........        |          tag: "init_array" (25) (Address of the array of pointers to initialization functions) 0xde0-0xde7.7 (8)
0x0de0|                        90 0d 01 00 00 00 00 00|        ........|          ptr: 0x10d90 0xde8-0xdef.7 (8)
      |                                               |                |        [5]{}: dynamic_tags 0xdf0-0xdff.7 (16)
0x0df0|1b 00 00 00 00 00 00 00                        |........        |          tag: "init_arraysz" (27) (Size in bytes of the array of initialization functions) 0xdf0-0xdf7.7 (8)
0x0df0|                        08 00 00 00 00 00 00 00|        ........|          val: 8 0xdf8-0xdff.7 (8)
      |                                               |                |        [6]{}: dynamic_tags 0xe00-0xe0f.7 (16)
0x0e00|1a 00 00 00 00 00 00 00                        |........        |          tag: "fini_array" (26) (Address of the array of pointers to termination functions) 0xe00-0xe07.7 (8)
0x0e00|                        98 0d 01 00 00 00 00 00|        ........|          ptr: 0x10d98 0xe08-0xe0f.7 (8)
      |                                               |                |        [7]{}: dynamic_tags 0xe10-0xe1f.7 (16)
0x0e10|1c 00 00 00 00 00 00 00                        |........        |          tag: "fini_arraysz" (28) (Size in bytes of the array of termination functions ) 0xe10-0xe17.7 (8)
0x0e10|                        08 00 00 00 00 00 00 00|        ........|          val: 8 0xe18-0xe1f.7 (8)
      |                                               |                |        [8]{}: dynamic_tags 0xe20-0xe2f.7 (16)
0x0e20|f5 fe ff 6f 00 00 00 00                        |...o....        |          tag: 1879047925 0xe20-0xe27.7 (8)
0x0e20|                        20 02 00 00 00 00 00 00|         .......|          unspecified: 0x220 0xe28-0xe2f.7 (8)
      |                                               |                |        [9]{}: dynamic_tags 0xe30-0xe3f.7 (16)
0x0e30|05 00 00 00 00 00 00 00                        |........        |          tag: "strtab" (5) (Address of string table) 0xe30-0xe37.7 (8)
0x0e30|                        80 03 00 00 00 00 00 00|        ........|          ptr: 0x380 0xe38-0xe3f.7 (8)
      |                                               |                |          section_index: 4 0xe40-NA (0)
      |                                               |                |        [10]{}: dynamic_tags 0xe40-0xe4f.7 (16)
0x0e40|06 00 00 00 00 00 00 00                        |........        |          tag: "symtab" (6) (Address of symbol table) 0xe40-0xe47.7 (8)
0x0e40|                        48 02 00 00 00 00 00 00|        H.......|          ptr: 0x248 0xe48-0xe4f.7 (8)
      |                                               |                |          section_index: 3 0xe50-NA (0)
      |                                               |                |        [11]{}: dynamic_tags 0xe50-0xe5f.7 (16)
0x0e50|0a 00 00 00 00 00 00 00                        |........        |          tag: "strsz" (10) (Size in bytes of string table) 0xe50-0xe57.7 (8)
0x0e50|                        c3 00 00 00 00 00 00 00|        ........|          val: 195 0xe58-0xe5f.7 (8)
      |                                               |                |        [12]{}: dynamic_tags 0xe60-0xe6f.7 (16)
0x0e60|0b 00 00 00 00 00 00 00                        |........        |          tag: "syment" (11) (Size in bytes of a symbol table entry) 0xe60-0xe67.7 (8)
0x0e60|                        18 00 00 00 00 00 00 00|        ........|          val: 24 0xe68-0xe6f.7 (8)
      |                                               |                |        [13]{}: dynamic_tags 0xe70-0xe7f.7 (16)
0x0e70|15 00 00 00 00 00 00 00                        |........        |          tag: "debug" (21) (Undefined use for debugging) 0xe70-0xe77.7 (8)
0x0e70|                        00 00 00 00 00 00 00 00|        ........|          ptr: 0x0 0xe78-0xe7f.7 (8)
      |                                               |                |        [14]{}: dynamic_tags 0xe80-0xe8f.7 (16)
0x0e80|03 00 00 00 00 00 00 00                        |........        |          tag: "pltgot" (3) (Address of PLT and/or GOT) 0xe80-0xe87.7 (8)
0x0e80|                        70 0f 01 00 00 00 00 00|        p.......|          ptr: 0x10f70 0xe88-0xe8f.7 (8)
      |                                               |                |          section_index: 17 0xe90-NA (0)
      |                                               |                |        [15]{}: dynamic_tags 0xe90-0xe9f.7 (16)
0x0e90|02 00 00 00 00 00 00 00                        |........        |          tag: "pltrelsz" (2) (Size in bytes of PLT relocation entries) 0xe90-0xe97.7 (8)
0x0e90|                        90 00 00 00 00 00 00 00|        ........|          val: 144 0xe98-0xe9f.7 (8)
      |                                               |                |        [16]{}: dynamic_tags 0xea0-0xeaf.7 (16)
0x0ea0|14 00 00 00 00 00 00 00                        |........        |          tag: "pltrel" (20) (Type of relocation entry to which the PLT refers (Rela or Rel)) 0xea0-0xea7.7 (8)
0x0ea0|                        07 00 00 00 00 00 00 00|        ........|          val: 7 0xea8-0xeaf.7 (8)
      |                                               |                |        [17]{}: dynamic_tags 0xeb0-0xebf.7 (16)
0x0eb0|17 00 00 00 00 00 00 00                        |........        |          tag: "jmprel" (23) (Address of relocation entries associated solely with the PLT) 0xeb0-0xeb7.7 (8)
0x0eb0|                        50 05 00 00 00 00 00 00|        P.......|          ptr: 0x550 0xeb8-0xebf.7 (8)
      |                                               |                |          section_index: 6 0xec0-NA (0)
      |                                               |                |        [18]{}: dynamic_tags 0xec0-0xecf.7 (16)
0x0ec0|07 00 00 00 00 00 00 00                        |........        |          tag: "rela" (7) (Address of Rela relocation table) 0xec0-0xec7.7 (8)
0x0ec0|                        48 04 00 00 00 00 00 00|        H.......|          ptr: 0x448 0xec8-0xecf.7 (8)
      |                                               |                |        [19]{}: dynamic_tags 0xed0-0xedf.7 (16)
0x0ed0|08 00 00 00 00 00 00 00                        |........        |          tag: "relasz" (8) (Size in bytes of the Rela relocation table) 0xed0-0xed7.7 (8)
0x0ed0|                        08 01 00 00 00 00 00 00|        ........|          val: 264 0xed8-0xedf.7 (8)
      |                                               |                |        [20]{}: dynamic_tags 0xee0-0xeef.7 (16)
0x0ee0|09 00 00 00 00 00 00 00                        |........        |          tag: "relaent" (9) (Size in bytes of a Rela relocation table entry) 0xee0-0xee7.7 (8)
0x0ee0|                        18 00 00 00 00 00 00 00|        ........|          val: 24 0xee8-0xeef.7 (8)
      |                                               |                |        [21]{}: dynamic_tags 0xef0-0xeff.7 (16)
0x0ef0|18 00 00 00 00 00 00 00                        |........        |          tag: "bind_now" (24) (Instruct dynamic linker to process all relocations before transferring control to the executable) 0xef0-0xef7.7 (8)
0x0ef0|                        00 00 00 00 00 00 00 00|        ........|          ignored: 0x0 0xef8-0xeff.7 (8)
      |                                               |                |        [22]{}: dynamic_tags 0xf00-0xf0f.7 (16)
0x0f00|fb ff ff 6f 00 00 00 00                        |...o....        |          tag: 1879048187 0xf00-0xf07.7 (8)
0x0f00|                        01 00 00 08 00 00 00 00|        ........|          unspecified: 0x8000001 0xf08-0xf0f.7 (8)
      |                                               |                |        [23]{}: dynamic_tags 0xf10-0xf1f.7 (16)
0x0f10|f9 ff ff 6f 00 00 00 00                        |...o....        |          tag: 1879048185 0xf10-0xf17.7 (8)
0x0f10|                        06 00 00 00 00 00 00 00|        ........|          unspecified: 0x6 0xf18-0xf1f.7 (8)
      |                                               |                |        [24]{}: dynamic_tags 0xf20-0xf2f.7 (16)
0x0f20|00 00 00 00 00 00 00 00                        |........        |          tag: "null" (0) (Marks end of dynamic section) 0xf20-0xf27.7 (8)
0x0f20|                        00 00 00 00 00 00 00 00|        ........|          ignored: 0x0 0xf28-0xf2f.7 (8)
0x2770|9b 00 00 00                                    |....            |      name: ".dynamic" (155) 0x2770-0x2773.7 (4)
0x2770|            06 00 00 00                        |    ....        |      type: "dynamic" (0x6) (Information for dynamic linking) 0x2774-0x2777.7 (4)
      |                                               |                |      flags{}: 0x2778-0x277f.7 (8)
0x2770|                        03                     |        .       |        link_order: false 0x2778-0x2778 (0.1)
0x2770|                        03                     |        .       |        info_link: false 0x2778.1-0x2778.1 (0.1)
0x2770|                        03                     |        .       |        strings: false 0x2778.2-0x2778.2 (0.1)
0x2770|                        03                     |        .       |        merge: false 0x2778.3-0x2778.3 (0.1)
0x2770|                        03                     |        .       |        unused0: 0 0x2778.4-0x2778.4 (0.1)
0x2770|                        03                     |        .       |        execinstr: false 0x2778.5-0x2778.5 (0.1)
0x2770|                        03                     |        .       |        alloc: true 0x2778.6-0x2778.6 (0.1)
0x2770|                        03                     |        .       |        write: true 0x2778.7-0x2778.7 (0.1)
0x2770|                           00                  |         .      |        tls: false 0x2779-0x2779 (0.1)
0x2770|                           00                  |         .      |        group: false 0x2779.1-0x2779.1 (0.1)
0x2770|                           00                  |         .      |        os_nonconforming: false 0x2779.2-0x2779.2 (0.1)
0x2770|                           00 00               |         ..     |        unused1: 0 0x2779.3-0x277a.3 (1.1)
0x2770|                              00 00            |          ..    |        os_specific: 0 0x277a.4-0x277b.3 (1)
0x2770|                                 00            |           .    |        processor_specific: 0 0x277b.4-0x277b.7 (0.4)
0x2770|                                    00 00 00 00|            ....|        unused2: 0 0x277c-0x277f.7 (4)
0x2780|a0 0d 01 00 00 00 00 00                        |........        |      addr: 0x10da0 0x2780-0x2787.7 (8)
0x2780|                        a0 0d 00 00 00 00 00 00|        ........|      offset: 0xda0 0x2788-0x278f.7 (8)
0x2790|d0 01 00 00 00 00 00 00                        |........        |      size: 464 0x2790-0x2797.7 (8)
0x2790|                        04 00 00 00            |        ....    |      link: 4 0x2798-0x279b.7 (4)
0x2790|                                    00 00 00 00|            ....|      info: 0 0x279c-0x279f.7 (4)
0x27a0|08 00 00 00 00 00 00 00                        |........        |      addralign: 8 0x27a0-0x27a7.7 (8)
0x27a0|                        10 00 00 00 00 00 00 00|        ........|      entsize: 16 0x27a8-0x27af.7 (8)
      |                                               |                |    [17]{}: section_header 0xf70-0x27ef.7 (6272)
0x0f70|00 00 00 00 00 00 00 00 00 00 00 00 00 00 00 00|................|      data: raw bits 0xf70-0xfff.7 (144)
*     |until 0xfff.7 (144)                            |                |
0x27b0|a4 00 00 00                                    |....            |      name: ".got" (164) 0x27b0-0x27b3.7 (4)
0x27b0|            01 00 00 00                        |    ....        |      type: "progbits" (0x1) (Information defined by the program) 0x27b4-0x27b7.7 (4)
      |                                               |                |      flags{}: 0x27b8-0x27bf.7 (8)
0x27b0|                        03                     |        .       |        link_order: false 0x27b8-0x27b8 (0.1)
0x27b0|                        03                     |        .       |        info_link: false 0x27b8.1-0x27b8.1 (0.1)
0x27b0|                        03                     |        .       |        strings: false 0x27b8.2-0x27b8.2 (0.1)
0x27b0|                        03                     |        .       |        merge: false 0x27b8.3-0x27b8.3 (0.1)
0x27b0|                        03                     |        .       |        unused0: 0 0x27b8.4-0x27b8.4 (0.1)
0x27b0|                        03                     |        .       |        execinstr: false 0x27b8.5-0x27b8.5 (0.1)
0x27b0|                        03                     |        .       |        alloc: true 0x27b8.6-0x27b8.6 (0.1)
0x27b0|                        03                     |        .       |        write: true 0x27b8.7-0x27b8.7 (0.1)
0x27b0|                           00                  |         .      |        tls: false 0x27b9-0x27b9 (0.1)
0x27b0|                           00                  |         .      |        group: false 0x27b9.1-0x27b9.1 (0.1)
0x27b0|                           00                  |         .      |        os_nonconforming: false 0x27b9.2-0x27b9.2 (0.1)
0x27b0|                           00 00               |         ..     |        unused1: 0 0x27b9.3-0x27ba.3 (1.1)
0x27b0|                              00 00            |          ..    |        os_specific: 0 0x27ba.4-0x27bb.3 (1)
0x27b0|                                 00            |           .    |        processor_specific: 0 0x27bb.4-0x27bb.7 (0.4)
0x27b0|                                    00 00 00 00|            ....|        unused2: 0 0x27bc-0x27bf.7 (4)
0x27c0|70 0f 01 00 00 00 00 00                        |p.......        |      addr: 0x10f70 0x27c0-0x27c7.7 (8)
0x27c0|                        70 0f 00 00 00 00 00 00|        p.......|      offset: 0xf70 0x27c8-0x27cf.7 (8)
0x27d0|90 00 00 00 00 00 00 00                        |........        |      size: 144 0x27d0-0x27d7.7 (8)
0x27d0|                        00 00 00 00            |        ....    |      link: 0 0x27d8-0x27db.7 (4)
0x27d0|                                    00 00 00 00|            ....|      info: 0 0x27dc-0x27df.7 (4)
0x27e0|08 00 00 00 00 00 00 00                        |........        |      addralign: 8 0x27e0-0x27e7.7 (8)
0x27e0|                        08 00 00 00 00 00 00 00|        ........|      entsize: 8 0x27e8-0x27ef.7 (8)
      |                                               |                |    [18]{}: section_header 0x1000-0x282f.7 (6192)
0x1000|00 10 01 00 00 00 00 00                        |........        |      data: raw bits 0x1000-0x1007.7 (8)
0x27f0|a9 00 00 00                                    |....            |      name: ".data" (169) 0x27f0-0x27f3.7 (4)
0x27f0|            01 00 00 00                        |    ....        |      type: "progbits" (0x1) (Information defined by the program) 0x27f4-0x27f7.7 (4)
      |                                               |                |      flags{}: 0x27f8-0x27ff.7 (8)
0x27f0|                        03                     |        .       |        link_order: false 0x27f8-0x27f8 (0.1)
0x27f0|                        03                     |        .       |        info_link: false 0x27f8.1-0x27f8.1 (0.1)
0x27f0|                        03                     |        .       |        strings: false 0x27f8.2-0x27f8.2 (0.1)
0x27f0|                        03                     |        .       |        merge: false 0x27f8.3-0x27f8.3 (0.1)
0x27f0|                        03                     |        .       |        unused0: 0 0x27f8.4-0x27f8.4 (0.1)
0x27f0|                        03                     |        .       |        execinstr: false 0x27f8.5-0x27f8.5 (0.1)
0x27f0|                        03                     |        .       |        alloc: true 0x27f8.6-0x27f8.6 (0.1)
0x27f0|                        03                     |        .       |        write: true 0x27f8.7-0x27f8.7 (0.1)
0x27f0|                           00                  |         .      |        tls: false 0x27f9-0x27f9 (0.1)
0x27f0|                           00                  |         .      |        group: false 0x27f9.1-0x27f9.1 (0.1)
0x27f0|                           00                  |         .      |        os_nonconforming: false 0x27f9.2-0x27f9.2 (0.1)
0x27f0|                           00 00               |         ..     |        unused1: 0 0x27f9.3-0x27fa.3 (1.1)
0x27f0|                              00 00            |          ..    |        os_specific: 0 0x27fa.4-0x27fb.3 (1)
0x27f0|                                 00            |           .    |        processor_specific: 0 0x27fb.4-0x27fb.7 (0.4)
0x27f0|                                    00 00 00 00|            ....|        unused2: 0 0x27fc-0x27ff.7 (4)
0x2800|00 10 01 00 00 00 00 00                        |........        |      addr: 0x11000 0x2800-0x2807.7 (8)
0x2800|                        00 10 00 00 00 00 00 00|        ........|      offset: 0x1000 0x2808-0x280f.7 (8)
0x2810|08 00 00 00 00 00 00 00                        |........        |      size: 8 0x2810-0x2817.7 (8)
0x2810|                        00 00 00 00            |        ....    |      link: 0 0x2818-0x281b.7 (4)
0x2810|                                    00 00 00 00|            ....|      info: 0 0x281c-0x281f.7 (4)
0x2820|08 00 00 00 00 00 00 00                        |........        |      addralign: 8 0x2820-0x2827.7 (8)
0x2820|                        00 00 00 00 00 00 00 00|        ........|      entsize: 0 0x2828-0x282f.7 (8)
      |                                               |                |    [19]{}: section_header 0x2830-0x286f.7 (64)
0x2830|af 00 00 00                                    |....            |      name: ".bss" (175) 0x2830-0x2833.7 (4)
0x2830|            08 00 00 00                        |    ....        |      type: "nobits" (0x8) (No space in the file) 0x2834-0x2837.7 (4)
      |                                               |                |      flags{}: 0x2838-0x283f.7 (8)
0x2830|                        03                     |        .       |        link_order: false 0x2838-0x2838 (0.1)
0x2830|                        03                     |        .       |        info_link: false 0x2838.1-0x2838.1 (0.1)
0x2830|                        03                     |        .       |        strings: false 0x2838.2-0x2838.2 (0.1)
0x2830|                        03                     |        .       |        merge: false 0x2838.3-0x2838.3 (0.1)
0x2830|                        03                     |        .       |        unused0: 0 0x2838.4-0x2838.4 (0.1)
0x2830|                        03                     |        .       |        execinstr: false 0x2838.5-0x2838.5 (0.1)
0x2830|                        03                     |        .       |        alloc: true 0x2838.6-0x2838.6 (0.1)
0x2830|                        03                     |        .       |        write: true 0x2838.7-0x2838.7 (0.1)
0x2830|                           00                  |         .      |        tls: false 0x2839-0x2839 (0.1)
0x2830|                           00                  |         .      |        group: false 0x2839.1-0x2839.1 (0.1)
0x2830|                           00                  |         .      |        os_nonconforming: false 0x2839.2-0x2839.2 (0.1)
0x2830|                           00 00               |         ..     |        unused1: 0 0x2839.3-0x283a.3 (1.1)
0x2830|                              00 00            |          ..    |        os_specific: 0 0x283a.4-0x283b.3 (1)
0x2830|                                 00            |           .    |        processor_specific: 0 0x283b.4-0x283b.7 (0.4)
0x2830|                                    00 00 00 00|            ....|        unused2: 0 0x283c-0x283f.7 (4)
0x2840|08 10 01 00 00 00 00 00                        |........        |      addr: 0x11008 0x2840-0x2847.7 (8)
0x2840|                        08 10 00 00 00 00 00 00|        ........|      offset: 0x1008 0x2848-0x284f.7 (8)
0x2850|38 00 00 00 00 00 00 00                        |8.......        |      size: 56 0x2850-0x2857.7 (8)
0x2850|                        00 00 00 00            |        ....    |      link: 0 0x2858-0x285b.7 (4)
0x2850|                                    00 00 00 00|            ....|      info: 0 0x285c-0x285f.7 (4)
0x2860|08 00 00 00 00 00 00 00                        |........        |      addralign: 8 0x2860-0x2867.7 (8)
0x2860|                        00 00 00 00 00 00 00 00|        ........|      entsize: 0 0x2868-0x286f.7 (8)
      |                                               |                |    [20]{}: section_header 0x1008-0x28af.7 (6312)
0x1000|                        47 43 43 3a 20 28 41 6c|        GCC: (Al|      data: raw bits 0x1008-0x1069.7 (98)
0x1010|70 69 6e 65 20 31 30 2e 33 2e 31 5f 67 69 74 32|pine 10.3.1_git2|
*     |until 0x1069.7 (98)                            |                |
0x2870|b4 00 00 00                                    |....            |      name: ".comment" (180) 0x2870-0x2873.7 (4)
0x2870|            01 00 00 00                        |    ....        |      type: "progbits" (0x1) (Information defined by the program) 0x2874-0x2877.7 (4)
      |                                               |                |      flags{}: 0x2878-0x287f.7 (8)
0x2870|                        30                     |        0       |        link_order: false 0x2878-0x2878 (0.1)
0x2870|                        30                     |        0       |        info_link: false 0x2878.1-0x2878.1 (0.1)
0x2870|                        30                     |        0       |        strings: true 0x2878.2-0x2878.2 (0.1)
0x2870|                        30                     |        0       |        merge: true 0x2878.3-0x2878.3 (0.1)
0x2870|                        30                     |        0       |        unused0: 0 0x2878.4-0x2878.4 (0.1)
0x2870|                        30                     |        0       |        execinstr: false 0x2878.5-0x2878.5 (0.1)
0x2870|                        30                     |        0       |        alloc: false 0x2878.6-0x2878.6 (0.1)
0x2870|                        30                     |        0       |        write: false 0x2878.7-0x2878.7 (0.1)
0x2870|                           00                  |         .      |        tls: false 0x2879-0x2879 (0.1)
0x2870|                           00                  |         .      |        group: false 0x2879.1-0x2879.1 (0.1)
0x2870|                           00                  |         .      |        os_nonconforming: false 0x2879.2-0x2879.2 (0.1)
0x2870|                           00 00               |         ..     |        unused1: 0 0x2879.3-0x287a.3 (1.1)
0x2870|                              00 00            |          ..    |        os_specific: 0 0x287a.4-0x287b.3 (1)
0x2870|                                 00            |           .    |        processor_specific: 0 0x287b.4-0x287b.7 (0.4)
0x2870|                                    00 00 00 00|            ....|        unused2: 0 0x287c-0x287f.7 (4)
0x2880|00 00 00 00 00 00 00 00                        |........        |      addr: 0x0 0x2880-0x2887.7 (8)
0x2880|                        08 10 00 00 00 00 00 00|        ........|      offset: 0x1008 0x2888-0x288f.7 (8)
0x2890|62 00 00 00 00 00 00 00                        |b.......        |      size: 98 0x2890-0x2897.7 (8)
0x2890|                        00 00 00 00            |        ....    |      link: 0 0x2898-0x289b.7 (4)
0x2890|                                    00 00 00 00|            ....|      info: 0 0x289c-0x289f.7 (4)
0x28a0|01 00 00 00 00 00 00 00                        |........        |      addralign: 1 0x28a0-0x28a7.7 (8)
0x28a0|                        01 00 00 00 00 00 00 00|        ........|      entsize: 1 0x28a8-0x28af.7 (8)
      |                                               |                |    [21]{}: section_header 0x1070-0x28ef.7 (6272)
0x1070|2c 00 00 00 02 00 00 00 00 00 08 00 00 00 00 00|,...............|      data: raw bits 0x1070-0x111f.7 (176)
*     |until 0x111f.7 (176)                           |                |
0x28b0|bd 00 00 00                                    |....            |      name: ".debug_aranges" (189) 0x28b0-0x28b3.7 (4)
0x28b0|            01 00 00 00                        |    ....        |      type: "progbits" (0x1) (Information defined by the program) 0x28b4-0x28b7.7 (4)
      |                                               |                |      flags{}: 0x28b8-0x28bf.7 (8)
0x28b0|                        00                     |        .       |        link_order: false 0x28b8-0x28b8 (0.1)
0x28b0|                        00                     |        .       |        info_link: false 0x28b8.1-0x28b8.1 (0.1)
0x28b0|                        00                     |        .       |        strings: false 0x28b8.2-0x28b8.2 (0.1)
0x28b0|                        00                     |        .       |        merge: false 0x28b8.3-0x28b8.3 (0.1)
0x28b0|                        00                     |        .       |        unused0: 0 0x28b8.4-0x28b8.4 (0.1)
0x28b0|                        00                     |        .       |        execinstr: false 0x28b8.5-0x28b8.5 (0.1)
0x28b0|                        00                     |        .       |        alloc: false 0x28b8.6-0x28b8.6 (0.1)
0x28b0|                        00                     |        .       |        write: false 0x28b8.7-0x28b8.7 (0.1)
0x28b0|                           00                  |         .      |        tls: false 0x28b9-0x28b9 (0.1)
0x28b0|                           00                  |         .      |        group: false 0x28b9.1-0x28b9.1 (0.1)
0x28b0|                           00                  |         .      |        os_nonconforming: false 0x28b9.2-0x28b9.2 (0.1)
0x28b0|                           00 00               |         ..     |        unused1: 0 0x28b9.3-0x28ba.3 (1.1)
0x28b0|                              00 00            |          ..    |        os_specific: 0 0x28ba.4-0x28bb.3 (1)
0x28b0|                                 00            |           .    |        processor_specific: 0 0x28bb.4-0x28bb.7 (0.4)
0x28b0|                                    00 00 00 00|            ....|        unused2: 0 0x28bc-0x28bf.7 (4)
0x28c0|00 00 00 00 00 00 00 00                        |........        |      addr: 0x0 0x28c0-0x28c7.7 (8)
0x28c0|                        70 10 00 00 00 00 00 00|        p.......|      offset: 0x1070 0x28c8-0x28cf.7 (8)
0x28d0|b0 00 00 00 00 00 00 00                        |........        |      size: 176 0x28d0-0x28d7.7 (8)
0x28d0|                        00 00 00 00            |        ....    |      link: 0 0x28d8-0x28db.7 (4)
0x28d0|                                    00 00 00 00|            ....|      info: 0 0x28dc-0x28df.7 (4)
0x28e0|10 00 00 00 00 00 00 00                        |........        |      addralign: 16 0x28e0-0x28e7.7 (8)
0x28e0|                        00 00 00 00 00 00 00 00|        ........|      entsize: 0 0x28e8-0x28ef.7 (8)
      |                                               |                |    [22]{}: section_header 0x1120-0x292f.7 (6160)
0x1120|f1 00 00 00 04 00 00 00 00 00 08 01 00 00 00 00|................|      data: raw bits 0x1120-0x1258.7 (313)
*     |until 0x1258.7 (313)                           |                |
0x28f0|cc 00 00 00                                    |....            |      name: ".debug_info" (204) 0x28f0-0x28f3.7 (4)
0x28f0|            01 00 00 00                        |    ....        |      type: "progbits" (0x1) (Information defined by the program) 0x28f4-0x28f7.7 (4)
      |                                               |                |      flags{}: 0x28f8-0x28ff.7 (8)
0x28f0|                        00                     |        .       |        link_order: false 0x28f8-0x28f8 (0.1)
0x28f0|                        00                     |        .       |        info_link: false 0x28f8.1-0x28f8.1 (0.1)
0x28f0|                        00                     |        .       |        strings: false 0x28f8.2-0x28f8.2 (0.1)
0x28f0|                        00                     |        .       |        merge: false 0x28f8.3-0x28f8.3 (0.1)
0x28f0|                        00                     |        .       |        unused0: 0 0x28f8.4-0x28f8.4 (0.1)
0x28f0|                        00                     |        .       |        execinstr: false 0x28f8.5-0x28f8.5 (0.1)
0x28f0|                        00                     |        .       |        alloc: false 0x28f8.6-0x28f8.6 (0.1)
0x28f0|                        00                     |        .       |        write: false 0x28f8.7-0x28f8.7 (0.1)
0x28f0|                           00                  |         .      |        tls: false 0x28f9-0x28f9 (0.1)
0x28f0|                           00                  |         .      |        group: false 0x28f9.1-0x28f9.1 (0.1)
0x28f0|                           00                  |         .      |        os_nonconforming: false 0x28f9.2-0x28f9.2 (0.1)
0x28f0|                           00 00               |         ..     |        unused1: 0 0x28f9.3-0x28fa.3 (1.1)
0x28f0|                              00 00            |          ..    |        os_specific: 0 0x28fa.4-0x28fb.3 (1)
0x28f0|                                 00            |           .    |        processor_specific: 0 0x28fb.4-0x28fb.7 (0.4)
0x28f0|                                    00 00 00 00|            ....|        unused2: 0 0x28fc-0x28ff.7 (4)
0x2900|00 00 00 00 00 00 00 00                        |........        |      addr: 0x0 0x2900-0x2907.7 (8)
0x2900|                        20 11 00 00 00 00 00 00|         .......|      offset: 0x1120 0x2908-0x290f.7 (8)
0x2910|39 01 00 00 00 00 00 00                        |9.......        |      size: 313 0x2910-0x2917.7 (8)
0x2910|                        00 00 00 00            |        ....    |      link: 0 0x2918-0x291b.7 (4)
0x2910|                                    00 00 00 00|            ....|      info: 0 0x291c-0x291f.7 (4)
0x2920|01 00 00 00 00 00 00 00                        |........        |      addralign: 1 0x2920-0x2927.7 (8)
0x2920|                        00 00 00 00 00 00 00 00|        ........|      entsize: 0 0x2928-0x292f.7 (8)
      |                                               |                |    [23]{}: section_header 0x1259-0x296f.7 (5911)
0x1250|                           01 11 01 25 0e 13 0b|         ...%...|      data: raw bits 0x1259-0x1320.7 (200)
0x1260|03 0e 1b 0e 55 17 11 01 10 17 00 00 02 24 00 0b|....U........$..|
*     |until 0x1320.7 (200)                           |                |
0x2930|d8 00 00 00                                    |....            |      name: ".debug_abbrev" (216) 0x2930-0x2933.7 (4)
0x2930|            01 00 00 00                        |    ....        |      type: "progbits" (0x1) (Information defined by the program) 0x2934-0x2937.7 (4)
      |                                               |                |      flags{}: 0x2938-0x293f.7 (8)
0x2930|                        00                     |        .       |        link_order: false 0x2938-0x2938 (0.1)
0x2930|                        00                     |        .       |        info_link: false 0x2938.1-0x2938.1 (0.1)
0x2930|                        00                     |        .       |        strings: false 0x2938.2-0x2938.2 (0.1)
0x2930|                        00                     |        .       |        merge: false 0x2938.3-0x2938.3 (0.1)
0x2930|                        00                     |        .       |        unused0: 0 0x2938.4-0x2938.4 (0.1)
0x2930|                        00                     |        .       |        execinstr: false 0x2938.5-0x2938.5 (0.1)
0x2930|                        00                     |        .       |        alloc: false 0x2938.6-0x2938.6 (0.1)
0x2930|                        00                     |        .       |        write: false 0x2938.7-0x2938.7 (0.1)
0x2930|                           00                  |         .      |        tls: false 0x2939-0x2939 (0.1)
0x2930|                           00                  |         .      |        group: false 0x2939.1-0x2939.1 (0.1)
0x2930|                           00                  |         .      |        os_nonconforming: false 0x2939.2-0x2939.2 (0.1)
0x2930|                           00 00               |         ..     |        unused1: 0 0x2939.3-0x293a.3 (1.1)
0x2930|                              00 00            |          ..    |        os_specific: 0 0x293a.4-0x293b.3 (1)
0x2930|                                 00            |           .    |        processor_specific: 0 0x293b.4-0x293b.7 (0.4)
0x2930|                                    00 00 00 00|            ....|        unused2: 0 0x293c-0x293f.7 (4)
0x2940|00 00 00 00 00 00 00 00                        |........        |      addr: 0x0 0x2940-0x2947.7 (8)
0x2940|                        59 12 00 00 00 00 00 00|        Y.......|      offset: 0x1259 0x2948-0x294f.7 (8)
0x2950|c8 00 00 00 00 00 00 00                        |........        |      size: 200 0x2950-0x2957.7 (8)
0x2950|                        00 00 00 00            |        ....    |      link: 0 0x2958-0x295b.7 (4)
0x2950|                                    00 00 00 00|            ....|      info: 0 0x295c-0x295f.7 (4)
0x2960|01 00 00 00 00 00 00 00                        |........        |      addralign: 1 0x2960-0x2967.7 (8)
0x2960|                        00 00 00 00 00 00 00 00|        ........|      entsize: 0 0x2968-0x296f.7 (8)
      |                                               |                |    [24]{}: section_header 0x1321-0x29af.7 (5775)
0x1320|   4e 00 00 00 03 00 21 00 00 00 04 01 fb 0e 0d| N.....!........|      data: raw bits 0x1321-0x1422.7 (258)
0x1330|00 01 01 01 01 00 00 00 01 00 00 01 63 72 74 00|............crt.|
*     |until 0x1422.7 (258)                           |                |
0x2970|e6 00 00 00                                    |....            |      name: ".debug_line" (230) 0x2970-0x2973.7 (4)
0x2970|            01 00 00 00                        |    ....        |      type: "progbits" (0x1) (Information defined by the program) 0x2974-0x2977.7 (4)
      |                                               |                |      flags{}: 0x2978-0x297f.7 (8)
0x2970|                        00                     |        .       |        link_order: false 0x2978-0x2978 (0.1)
0x2970|                        00                     |        .       |        info_link: false 0x2978.1-0x2978.1 (0.1)
0x2970|                        00                     |        .       |        strings: false 0x2978.2-0x2978.2 (0.1)
0x2970|                        00                     |        .       |        merge: false 0x2978.3-0x2978.3 (0.1)
0x2970|                        00                     |        .       |        unused0: 0 0x2978.4-0x2978.4 (0.1)
0x2970|                        00                     |        .       |        execinstr: false 0x2978.5-0x2978.5 (0.1)
0x2970|                        00                     |        .       |        alloc: false 0x2978.6-0x2978.6 (0.1)
0x2970|                        00                     |        .       |        write: false 0x2978.7-0x2978.7 (0.1)
0x2970|                           00                  |         .      |        tls: false 0x2979-0x2979 (0.1)
0x2970|                           00                  |         .      |        group: false 0x2979.1-0x2979.1 (0.1)
0x2970|                           00                  |         .      |        os_nonconforming: false 0x2979.2-0x2979.2 (0.1)
0x2970|                           00 00               |         ..     |        unused1: 0 0x2979.3-0x297a.3 (1.1)
0x2970|                              00 00            |          ..    |        os_specific: 0 0x297a.4-0x297b.3 (1)
0x2970|                                 00            |           .    |        processor_specific: 0 0x297b.4-0x297b.7 (0.4)
0x2970|                                    00 00 00 00|            ....|        unused2: 0 0x297c-0x297f.7 (4)
0x2980|00 00 00 00 00 00 00 00                        |........        |      addr: 0x0 0x2980-0x2987.7 (8)
0x2980|                        21 13 00 00 00 00 00 00|        !.......|      offset: 0x1321 0x2988-0x298f.7 (8)
0x2990|02 01 00 00 00 00 00 00                        |........        |      size: 258 0x2990-0x2997.7 (8)
0x2990|                        00 00 00 00            |        ....    |      link: 0 0x2998-0x299b.7 (4)
0x2990|                                    00 00 00 00|            ....|      info: 0 0x299c-0x299f.7 (4)
0x29a0|01 00 00 00 00 00 00 00                        |........        |      addralign: 1 0x29a0-0x29a7.7 (8)
0x29a0|                        00 00 00 00 00 00 00 00|        ........|      entsize: 0 0x29a8-0x29af.7 (8)
      |                                               |                |    [25]{}: section_header 0x1428-0x29ef.7 (5576)
0x1420|                        0c 00 00 00 ff ff ff ff|        ........|      data: raw bits 0x1428-0x144f.7 (40)
0x1430|01 00 04 78 1e 0c 1f 00 14 00 00 00 00 00 00 00|...x............|
0x1440|8c 06 00 00 00 00 00 00 28 00 00 00 00 00 00 00|........(.......|
0x29b0|f2 00 00 00                                    |....            |      name: ".debug_frame" (242) 0x29b0-0x29b3.7 (4)
0x29b0|            01 00 00 00                        |    ....        |      type: "progbits" (0x1) (Information defined by the program) 0x29b4-0x29b7.7 (4)
      |                                               |                |      flags{}: 0x29b8-0x29bf.7 (8)
0x29b0|                        00                     |        .       |        link_order: false 0x29b8-0x29b8 (0.1)
0x29b0|                        00                     |        .       |        info_link: false 0x29b8.1-0x29b8.1 (0.1)
0x29b0|                        00                     |        .       |        strings: false 0x29b8.2-0x29b8.2 (0.1)
0x29b0|                        00                     |        .       |        merge: false 0x29b8.3-0x29b8.3 (0.1)
0x29b0|                        00                     |        .       |        unused0: 0 0x29b8.4-0x29b8.4 (0.1)
0x29b0|                        00                     |        .       |        execinstr: false 0x29b8.5-0x29b8.5 (0.1)
0x29b0|                        00                     |        .       |        alloc: false 0x29b8.6-0x29b8.6 (0.1)
0x29b0|                        00                     |        .       |        write: false 0x29b8.7-0x29b8.7 (0.1)
0x29b0|                           00                  |         .      |        tls: false 0x29b9-0x29b9 (0.1)
0x29b0|                           00                  |         .      |        group: false 0x29b9.1-0x29b9.1 (0.1)
0x29b0|                           00                  |         .      |        os_nonconforming: false 0x29b9.2-0x29b9.2 (0.1)
0x29b0|                           00 00               |         ..     |        unused1: 0 0x29b9.3-0x29ba.3 (1.1)
0x29b0|                              00 00            |          ..    |        os_specific: 0 0x29ba.4-0x29bb.3 (1)
0x29b0|                                 00            |           .    |        processor_specific: 0 0x29bb.4-0x29bb.7 (0.4)
0x29b0|                                    00 00 00 00|            ....|        unused2: 0 0x29bc-0x29bf.7 (4)
0x29c0|00 00 00 00 00 00 00 00                        |........        |      addr: 0x0 0x29c0-0x29c7.7 (8)
0x29c0|                        28 14 00 00 00 00 00 00|        (.......|      offset: 0x1428 0x29c8-0x29cf.7 (8)
0x29d0|28 00 00 00 00 00 00 00                        |(.......        |      size: 40 0x29d0-0x29d7.7 (8)
0x29d0|                        00 00 00 00            |        ....    |      link: 0 0x29d8-0x29db.7 (4)
0x29d0|                                    00 00 00 00|            ....|      info: 0 0x29dc-0x29df.7 (4)
0x29e0|08 00 00 00 00 00 00 00                        |........        |      addralign: 8 0x29e0-0x29e7.7 (8)
0x29e0|                        00 00 00 00 00 00 00 00|        ........|      entsize: 0 0x29e8-0x29ef.7 (8)
      |                                               |                |    [26]{}: section_header 0x1450-0x2a2f.7 (5600)
0x1450|47 4e 55 20 43 39 39 20 31 30 2e 33 2e 31 20 32|GNU C99 10.3.1 2|      data: raw bits 0x1450-0x1617.7 (456)
*     |until 0x1617.7 (456)                           |                |
0x29f0|ff 00 00 00                                    |....            |      name: ".debug_str" (255) 0x29f0-0x29f3.7 (4)
0x29f0|            01 00 00 00                        |    ....        |      type: "progbits" (0x1) (Information defined by the program) 0x29f4-0x29f7.7 (4)
      |                                               |                |      flags{}: 0x29f8-0x29ff.7 (8)
0x29f0|                        30                     |        0       |        link_order: false 0x29f8-0x29f8 (0.1)
0x29f0|                        30                     |        0       |        info_link: false 0x29f8.1-0x29f8.1 (0.1)
0x29f0|                        30                     |        0       |        strings: true 0x29f8.2-0x29f8.2 (0.1)
0x29f0|                        30                     |        0       |        merge: true 0x29f8.3-0x29f8.3 (0.1)
0x29f0|                        30                     |        0       |        unused0: 0 0x29f8.4-0x29f8.4 (0.1)
0x29f0|                        30                     |        0       |        execinstr: false 0x29f8.5-0x29f8.5 (0.1)
0x29f0|                        30                     |        0       |        alloc: false 0x29f8.6-0x29f8.6 (0.1)
0x29f0|                        30                     |        0       |        write: false 0x29f8.7-0x29f8.7 (0.1)
0x29f0|                           00                  |         .      |        tls: false 0x29f9-0x29f9 (0.1)
0x29f0|                           00                  |         .      |        group: false 0x29f9.1-0x29f9.1 (0.1)
0x29f0|                           00                  |         .      |        os_nonconforming: false 0x29f9.2-0x29f9.2 (0.1)
0x29f0|                           00 00               |         ..     |        unused1: 0 0x29f9.3-0x29fa.3 (1.1)
0x29f0|                              00 00            |          ..    |        os_specific: 0 0x29fa.4-0x29fb.3 (1)
0x29f0|                                 00            |           .    |        processor_specific: 0 0x29fb.4-0x29fb.7 (0.4)
0x29f0|                                    00 00 00 00|            ....|        unused2: 0 0x29fc-0x29ff.7 (4)
0x2a00|00 00 00 00 00 00 00 00                        |........        |      addr: 0x0 0x2a00-0x2a07.7 (8)
0x2a00|                        50 14 00 00 00 00 00 00|        P.......|      offset: 0x1450 0x2a08-0x2a0f.7 (8)
0x2a10|c8 01 00 00 00 00 00 00                        |........        |      size: 456 0x2a10-0x2a17.7 (8)
0x2a10|                        00 00 00 00            |        ....    |      link: 0 0x2a18-0x2a1b.7 (4)
0x2a10|                                    00 00 00 00|            ....|      info: 0 0x2a1c-0x2a1f.7 (4)
0x2a20|01 00 00 00 00 00 00 00                        |........        |      addralign: 1 0x2a20-0x2a27.7 (8)
0x2a20|                        01 00 00 00 00 00 00 00|        ........|      entsize: 1 0x2a28-0x2a2f.7 (8)
      |                                               |                |    [27]{}: section_header 0x1618-0x2a6f.7 (5208)
0x1610|                        00 00 00 00 00 00 00 00|        ........|      data: raw bits 0x1618-0x173f.7 (296)
0x1620|8c 06 00 00 00 00 00 00 9c 06 00 00 00 00 00 00|................|
*     |until 0x173f.7 (296)                           |                |
0x2a30|0a 01 00 00                                    |....            |      name: ".debug_loc" (266) 0x2a30-0x2a33.7 (4)
0x2a30|            01 00 00 00                        |    ....        |      type: "progbits" (0x1) (Information defined by the program) 0x2a34-0x2a37.7 (4)
      |                                               |                |      flags{}: 0x2a38-0x2a3f.7 (8)
0x2a30|                        00                     |        .       |        link_order: false 0x2a38-0x2a38 (0.1)
0x2a30|                        00                     |        .       |        info_link: false 0x2a38.1-0x2a38.1 (0.1)
0x2a30|                        00                     |        .       |        strings: false 0x2a38.2-0x2a38.2 (0.1)
0x2a30|                        00                     |        .       |        merge: false 0x2a38.3-0x2a38.3 (0.1)
0x2a30|                        00                     |        .       |        unused0: 0 0x2a38.4-0x2a38.4 (0.1)
0x2a30|                        00                     |        .       |        execinstr: false 0x2a38.5-0x2a38.5 (0.1)
0x2a30|                        00                     |        .       |        alloc: false 0x2a38.6-0x2a38.6 (0.1)
0x2a30|                        00                     |        .       |        write: false 0x2a38.7-0x2a38.7 (0.1)
0x2a30|                           00                  |         .      |        tls: false 0x2a39-0x2a39 (0.1)
0x2a30|                           00                  |         .      |        group: false 0x2a39.1-0x2a39.1 (0.1)
0x2a30|                           00                  |         .      |        os_nonconforming: false 0x2a39.2-0x2a39.2 (0.1)
0x2a30|                           00 00               |         ..     |        unused1: 0 0x2a39.3-0x2a3a.3 (1.1)
0x2a30|                              00 00            |          ..    |        os_specific: 0 0x2a3a.4-0x2a3b.3 (1)
0x2a30|                                 00            |           .    |        processor_specific: 0 0x2a3b.4-0x2a3b.7 (0.4)
0x2a30|                                    00 00 00 00|            ....|        unused2: 0 0x2a3c-0x2a3f.7 (4)
0x2a40|00 00 00 00 00 00 00 00                        |........        |      addr: 0x0 0x2a40-0x2a47.7 (8)
0x2a40|                        18 16 00 00 00 00 00 00|        ........|      offset: 0x1618 0x2a48-0x2a4f.7 (8)
0x2a50|28 01 00 00 00 00 00 00                        |(.......        |      size: 296 0x2a50-0x2a57.7 (8)
0x2a50|                        00 00 00 00            |        ....    |      link: 0 0x2a58-0x2a5b.7 (4)
0x2a50|                                    00 00 00 00|            ....|      info: 0 0x2a5c-0x2a5f.7 (4)
0x2a60|01 00 00 00 00 00 00 00                        |........        |      addralign: 1 0x2a60-0x2a67.7 (8)
0x2a60|                        00 00 00 00 00 00 00 00|        ........|      entsize: 0 0x2a68-0x2a6f.7 (8)
      |                                               |                |    [28]{}: section_header 0x1740-0x2aaf.7 (4976)
0x1740|8c 06 00 00 00 00 00 00 b4 06 00 00 00 00 00 00|................|      data: raw bits 0x1740-0x17df.7 (160)
*     |until 0x17df.7 (160)                           |                |
0x2a70|15 01 00 00                                    |....            |      name: ".debug_ranges" (277) 0x2a70-0x2a73.7 (4)
0x2a70|            01 00 00 00                        |    ....        |      type: "progbits" (0x1) (Information defined by the program) 0x2a74-0x2a77.7 (4)
      |                                               |                |      flags{}: 0x2a78-0x2a7f.7 (8)
0x2a70|                        00                     |        .       |        link_order: false 0x2a78-0x2a78 (0.1)
0x2a70|                        00                     |        .       |        info_link: false 0x2a78.1-0x2a78.1 (0.1)
0x2a70|                        00                     |        .       |        strings: false 0x2a78.2-0x2a78.2 (0.1)
0x2a70|                        00                     |        .       |        merge: false 0x2a78.3-0x2a78.3 (0.1)
0x2a70|                        00                     |        .       |        unused0: 0 0x2a78.4-0x2a78.4 (0.1)
0x2a70|                        00                     |        .       |        execinstr: false 0x2a78.5-0x2a78.5 (0.1)
0x2a70|                        00                     |        .       |        alloc: false 0x2a78.6-0x2a78.6 (0.1)
0x2a70|                        00                     |        .       |        write: false 0x2a78.7-0x2a78.7 (0.1)
0x2a70|                           00                  |         .      |        tls: false 0x2a79-0x2a79 (0.1)
0x2a70|                           00                  |         .      |        group: false 0x2a79.1-0x2a79.1 (0.1)
0x2a70|                           00                  |         .      |        os_nonconforming: false 0x2a79.2-0x2a79.2 (0.1)
0x2a70|                           00 00               |         ..     |        unused1: 0 0x2a79.3-0x2a7a.3 (1.1)
0x2a70|                              00 00            |          ..    |        os_specific: 0 0x2a7a.4-0x2a7b.3 (1)
0x2a70|                                 00            |           .    |        processor_specific: 0 0x2a7b.4-0x2a7b.7 (0.4)
0x2a70|                                    00 00 00 00|            ....|        unused2: 0 0x2a7c-0x2a7f.7 (4)
0x2a80|00 00 00 00 00 00 00 00                        |........        |      addr: 0x0 0x2a80-0x2a87.7 (8)
0x2a80|                        40 17 00 00 00 00 00 00|        @.......|      offset: 0x1740 0x2a88-0x2a8f.7 (8)
0x2a90|a0 00 00 00 00 00 00 00                        |........        |      size: 160 0x2a90-0x2a97.7 (8)
0x2a90|                        00 00 00 00            |        ....    |      link: 0 0x2a98-0x2a9b.7 (4)
0x2a90|                                    00 00 00 00|            ....|      info: 0 0x2a9c-0x2a9f.7 (4)
0x2aa0|10 00 00 00 00 00 00 00                        |........        |      addralign: 16 0x2aa0-0x2aa7.7 (8)
0x2aa0|                        00 00 00 00 00 00 00 00|        ........|      entsize: 0 0x2aa8-0x2aaf.7 (8)
      |                                               |                |    [29]{}: section_header 0x17e0-0x2aef.7 (4880)
      |                                               |                |      symbol_table[0:89]: 0x17e0-0x2037.7 (2136)
      |                                               |                |        [0]{}: symbol 0x17e0-0x17f7.7 (24)
0x17e0|00 00 00 00                                    |....            |          name: "" (0) 0x17e0-0x17e3.7 (4)
0x17e0|            00                                 |    .           |          bind: "local" (0) 0x17e4-0x17e4.3 (0.4)
0x17e0|            00                                 |    .           |          type: "notype" (0) 0x17e4.4-0x17e4.7 (0.4)
0x17e0|               00                              |     .          |          other_unused: 0 0x17e5-0x17e5.5 (0.6)
0x17e0|               00                              |     .          |          visibility: "default" (0) 0x17e5.6-0x17e5.7 (0.2)
0x17e0|                  00 00                        |      ..        |          shndx: 0 0x17e6-0x17e7.7 (2)
0x17e0|                        00 00 00 00 00 00 00 00|        ........|          value: 0 0x17e8-0x17ef.7 (8)
0x17f0|00 00 00 00 00 00 00 00                        |........        |          size: 0 0x17f0-0x17f7.7 (8)
      |                                               |                |        [1]{}: symbol 0x17f8-0x180f.7 (24)
0x17f0|                        00 00 00 00            |        ....    |          name: "" (0) 0x17f8-0x17fb.7 (4)
0x17f0|                                    03         |            .   |          bind: "local" (0) 0x17fc-0x17fc.3 (0.4)
0x17f0|                                    03         |            .   |          type: "section" (3) 0x17fc.4-0x17fc.7 (0.4)
0x17f0|                                       00      |             .  |          other_unused: 0 0x17fd-0x17fd.5 (0.6)
0x17f0|                                       00      |             .  |          visibility: "default" (0) 0x17fd.6-0x17fd.7 (0.2)
0x17f0|                                          01 00|              ..|          shndx: 1 0x17fe-0x17ff.7 (2)
0x1800|00 02 00 00 00 00 00 00                        |........        |          value: 512 0x1800-0x1807.7 (8)
0x1800|                        00 00 00 00 00 00 00 00|        ........|          size: 0 0x1808-0x180f.7 (8)
      |                                               |                |        [2]{}: symbol 0x1810-0x1827.7 (24)
0x1810|00 00 00 00                                    |....            |          name: "" (0) 0x1810-0x1813.7 (4)
0x1810|            03                                 |    .           |          bind: "local" (0) 0x1814-0x1814.3 (0.4)
0x1810|            03                                 |    .           |          type: "section" (3) 0x1814.4-0x1814.7 (0.4)
0x1810|               00                              |     .          |          other_unused: 0 0x1815-0x1815.5 (0.6)
0x1810|               00                              |     .          |          visibility: "default" (0) 0x1815.6-0x1815.7 (0.2)
0x1810|                  02 00                        |      ..        |          shndx: 2 0x1816-0x1817.7 (2)
0x1810|                        20 02 00 00 00 00 00 00|         .......|          value: 544 0x1818-0x181f.7 (8)
0x1820|00 00 00 00 00 00 00 00                        |........        |          size: 0 0x1820-0x1827.7 (8)
      |                                               |                |        [3]{}: symbol 0x1828-0x183f.7 (24)
0x1820|                        00 00 00 00            |        ....    |          name: "" (0) 0x1828-0x182b.7 (4)
0x1820|                                    03         |            .   |          bind: "local" (0) 0x182c-0x182c.3 (0.4)
0x1820|                                    03         |            .   |          type: "section" (3) 0x182c.4-0x182c.7 (0.4)
0x1820|                                       00      |             .  |          other_unused: 0 0x182d-0x182d.5 (0.6)
0x1820|                                       00      |             .  |          visibility: "default" (0) 0x182d.6-0x182d.7 (0.2)
0x1820|                                          03 00|              ..|          shndx: 3 0x182e-0x182f.7 (2)
0x1830|48 02 00 00 00 00 00 00                        |H.......        |          value: 584 0x1830-0x1837.7 (8)
0x1830|                        00 00 00 00 00 00 00 00|        ........|          size: 0 0x1838-0x183f.7 (8)
      |                                               |                |        [4]{}: symbol 0x1840-0x1857.7 (24)
0x1840|00 00 00 00                                    |....            |          name: "" (0) 0x1840-0x1843.7 (4)
0x1840|            03                                 |    .           |          bind: "local" (0) 0x1844-0x1844.3 (0.4)
0x1840|            03                                 |    .           |          type: "section" (3) 0x1844.4-0x1844.7 (0.4)
0x1840|               00                              |     .          |          other_unused: 0 0x1845-0x1845.5 (0.6)
0x1840|               00                              |     .          |          visibility: "default" (0) 0x1845.6-0x1845.7 (0.2)
0x1840|                  04 00                        |      ..        |          shndx: 4 0x1846-0x1847.7 (2)
0x1840|                        80 03 00 00 00 00 00 00|        ........|          value: 896 0x1848-0x184f.7 (8)
0x1850|00 00 00 00 00 00 00 00                        |........        |          size: 0 0x1850-0x1857.7 (8)
      |                                               |                |        [5]{}: symbol 0x1858-0x186f.7 (24)
0x1850|                        00 00 00 00            |        ....    |          name: "" (0) 0x1858-0x185b.7 (4)
0x1850|                                    03         |            .   |          bind: "local" (0) 0x185c-0x185c.3 (0.4)
0x1850|                                    03         |            .   |          type: "section" (3) 0x185c.4-0x185c.7 (0.4)
0x1850|                                       00      |             .  |          other_unused: 0 0x185d-0x185d.5 (0.6)
0x1850|                                       00      |             .  |          visibility: "default" (0) 0x185d.6-0x185d.7 (0.2)
0x1850|                                          05 00|              ..|          shndx: 5 0x185e-0x185f.7 (2)
0x1860|48 04 00 00 00 00 00 00                        |H.......        |          value: 1096 0x1860-0x1867.7 (8)
0x1860|                        00 00 00 00 00 00 00 00|        ........|          size: 0 0x1868-0x186f.7 (8)
      |                                               |                |        [6]{}: symbol 0x1870-0x1887.7 (24)
0x1870|00 00 00 00                                    |....            |          name: "" (0) 0x1870-0x1873.7 (4)
0x1870|            03                                 |    .           |          bind: "local" (0) 0x1874-0x1874.3 (0.4)
0x1870|            03                                 |    .           |          type: "section" (3) 0x1874.4-0x1874.7 (0.4)
0x1870|               00                              |     .          |          other_unused: 0 0x1875-0x1875.5 (0.6)
0x1870|               00                              |     .          |          visibility: "default" (0) 0x1875.6-0x1875.7 (0.2)
0x1870|                  06 00                        |      ..        |          shndx: 6 0x1876-0x1877.7 (2)
0x1870|                        50 05 00 00 00 00 00 00|        P.......|          value: 1360 0x1878-0x187f.7 (8)
0x1880|00 00 00 00 00 00 00 00                        |........        |          size: 0 0x1880-0x1887.7 (8)
      |                                               |                |        [7]{}: symbol 0x1888-0x189f.7 (24)
0x1880|                        00 00 00 00            |        ....    |          name: "" (0) 0x1888-0x188b.7 (4)
0x1880|                                    03         |            .   |          bind: "local" (0) 0x188c-0x188c.3 (0.4)
0x1880|                                    03         |            .   |          type: "section" (3) 0x188c.4-0x188c.7 (0.4)
0x1880|                                       00      |             .  |          other_unused: 0 0x188d-0x188d.5 (0.6)
0x1880|                                       00      |             .  |          visibility: "default" (0) 0x188d.6-0x188d.7 (0.2)
0x1880|                                          07 00|              ..|          shndx: 7 0x188e-0x188f.7 (2)
0x1890|e0 05 00 00 00 00 00 00                        |........        |          value: 1504 0x1890-0x1897.7 (8)
0x1890|                        00 00 00 00 00 00 00 00|        ........|          size: 0 0x1898-0x189f.7 (8)
      |                                               |                |        [8]{}: symbol 0x18a0-0x18b7.7 (24)
0x18a0|00 00 00 00                                    |....            |          name: "" (0) 0x18a0-0x18a3.7 (4)
0x18a0|            03                                 |    .           |          bind: "local" (0) 0x18a4-0x18a4.3 (0.4)
0x18a0|            03                                 |    .           |          type: "section" (3) 0x18a4.4-0x18a4.7 (0.4)
0x18a0|               00                              |     .          |          other_unused: 0 0x18a5-0x18a5.5 (0.6)
0x18a0|               00                              |     .          |          visibility: "default" (0) 0x18a5.6-0x18a5.7 (0.2)
0x18a0|                  08 00                        |      ..        |          shndx: 8 0x18a6-0x18a7.7 (2)
0x18a0|                        f0 05 00 00 00 00 00 00|        ........|          value: 1520 0x18a8-0x18af.7 (8)
0x18b0|00 00 00 00 00 00 00 00                        |........        |          size: 0 0x18b0-0x18b7.7 (8)
      |                                               |                |        [9]{}: symbol 0x18b8-0x18cf.7 (24)
0x18b0|                        00 00 00 00            |        ....    |          name: "" (0) 0x18b8-0x18bb.7 (4)
0x18b0|                                    03         |            .   |          bind: "local" (0) 0x18bc-0x18bc.3 (0.4)
0x18b0|                                    03         |            .   |          type: "section" (3) 0x18bc.4-0x18bc.7 (0.4)
0x18b0|                                       00      |             .  |          other_unused: 0 0x18bd-0x18bd.5 (0.6)
0x18b0|                                       00      |             .  |          visibility: "default" (0) 0x18bd.6-0x18bd.7 (0.2)
0x18b0|                                          09 00|              ..|          shndx: 9 0x18be-0x18bf.7 (2)
0x18c0|70 06 00 00 00 00 00 00                        |p.......        |          value: 1648 0x18c0-0x18c7.7 (8)
0x18c0|                        00 00 00 00 00 00 00 00|        ........|          size: 0 0x18c8-0x18cf.7 (8)
      |                                               |                |        [10]{}: symbol 0x18d0-0x18e7.7 (24)
0x18d0|00 00 00 00                                    |....            |          name: "" (0) 0x18d0-0x18d3.7 (4)
0x18d0|            03                                 |    .           |          bind: "local" (0) 0x18d4-0x18d4.3 (0.4)
0x18d0|            03                                 |    .           |          type: "section" (3) 0x18d4.4-0x18d4.7 (0.4)
0x18d0|               00                              |     .          |          other_unused: 0 0x18d5-0x18d5.5 (0.6)
0x18d0|               00                              |     .          |          visibility: "default" (0) 0x18d5.6-0x18d5.7 (0.2)
0x18d0|                  0a 00                        |      ..        |          shndx: 10 0x18d6-0x18d7.7 (2)
0x18d0|                        00 08 00 00 00 00 00 00|        ........|          value: 2048 0x18d8-0x18df.7 (8)
0x18e0|00 00 00 00 00 00 00 00                        |........        |          size: 0 0x18e0-0x18e7.7 (8)
      |                                               |                |        [11]{}: symbol 0x18e8-0x18ff.7 (24)
0x18e0|                        00 00 00 00            |        ....    |          name: "" (0) 0x18e8-0x18eb.7 (4)
0x18e0|                                    03         |            .   |          bind: "local" (0) 0x18ec-0x18ec.3 (0.4)
0x18e0|                                    03         |            .   |          type: "section" (3) 0x18ec.4-0x18ec.7 (0.4)
0x18e0|                                       00      |             .  |          other_unused: 0 0x18ed-0x18ed.5 (0.6)
0x18e0|                                       00      |             .  |          visibility: "default" (0) 0x18ed.6-0x18ed.7 (0.2)
0x18e0|                                          0b 00|              ..|          shndx: 11 0x18ee-0x18ef.7 (2)
0x18f0|10 08 00 00 00 00 00 00                        |........        |          value: 2064 0x18f0-0x18f7.7 (8)
0x18f0|                        00 00 00 00 00 00 00 00|        ........|          size: 0 0x18f8-0x18ff.7 (8)
      |                                               |                |        [12]{}: symbol 0x1900-0x1917.7 (24)
0x1900|00 00 00 00                                    |....            |          name: "" (0) 0x1900-0x1903.7 (4)
0x1900|            03                                 |    .           |          bind: "local" (0) 0x1904-0x1904.3 (0.4)
0x1900|            03                                 |    .           |          type: "section" (3) 0x1904.4-0x1904.7 (0.4)
0x1900|               00                              |     .          |          other_unused: 0 0x1905-0x1905.5 (0.6)
0x1900|               00                              |     .          |          visibility: "default" (0) 0x1905.6-0x1905.7 (0.2)
0x1900|                  0c 00                        |      ..        |          shndx: 12 0x1906-0x1907.7 (2)
0x1900|                        14 08 00 00 00 00 00 00|        ........|          value: 2068 0x1908-0x190f.7 (8)
0x1910|00 00 00 00 00 00 00 00                        |........        |          size: 0 0x1910-0x1917.7 (8)
      |                                               |                |        [13]{}: symbol 0x1918-0x192f.7 (24)
0x1910|                        00 00 00 00            |        ....    |          name: "" (0) 0x1918-0x191b.7 (4)
0x1910|                                    03         |            .   |          bind: "local" (0) 0x191c-0x191c.3 (0.4)
0x1910|                                    03         |            .   |          type: "section" (3) 0x191c.4-0x191c.7 (0.4)
0x1910|                                       00      |             .  |          other_unused: 0 0x191d-0x191d.5 (0.6)
0x1910|                                       00      |             .  |          visibility: "default" (0) 0x191d.6-0x191d.7 (0.2)
0x1910|                                          0d 00|              ..|          shndx: 13 0x191e-0x191f.7 (2)
0x1920|50 08 00 00 00 00 00 00                        |P.......        |          value: 2128 0x1920-0x1927.7 (8)
0x1920|                        00 00 00 00 00 00 00 00|        ........|          size: 0 0x1928-0x192f.7 (8)
      |                                               |                |        [14]{}: symbol 0x1930-0x1947.7 (24)
0x1930|00 00 00 00                                    |....            |          name: "" (0) 0x1930-0x1933.7 (4)
0x1930|            03                                 |    .           |          bind: "local" (0) 0x1934-0x1934.3 (0.4)
0x1930|            03                                 |    .           |          type: "section" (3) 0x1934.4-0x1934.7 (0.4)
0x1930|               00                              |     .          |          other_unused: 0 0x1935-0x1935.5 (0.6)
0x1930|               00                              |     .          |          visibility: "default" (0) 0x1935.6-0x1935.7 (0.2)
0x1930|                  0e 00                        |      ..        |          shndx: 14 0x1936-0x1937.7 (2)
0x1930|                        90 0d 01 00 00 00 00 00|        ........|          value: 69008 0x1938-0x193f.7 (8)
0x1940|00 00 00 00 00 00 00 00                        |........        |          size: 0 0x1940-0x1947.7 (8)
      |                                               |                |        [15]{}: symbol 0x1948-0x195f.7 (24)
0x1940|                        00 00 00 00            |        ....    |          name: "" (0) 0x1948-0x194b.7 (4)
0x1940|                                    03         |            .   |          bind: "local" (0) 0x194c-0x194c.3 (0.4)
0x1940|                                    03         |            .   |          type: "section" (3) 0x194c.4-0x194c.7 (0.4)
0x1940|                                       00      |             .  |          other_unused: 0 0x194d-0x194d.5 (0.6)
0x1940|                                       00      |             .  |          visibility: "default" (0) 0x194d.6-0x194d.7 (0.2)
0x1940|                                          0f 00|              ..|          shndx: 15 0x194e-0x194f.7 (2)
0x1950|98 0d 01 00 00 00 00 00                        |........        |          value: 69016 0x1950-0x1957.7 (8)
0x1950|                        00 00 00 00 00 00 00 00|        ........|          size: 0 0x1958-0x195f.7 (8)
      |                                               |                |        [16]{}: symbol 0x1960-0x1977.7 (24)
0x1960|00 00 00 00                                    |....            |          name: "" (0) 0x1960-0x1963.7 (4)
0x1960|            03                                 |    .           |          bind: "local" (0) 0x1964-0x1964.3 (0.4)
0x1960|            03                                 |    .           |          type: "section" (3) 0x1964.4-0x1964.7 (0.4)
0x1960|               00                              |     .          |          other_unused: 0 0x1965-0x1965.5 (0.6)
0x1960|               00                              |     .          |          visibility: "default" (0) 0x1965.6-0x1965.7 (0.2)
0x1960|                  10 00                        |      ..        |          shndx: 16 0x1966-0x1967.7 (2)
0x1960|                        a0 0d 01 00 00 00 00 00|        ........|          value: 69024 0x1968-0x196f.7 (8)
0x1970|00 00 00 00 00 00 00 00                        |........        |          size: 0 0x1970-0x1977.7 (8)
      |                                               |                |        [17]{}: symbol 0x1978-0x198f.7 (24)
0x1970|                        00 00 00 00            |        ....    |          name: "" (0) 0x1978-0x197b.7 (4)
0x1970|                                    03         |            .   |          bind: "local" (0) 0x197c-0x197c.3 (0.4)
0x1970|                                    03         |            .   |          type: "section" (3) 0x197c.4-0x197c.7 (0.4)
0x1970|                                       00      |             .  |          other_unused: 0 0x197d-0x197d.5 (0.6)
0x1970|                                       00      |             .  |          visibility: "default" (0) 0x197d.6-0x197d.7 (0.2)
0x1970|                                          11 00|              ..|          shndx: 17 0x197e-0x197f.7 (2)
0x1980|70 0f 01 00 00 00 00 00                        |p.......        |          value: 69488 0x1980-0x1987.7 (8)
0x1980|                        00 00 00 00 00 00 00 00|        ........|          size: 0 0x1988-0x198f.7 (8)
      |                                               |                |        [18]{}: symbol 0x1990-0x19a7.7 (24)
0x1990|00 00 00 00                                    |....            |          name: "" (0) 0x1990-0x1993.7 (4)
0x1990|            03                                 |    .           |          bind: "local" (0) 0x1994-0x1994.3 (0.4)
0x1990|            03                                 |    .           |          type: "section" (3) 0x1994.4-0x1994.7 (0.4)
0x1990|               00                              |     .          |          other_unused: 0 0x1995-0x1995.5 (0.6)
0x1990|               00                              |     .          |          visibility: "default" (0) 0x1995.6-0x1995.7 (0.2)
0x1990|                  12 00                        |      ..        |          shndx: 18 0x1996-0x1997.7 (2)
0x1990|                        00 10 01 00 00 00 00 00|        ........|          value: 69632 0x1998-0x199f.7 (8)
0x19a0|00 00 00 00 00 00 00 00                        |........        |          size: 0 0x19a0-0x19a7.7 (8)
      |                                               |                |        [19]{}: symbol 0x19a8-0x19bf.7 (24)
0x19a0|                        00 00 00 00            |        ....    |          name: "" (0) 0x19a8-0x19ab.7 (4)
0x19a0|                                    03         |            .   |          bind: "local" (0) 0x19ac-0x19ac.3 (0.4)
0x19a0|                                    03         |            .   |          type: "section" (3) 0x19ac.4-0x19ac.7 (0.4)
0x19a0|                                       00      |             .  |          other_unused: 0 0x19ad-0x19ad.5 (0.6)
0x19a0|                                       00      |             .  |          visibility: "default" (0) 0x19ad.6-0x19ad.7 (0.2)
0x19a0|                                          13 00|              ..|          shndx: 19 0x19ae-0x19af.7 (2)
0x19b0|08 10 01 00 00 00 00 00                        |........        |          value: 69640 0x19b0-0x19b7.7 (8)
0x19b0|                        00 00 00 00 00 00 00 00|        ........|          size: 0 0x19b8-0x19bf.7 (8)
      |                                               |                |        [20]{}: symbol 0x19c0-0x19d7.7 (24)
0x19c0|00 00 00 00                                    |....            |          name: "" (0) 0x19c0-0x19c3.7 (4)
0x19c0|            03                                 |    .           |          bind: "local" (0) 0x19c4-0x19c4.3 (0.4)
0x19c0|            03                                 |    .           |          type: "section" (3) 0x19c4.4-0x19c4.7 (0.4)
0x19c0|               00                              |     .          |          other_unused: 0 0x19c5-0x19c5.5 (0.6)
0x19c0|               00                              |     .          |          visibility: "default" (0) 0x19c5.6-0x19c5.7 (0.2)
0x19c0|                  14 00                        |      ..        |          shndx: 20 0x19c6-0x19c7.7 (2)
0x19c0|                        00 00 00 00 00 00 00 00|        ........|          value: 0 0x19c8-0x19cf.7 (8)
0x19d0|00 00 00 00 00 00 00 00                        |........        |          size: 0 0x19d0-0x19d7.7 (8)
      |                                               |                |        [21]{}: symbol 0x19d8-0x19ef.7 (24)
0x19d0|                        00 00 00 00            |        ....    |          name: "" (0) 0x19d8-0x19db.7 (4)
0x19d0|                                    03         |            .   |          bind: "local" (0) 0x19dc-0x19dc.3 (0.4)
0x19d0|                                    03         |            .   |          type: "section" (3) 0x19dc.4-0x19dc.7 (0.4)
0x19d0|                                       00      |             .  |          other_unused: 0 0x19dd-0x19dd.5 (0.6)
0x19d0|                                       00      |             .  |          visibility: "default" (0) 0x19dd.6-0x19dd.7 (0.2)
0x19d0|                                          15 00|              ..|          shndx: 21 0x19de-0x19df.7 (2)
0x19e0|00 00 00 00 00 00 00 00                        |........        |          value: 0 0x19e0-0x19e7.7 (8)
0x19e0|                        00 00 00 00 00 00 00 00|        ........|          size: 0 0x19e8-0x19ef.7 (8)
      |                                               |                |        [22]{}: symbol 0x19f0-0x1a07.7 (24)
0x19f0|00 00 00 00                                    |....            |          name: "" (0) 0x19f0-0x19f3.7 (4)
0x19f0|            03                                 |    .           |          bind: "local" (0) 0x19f4-0x19f4.3 (0.4)
0x19f0|            03                                 |    .           |          type: "section" (3) 0x19f4.4-0x19f4.7 (0.4)
0x19f0|               00                              |     .          |          other_unused: 0 0x19f5-0x19f5.5 (0.6)
0x19f0|               00                              |     .          |          visibility: "default" (0) 0x19f5.6-0x19f5.7 (0.2)
0x19f0|                  16 00                        |      ..        |          shndx: 22 0x19f6-0x19f7.7 (2)
0x19f0|                        00 00 00 00 00 00 00 00|        ........|          value: 0 0x19f8-0x19ff.7 (8)
0x1a00|00 00 00 00 00 00 00 00                        |........        |          size: 0 0x1a00-0x1a07.7 (8)
      |                                               |                |        [23]{}: symbol 0x1a08-0x1a1f.7 (24)
0x1a00|                        00 00 00 00            |        ....    |          name: "" (0) 0x1a08-0x1a0b.7 (4)
0x1a00|                                    03         |            .   |          bind: "local" (0) 0x1a0c-0x1a0c.3 (0.4)
0x1a00|                                    03         |            .   |          type: "section" (3) 0x1a0c.4-0x1a0c.7 (0.4)
0x1a00|                                       00      |             .  |          other_unused: 0 0x1a0d-0x1a0d.5 (0.6)
0x1a00|                                       00      |             .  |          visibility: "default" (0) 0x1a0d.6-0x1a0d.7 (0.2)
0x1a00|                                          17 00|              ..|          shndx: 23 0x1a0e-0x1a0f.7 (2)
0x1a10|00 00 00 00 00 00 00 00                        |........        |          value: 0 0x1a10-0x1a17.7 (8)
0x1a10|                        00 00 00 00 00 00 00 00|        ........|          size: 0 0x1a18-0x1a1f.7 (8)
      |                                               |                |        [24]{}: symbol 0x1a20-0x1a37.7 (24)
0x1a20|00 00 00 00                                    |....            |          name: "" (0) 0x1a20-0x1a23.7 (4)
0x1a20|            03                                 |    .           |          bind: "local" (0) 0x1a24-0x1a24.3 (0.4)
0x1a20|            03                                 |    .           |          type: "section" (3) 0x1a24.4-0x1a24.7 (0.4)
0x1a20|               00                              |     .          |          other_unused: 0 0x1a25-0x1a25.5 (0.6)
0x1a20|               00                              |     .          |          visibility: "default" (0) 0x1a25.6-0x1a25.7 (0.2)
0x1a20|                  18 00                        |      ..        |          shndx: 24 0x1a26-0x1a27.7 (2)
0x1a20|                        00 00 00 00 00 00 00 00|        ........|          value: 0 0x1a28-0x1a2f.7 (8)
0x1a30|00 00 00 00 00 00 00 00                        |........        |          size: 0 0x1a30-0x1a37.7 (8)
      |                                               |                |        [25]{}: symbol 0x1a38-0x1a4f.7 (24)
0x1a30|                        00 00 00 00            |        ....    |          name: "" (0) 0x1a38-0x1a3b.7 (4)
0x1a30|                                    03         |            .   |          bind: "local" (0) 0x1a3c-0x1a3c.3 (0.4)
0x1a30|                                    03         |            .   |          type: "section" (3) 0x1a3c.4-0x1a3c.7 (0.4)
0x1a30|                                       00      |             .  |          other_unused: 0 0x1a3d-0x1a3d.5 (0.6)
0x1a30|                                       00      |             .  |          visibility: "default" (0) 0x1a3d.6-0x1a3d.7 (0.2)
0x1a30|                                          19 00|              ..|          shndx: 25 0x1a3e-0x1a3f.7 (2)
0x1a40|00 00 00 00 00 00 00 00                        |........        |          value: 0 0x1a40-0x1a47.7 (8)
0x1a40|                        00 00 00 00 00 00 00 00|        ........|          size: 0 0x1a48-0x1a4f.7 (8)
      |                                               |                |        [26]{}: symbol 0x1a50-0x1a67.7 (24)
0x1a50|00 00 00 00                                    |....            |          name: "" (0) 0x1a50-0x1a53.7 (4)
0x1a50|            03                                 |    .           |          bind: "local" (0) 0x1a54-0x1a54.3 (0.4)
0x1a50|            03                                 |    .           |          type: "section" (3) 0x1a54.4-0x1a54.7 (0.4)
0x1a50|               00                              |     .          |          other_unused: 0 0x1a55-0x1a55.5 (0.6)
0x1a50|               00                              |     .          |          visibility: "default" (0) 0x1a55.6-0x1a55.7 (0.2)
0x1a50|                  1a 00                        |      ..        |          shndx: 26 0x1a56-0x1a57.7 (2)
0x1a50|                        00 00 00 00 00 00 00 00|        ........|          value: 0 0x1a58-0x1a5f.7 (8)
0x1a60|00 00 00 00 00 00 00 00                        |........        |          size: 0 0x1a60-0x1a67.7 (8)
      |                                               |                |        [27]{}: symbol 0x1a68-0x1a7f.7 (24)
0x1a60|                        00 00 00 00            |        ....    |          name: "" (0) 0x1a68-0x1a6b.7 (4)
0x1a60|                                    03         |            .   |          bind: "local" (0) 0x1a6c-0x1a6c.3 (0.4)
0x1a60|                                    03         |            .   |          type: "section" (3) 0x1a6c.4-0x1a6c.7 (0.4)
0x1a60|                                       00      |             .  |          other_unused: 0 0x1a6d-0x1a6d.5 (0.6)
0x1a60|                                       00      |             .  |          visibility: "default" (0) 0x1a6d.6-0x1a6d.7 (0.2)
0x1a60|                                          1b 00|              ..|          shndx: 27 0x1a6e-0x1a6f.7 (2)
0x1a70|00 00 00 00 00 00 00 00                        |........        |          value: 0 0x1a70-0x1a77.7 (8)
0x1a70|                        00 00 00 00 00 00 00 00|        ........|          size: 0 0x1a78-0x1a7f.7 (8)
      |                                               |                |        [28]{}: symbol 0x1a80-0x1a97.7 (24)
0x1a80|00 00 00 00                                    |....            |          name: "" (0) 0x1a80-0x1a83.7 (4)
0x1a80|            03                                 |    .           |          bind: "local" (0) 0x1a84-0x1a84.3 (0.4)
0x1a80|            03                                 |    .           |          type: "section" (3) 0x1a84.4-0x1a84.7 (0.4)
0x1a80|               00                              |     .          |          other_unused: 0 0x1a85-0x1a85.5 (0.6)
0x1a80|               00                              |     .          |          visibility: "default" (0) 0x1a85.6-0x1a85.7 (0.2)
0x1a80|                  1c 00                        |      ..        |          shndx: 28 0x1a86-0x1a87.7 (2)
0x1a80|                        00 00 00 00 00 00 00 00|        ........|          value: 0 0x1a88-0x1a8f.7 (8)
0x1a90|00 00 00 00 00 00 00 00                        |........        |          size: 0 0x1a90-0x1a97.7 (8)
      |                                               |                |        [29]{}: symbol 0x1a98-0x1aaf.7 (24)
0x1a90|                        01 00 00 00            |        ....    |          name: "Scrt1.c" (1) 0x1a98-0x1a9b.7 (4)
0x1a90|                                    04         |            .   |          bind: "local" (0) 0x1a9c-0x1a9c.3 (0.4)
0x1a90|                                    04         |            .   |          type: "file" (4) 0x1a9c.4-0x1a9c.7 (0.4)
0x1a90|                                       00      |             .  |          other_unused: 0 0x1a9d-0x1a9d.5 (0.6)
0x1a90|                                       00      |             .  |          visibility: "default" (0) 0x1a9d.6-0x1a9d.7 (0.2)
0x1a90|                                          f1 ff|              ..|          shndx: 65521 0x1a9e-0x1a9f.7 (2)
0x1aa0|00 00 00 00 00 00 00 00                        |........        |          value: 0 0x1aa0-0x1aa7.7 (8)
0x1aa0|                        00 00 00 00 00 00 00 00|        ........|          size: 0 0x1aa8-0x1aaf.7 (8)
      |                                               |                |        [30]{}: symbol 0x1ab0-0x1ac7.7 (24)
0x1ab0|09 00 00 00                                    |....            |          name: "$x" (9) 0x1ab0-0x1ab3.7 (4)
0x1ab0|            00                                 |    .           |          bind: "local" (0) 0x1ab4-0x1ab4.3 (0.4)
0x1ab0|            00                                 |    .           |          type: "notype" (0) 0x1ab4.4-0x1ab4.7 (0.4)
0x1ab0|               00                              |     .          |          other_unused: 0 0x1ab5-0x1ab5.5 (0.6)
0x1ab0|               00                              |     .          |          visibility: "default" (0) 0x1ab5.6-0x1ab5.7 (0.2)
0x1ab0|                  09 00                        |      ..        |          shndx: 9 0x1ab6-0x1ab7.7 (2)
0x1ab0|                        70 06 00 00 00 00 00 00|        p.......|          value: 1648 0x1ab8-0x1abf.7 (8)
0x1ac0|00 00 00 00 00 00 00 00                        |........        |          size: 0 0x1ac0-0x1ac7.7 (8)
      |                                               |                |        [31]{}: symbol 0x1ac8-0x1adf.7 (24)
0x1ac0|                        09 00 00 00            |        ....    |          name: "$x" (9) 0x1ac8-0x1acb.7 (4)
0x1ac0|                                    00         |            .   |          bind: "local" (0) 0x1acc-0x1acc.3 (0.4)
0x1ac0|                                    00         |            .   |          type: "notype" (0) 0x1acc.4-0x1acc.7 (0.4)
0x1ac0|                                       00      |             .  |          other_unused: 0 0x1acd-0x1acd.5 (0.6)
0x1ac0|                                       00      |             .  |          visibility: "default" (0) 0x1acd.6-0x1acd.7 (0.2)
0x1ac0|                                          09 00|              ..|          shndx: 9 0x1ace-0x1acf.7 (2)
0x1ad0|8c 06 00 00 00 00 00 00                        |........        |          value: 1676 0x1ad0-0x1ad7.7 (8)
0x1ad0|                        00 00 00 00 00 00 00 00|        ........|          size: 0 0x1ad8-0x1adf.7 (8)
      |                                               |                |        [32]{}: symbol 0x1ae0-0x1af7.7 (24)
0x1ae0|0c 00 00 00                                    |....            |          name: "crti.o" (12) 0x1ae0-0x1ae3.7 (4)
0x1ae0|            04                                 |    .           |          bind: "local" (0) 0x1ae4-0x1ae4.3 (0.4)
0x1ae0|            04                                 |    .           |          type: "file" (4) 0x1ae4.4-0x1ae4.7 (0.4)
0x1ae0|               00                              |     .          |          other_unused: 0 0x1ae5-0x1ae5.5 (0.6)
0x1ae0|               00                              |     .          |          visibility: "default" (0) 0x1ae5.6-0x1ae5.7 (0.2)
0x1ae0|                  f1 ff                        |      ..        |          shndx: 65521 0x1ae6-0x1ae7.7 (2)
0x1ae0|                        00 00 00 00 00 00 00 00|        ........|          value: 0 0x1ae8-0x1aef.7 (8)
0x1af0|00 00 00 00 00 00 00 00                        |........        |          size: 0 0x1af0-0x1af7.7 (8)
      |                                               |                |        [33]{}: symbol 0x1af8-0x1b0f.7 (24)
0x1af0|                        09 00 00 00            |        ....    |          name: "$x" (9) 0x1af8-0x1afb.7 (4)
0x1af0|                                    00         |            .   |          bind: "local" (0) 0x1afc-0x1afc.3 (0.4)
0x1af0|                                    00         |            .   |          type: "notype" (0) 0x1afc.4-0x1afc.7 (0.4)
0x1af0|                                       00      |             .  |          other_unused: 0 0x1afd-0x1afd.5 (0.6)
0x1af0|                                       00      |             .  |          visibility: "default" (0) 0x1afd.6-0x1afd.7 (0.2)
0x1af0|                                          07 00|              ..|          shndx: 7 0x1afe-0x1aff.7 (2)
0x1b00|e0 05 00 00 00 00 00 00                        |........        |          value: 1504 0x1b00-0x1b07.7 (8)
0x1b00|                        00 00 00 00 00 00 00 00|        ........|          size: 0 0x1b08-0x1b0f.7 (8)
      |                                               |                |        [34]{}: symbol 0x1b10-0x1b27.7 (24)
0x1b10|09 00 00 00                                    |....            |          name: "$x" (9) 0x1b10-0x1b13.7 (4)
0x1b10|            00                                 |    .           |          bind: "local" (0) 0x1b14-0x1b14.3 (0.4)
0x1b10|            00                                 |    .           |          type: "notype" (0) 0x1b14.4-0x1b14.7 (0.4)
0x1b10|               00                              |     .          |          other_unused: 0 0x1b15-0x1b15.5 (0.6)
0x1b10|               00                              |     .          |          visibility: "default" (0) 0x1b15.6-0x1b15.7 (0.2)
0x1b10|                  0a 00                        |      ..        |          shndx: 10 0x1b16-0x1b17.7 (2)
0x1b10|                        00 08 00 00 00 00 00 00|        ........|          value: 2048 0x1b18-0x1b1f.7 (8)
0x1b20|00 00 00 00 00 00 00 00                        |........        |          size: 0 0x1b20-0x1b27.7 (8)
      |                                               |                |        [35]{}: symbol 0x1b28-0x1b3f.7 (24)
0x1b20|                        13 00 00 00            |        ....    |          name: "crtn.o" (19) 0x1b28-0x1b2b.7 (4)
0x1b20|                                    04         |            .   |          bind: "local" (0) 0x1b2c-0x1b2c.3 (0.4)
0x1b20|                                    04         |            .   |          type: "file" (4) 0x1b2c.4-0x1b2c.7 (0.4)
0x1b20|                                       00      |             .  |          other_unused: 0 0x1b2d-0x1b2d.5 (0.6)
0x1b20|                                       00      |             .  |          visibility: "default" (0) 0x1b2d.6-0x1b2d.7 (0.2)
0x1b20|                                          f1 ff|              ..|          shndx: 65521 0x1b2e-0x1b2f.7 (2)
0x1b30|00 00 00 00 00 00 00 00                        |........        |          value: 0 0x1b30-0x1b37.7 (8)
0x1b30|                        00 00 00 00 00 00 00 00|        ........|          size: 0 0x1b38-0x1b3f.7 (8)
      |                                               |                |        [36]{}: symbol 0x1b40-0x1b57.7 (24)
0x1b40|09 00 00 00                                    |....            |          name: "$x" (9) 0x1b40-0x1b43.7 (4)
0x1b40|            00                                 |    .           |          bind: "local" (0) 0x1b44-0x1b44.3 (0.4)
0x1b40|            00                                 |    .           |          type: "notype" (0) 0x1b44.4-0x1b44.7 (0.4)
0x1b40|               00                              |     .          |          other_unused: 0 0x1b45-0x1b45.5 (0.6)
0x1b40|               00                              |     .          |          visibility: "default" (0) 0x1b45.6-0x1b45.7 (0.2)
0x1b40|                  07 00                        |      ..        |          shndx: 7 0x1b46-0x1b47.7 (2)
0x1b40|                        e8 05 00 00 00 00 00 00|        ........|          value: 1512 0x1b48-0x1b4f.7 (8)
0x1b50|00 00 00 00 00 00 00 00                        |........        |          size: 0 0x1b50-0x1b57.7 (8)
      |                                               |                |        [37]{}: symbol 0x1b58-0x1b6f.7 (24)
0x1b50|                        09 00 00 00            |        ....    |          name: "$x" (9) 0x1b58-0x1b5b.7 (4)
0x1b50|                                    00         |            .   |          bind: "local" (0) 0x1b5c-0x1b5c.3 (0.4)
0x1b50|                                    00         |            .   |          type: "notype" (0) 0x1b5c.4-0x1b5c.7 (0.4)
0x1b50|                                       00      |             .  |          other_unused: 0 0x1b5d-0x1b5d.5 (0.6)
0x1b50|                                       00      |             .  |          visibility: "default" (0) 0x1b5d.6-0x1b5d.7 (0.2)
0x1b50|                                          0a 00|              ..|          shndx: 10 0x1b5e-0x1b5f.7 (2)
0x1b60|08 08 00 00 00 00 00 00                        |........        |          value: 2056 0x1b60-0x1b67.7 (8)
0x1b60|                        00 00 00 00 00 00 00 00|        ........|          size: 0 0x1b68-0x1b6f.7 (8)
      |                                               |                |        [38]{}: symbol 0x1b70-0x1b87.7 (24)
0x1b70|1a 00 00 00                                    |....            |          name: "crtstuff.c" (26) 0x1b70-0x1b73.7 (4)
0x1b70|            04                                 |    .           |          bind: "local" (0) 0x1b74-0x1b74.3 (0.4)
0x1b70|            04                                 |    .           |          type: "file" (4) 0x1b74.4-0x1b74.7 (0.4)
0x1b70|               00                              |     .          |          other_unused: 0 0x1b75-0x1b75.5 (0.6)
0x1b70|               00                              |     .          |          visibility: "default" (0) 0x1b75.6-0x1b75.7 (0.2)
0x1b70|                  f1 ff                        |      ..        |          shndx: 65521 0x1b76-0x1b77.7 (2)
0x1b70|                        00 00 00 00 00 00 00 00|        ........|          value: 0 0x1b78-0x1b7f.7 (8)
0x1b80|00 00 00 00 00 00 00 00                        |........        |          size: 0 0x1b80-0x1b87.7 (8)
      |                                               |                |        [39]{}: symbol 0x1b88-0x1b9f.7 (24)
0x1b80|                        25 00 00 00            |        %...    |          name: "$d" (37) 0x1b88-0x1b8b.7 (4)
0x1b80|                                    00         |            .   |          bind: "local" (0) 0x1b8c-0x1b8c.3 (0.4)
0x1b80|                                    00         |            .   |          type: "notype" (0) 0x1b8c.4-0x1b8c.7 (0.4)
0x1b80|                                       00      |             .  |          other_unused: 0 0x1b8d-0x1b8d.5 (0.6)
0x1b80|                                       00      |             .  |          visibility: "default" (0) 0x1b8d.6-0x1b8d.7 (0.2)
0x1b80|                                          0d 00|              ..|          shndx: 13 0x1b8e-0x1b8f.7 (2)
0x1b90|50 08 00 00 00 00 00 00                        |P.......        |          value: 2128 0x1b90-0x1b97.7 (8)
0x1b90|                        00 00 00 00 00 00 00 00|        ........|          size: 0 0x1b98-0x1b9f.7 (8)
      |                                               |                |        [40]{}: symbol 0x1ba0-0x1bb7.7 (24)
0x1ba0|28 00 00 00                                    |(...            |          name: "__EH_FRAME_BEGIN__" (40) 0x1ba0-0x1ba3.7 (4)
0x1ba0|            01                                 |    .           |          bind: "local" (0) 0x1ba4-0x1ba4.3 (0.4)
0x1ba0|            01                                 |    .           |          type: "object" (1) 0x1ba4.4-0x1ba4.7 (0.4)
0x1ba0|               00                              |     .          |          other_unused: 0 0x1ba5-0x1ba5.5 (0.6)
0x1ba0|               00                              |     .          |          visibility: "default" (0) 0x1ba5.6-0x1ba5.7 (0.2)
0x1ba0|                  0d 00                        |      ..        |          shndx: 13 0x1ba6-0x1ba7.7 (2)
0x1ba0|                        50 08 00 00 00 00 00 00|        P.......|          value: 2128 0x1ba8-0x1baf.7 (8)
0x1bb0|00 00 00 00 00 00 00 00                        |........        |          size: 0 0x1bb0-0x1bb7.7 (8)
      |                                               |                |        [41]{}: symbol 0x1bb8-0x1bcf.7 (24)
0x1bb0|                        09 00 00 00            |        ....    |          name: "$x" (9) 0x1bb8-0x1bbb.7 (4)
0x1bb0|                                    00         |            .   |          bind: "local" (0) 0x1bbc-0x1bbc.3 (0.4)
0x1bb0|                                    00         |            .   |          type: "notype" (0) 0x1bbc.4-0x1bbc.7 (0.4)
0x1bb0|                                       00      |             .  |          other_unused: 0 0x1bbd-0x1bbd.5 (0.6)
0x1bb0|                                       00      |             .  |          visibility: "default" (0) 0x1bbd.6-0x1bbd.7 (0.2)
0x1bb0|                                          09 00|              ..|          shndx: 9 0x1bbe-0x1bbf.7 (2)
0x1bc0|c0 06 00 00 00 00 00 00                        |........        |          value: 1728 0x1bc0-0x1bc7.7 (8)
0x1bc0|                        00 00 00 00 00 00 00 00|        ........|          size: 0 0x1bc8-0x1bcf.7 (8)
      |                                               |                |        [42]{}: symbol 0x1bd0-0x1be7.7 (24)
0x1bd0|3b 00 00 00                                    |;...            |          name: "deregister_tm_clones" (59) 0x1bd0-0x1bd3.7 (4)
0x1bd0|            02                                 |    .           |          bind: "local" (0) 0x1bd4-0x1bd4.3 (0.4)
0x1bd0|            02                                 |    .           |          type: "func" (2) 0x1bd4.4-0x1bd4.7 (0.4)
0x1bd0|               00                              |     .          |          other_unused: 0 0x1bd5-0x1bd5.5 (0.6)
0x1bd0|               00                              |     .          |          visibility: "default" (0) 0x1bd5.6-0x1bd5.7 (0.2)
0x1bd0|                  09 00                        |      ..        |          shndx: 9 0x1bd6-0x1bd7.7 (2)
0x1bd0|                        c0 06 00 00 00 00 00 00|        ........|          value: 1728 0x1bd8-0x1bdf.7 (8)
0x1be0|00 00 00 00 00 00 00 00                        |........        |          size: 0 0x1be0-0x1be7.7 (8)
      |                                               |                |        [43]{}: symbol 0x1be8-0x1bff.7 (24)
0x1be0|                        3d 00 00 00            |        =...    |          name: "register_tm_clones" (61) 0x1be8-0x1beb.7 (4)
0x1be0|                                    02         |            .   |          bind: "local" (0) 0x1bec-0x1bec.3 (0.4)
0x1be0|                                    02         |            .   |          type: "func" (2) 0x1bec.4-0x1bec.7 (0.4)
0x1be0|                                       00      |             .  |          other_unused: 0 0x1bed-0x1bed.5 (0.6)
0x1be0|                                       00      |             .  |          visibility: "default" (0) 0x1bed.6-0x1bed.7 (0.2)
0x1be0|                                          09 00|              ..|          shndx: 9 0x1bee-0x1bef.7 (2)
0x1bf0|f0 06 00 00 00 00 00 00                        |........        |          value: 1776 0x1bf0-0x1bf7.7 (8)
0x1bf0|                        00 00 00 00 00 00 00 00|        ........|          size: 0 0x1bf8-0x1bff.7 (8)
      |                                               |                |        [44]{}: symbol 0x1c00-0x1c17.7 (24)
0x1c00|25 00 00 00                                    |%...            |          name: "$d" (37) 0x1c00-0x1c03.7 (4)
0x1c00|            00                                 |    .           |          bind: "local" (0) 0x1c04-0x1c04.3 (0.4)
0x1c00|            00                                 |    .           |          type: "notype" (0) 0x1c04.4-0x1c04.7 (0.4)
0x1c00|               00                              |     .          |          other_unused: 0 0x1c05-0x1c05.5 (0.6)
0x1c00|               00                              |     .          |          visibility: "default" (0) 0x1c05.6-0x1c05.7 (0.2)
0x1c00|                  12 00                        |      ..        |          shndx: 18 0x1c06-0x1c07.7 (2)
0x1c00|                        00 10 01 00 00 00 00 00|        ........|          value: 69632 0x1c08-0x1c0f.7 (8)
0x1c10|00 00 00 00 00 00 00 00                        |........        |          size: 0 0x1c10-0x1c17.7 (8)
      |                                               |                |        [45]{}: symbol 0x1c18-0x1c2f.7 (24)
0x1c10|                        50 00 00 00            |        P...    |          name: "__do_global_dtors_aux" (80) 0x1c18-0x1c1b.7 (4)
0x1c10|                                    02         |            .   |          bind: "local" (0) 0x1c1c-0x1c1c.3 (0.4)
0x1c10|                                    02         |            .   |          type: "func" (2) 0x1c1c.4-0x1c1c.7 (0.4)
0x1c10|                                       00      |             .  |          other_unused: 0 0x1c1d-0x1c1d.5 (0.6)
0x1c10|                                       00      |             .  |          visibility: "default" (0) 0x1c1d.6-0x1c1d.7 (0.2)
0x1c10|                                          09 00|              ..|          shndx: 9 0x1c1e-0x1c1f.7 (2)
0x1c20|30 07 00 00 00 00 00 00                        |0.......        |          value: 1840 0x1c20-0x1c27.7 (8)
0x1c20|                        00 00 00 00 00 00 00 00|        ........|          size: 0 0x1c28-0x1c2f.7 (8)
      |                                               |                |        [46]{}: symbol 0x1c30-0x1c47.7 (24)
0x1c30|66 00 00 00                                    |f...            |          name: "completed.1" (102) 0x1c30-0x1c33.7 (4)
0x1c30|            01                                 |    .           |          bind: "local" (0) 0x1c34-0x1c34.3 (0.4)
0x1c30|            01                                 |    .           |          type: "object" (1) 0x1c34.4-0x1c34.7 (0.4)
0x1c30|               00                              |     .          |          other_unused: 0 0x1c35-0x1c35.5 (0.6)
0x1c30|               00                              |     .          |          visibility: "default" (0) 0x1c35.6-0x1c35.7 (0.2)
0x1c30|                  13 00                        |      ..        |          shndx: 19 0x1c36-0x1c37.7 (2)
0x1c30|                        08 10 01 00 00 00 00 00|        ........|          value: 69640 0x1c38-0x1c3f.7 (8)
0x1c40|01 00 00 00 00 00 00 00                        |........        |          size: 1 0x1c40-0x1c47.7 (8)
      |                                               |                |        [47]{}: symbol 0x1c48-0x1c5f.7 (24)
0x1c40|                        25 00 00 00            |        %...    |          name: "$d" (37) 0x1c48-0x1c4b.7 (4)
0x1c40|                                    00         |            .   |          bind: "local" (0) 0x1c4c-0x1c4c.3 (0.4)
0x1c40|                                    00         |            .   |          type: "notype" (0) 0x1c4c.4-0x1c4c.7 (0.4)
0x1c40|                                       00      |             .  |          other_unused: 0 0x1c4d-0x1c4d.5 (0.6)
0x1c40|                                       00      |             .  |          visibility: "default" (0) 0x1c4d.6-0x1c4d.7 (0.2)
0x1c40|                                          0f 00|              ..|          shndx: 15 0x1c4e-0x1c4f.7 (2)
0x1c50|98 0d 01 00 00 00 00 00                        |........        |          value: 69016 0x1c50-0x1c57.7 (8)
0x1c50|                        00 00 00 00 00 00 00 00|        ........|          size: 0 0x1c58-0x1c5f.7 (8)
      |                                               |                |        [48]{}: symbol 0x1c60-0x1c77.7 (24)
0x1c60|72 00 00 00                                    |r...            |          name: "__do_global_dtors_aux_fini_array_entry" (114) 0x1c60-0x1c63.7 (4)
0x1c60|            01                                 |    .           |          bind: "local" (0) 0x1c64-0x1c64.3 (0.4)
0x1c60|            01                                 |    .           |          type: "object" (1) 0x1c64.4-0x1c64.7 (0.4)
0x1c60|               00                              |     .          |          other_unused: 0 0x1c65-0x1c65.5 (0.6)
0x1c60|               00                              |     .          |          visibility: "default" (0) 0x1c65.6-0x1c65.7 (0.2)
0x1c60|                  0f 00                        |      ..        |          shndx: 15 0x1c66-0x1c67.7 (2)
0x1c60|                        98 0d 01 00 00 00 00 00|        ........|          value: 69016 0x1c68-0x1c6f.7 (8)
0x1c70|00 00 00 00 00 00 00 00                        |........        |          size: 0 0x1c70-0x1c77.7 (8)
      |                                               |                |        [49]{}: symbol 0x1c78-0x1c8f.7 (24)
0x1c70|                        99 00 00 00            |        ....    |          name: "frame_dummy" (153) 0x1c78-0x1c7b.7 (4)
0x1c70|                                    02         |            .   |          bind: "local" (0) 0x1c7c-0x1c7c.3 (0.4)
0x1c70|                                    02         |            .   |          type: "func" (2) 0x1c7c.4-0x1c7c.7 (0.4)
0x1c70|                                       00      |             .  |          other_unused: 0 0x1c7d-0x1c7d.5 (0.6)
0x1c70|                                       00      |             .  |          visibility: "default" (0) 0x1c7d.6-0x1c7d.7 (0.2)
0x1c70|                                          09 00|              ..|          shndx: 9 0x1c7e-0x1c7f.7 (2)
0x1c80|90 07 00 00 00 00 00 00                        |........        |          value: 1936 0x1c80-0x1c87.7 (8)
0x1c80|                        00 00 00 00 00 00 00 00|        ........|          size: 0 0x1c88-0x1c8f.7 (8)
      |                                               |                |        [50]{}: symbol 0x1c90-0x1ca7.7 (24)
0x1c90|a5 00 00 00                                    |....            |          name: "object.0" (165) 0x1c90-0x1c93.7 (4)
0x1c90|            01                                 |    .           |          bind: "local" (0) 0x1c94-0x1c94.3 (0.4)
0x1c90|            01                                 |    .           |          type: "object" (1) 0x1c94.4-0x1c94.7 (0.4)
0x1c90|               00                              |     .          |          other_unused: 0 0x1c95-0x1c95.5 (0.6)
0x1c90|               00                              |     .          |          visibility: "default" (0) 0x1c95.6-0x1c95.7 (0.2)
0x1c90|                  13 00                        |      ..        |          shndx: 19 0x1c96-0x1c97.7 (2)
0x1c90|                        10 10 01 00 00 00 00 00|        ........|          value: 69648 0x1c98-0x1c9f.7 (8)
0x1ca0|30 00 00 00 00 00 00 00                        |0.......        |          size: 48 0x1ca0-0x1ca7.7 (8)
      |                                               |                |        [51]{}: symbol 0x1ca8-0x1cbf.7 (24)
0x1ca0|                        25 00 00 00            |        %...    |          name: "$d" (37) 0x1ca8-0x1cab.7 (4)
0x1ca0|                                    00         |            .   |          bind: "local" (0) 0x1cac-0x1cac.3 (0.4)
0x1ca0|                                    00         |            .   |          type: "notype" (0) 0x1cac.4-0x1cac.7 (0.4)
0x1ca0|                                       00      |             .  |          other_unused: 0 0x1cad-0x1cad.5 (0.6)
0x1ca0|                                       00      |             .  |          visibility: "default" (0) 0x1cad.6-0x1cad.7 (0.2)
0x1ca0|                                          0e 00|              ..|          shndx: 14 0x1cae-0x1caf.7 (2)
0x1cb0|90 0d 01 00 00 00 00 00                        |........        |          value: 69008 0x1cb0-0x1cb7.7 (8)
0x1cb0|                        00 00 00 00 00 00 00 00|        ........|          size: 0 0x1cb8-0x1cbf.7 (8)
      |                                               |                |        [52]{}: symbol 0x1cc0-0x1cd7.7 (24)
0x1cc0|ae 00 00 00                                    |....            |          name: "__frame_dummy_init_array_entry" (174) 0x1cc0-0x1cc3.7 (4)
0x1cc0|            01                                 |    .           |          bind: "local" (0) 0x1cc4-0x1cc4.3 (0.4)
0x1cc0|            01                                 |    .           |          type: "object" (1) 0x1cc4.4-0x1cc4.7 (0.4)
0x1cc0|               00                              |     .          |          other_unused: 0 0x1cc5-0x1cc5.5 (0.6)
0x1cc0|               00                              |     .          |          visibility: "default" (0) 0x1cc5.6-0x1cc5.7 (0.2)
0x1cc0|                  0e 00                        |      ..        |          shndx: 14 0x1cc6-0x1cc7.7 (2)
0x1cc0|                        90 0d 01 00 00 00 00 00|        ........|          value: 69008 0x1cc8-0x1ccf.7 (8)
0x1cd0|00 00 00 00 00 00 00 00                        |........        |          size: 0 0x1cd0-0x1cd7.7 (8)
      |                                               |                |        [53]{}: symbol 0x1cd8-0x1cef.7 (24)
0x1cd0|                        25 00 00 00            |        %...    |          name: "$d" (37) 0x1cd8-0x1cdb.7 (4)
0x1cd0|                                    00         |            .   |          bind: "local" (0) 0x1cdc-0x1cdc.3 (0.4)
0x1cd0|                                    00         |            .   |          type: "notype" (0) 0x1cdc.4-0x1cdc.7 (0.4)
0x1cd0|                                       00      |             .  |          other_unused: 0 0x1cdd-0x1cdd.5 (0.6)
0x1cd0|                                       00      |             .  |          visibility: "default" (0) 0x1cdd.6-0x1cdd.7 (0.2)
0x1cd0|                                          13 00|              ..|          shndx: 19 0x1cde-0x1cdf.7 (2)
0x1ce0|09 10 01 00 00 00 00 00                        |........        |          value: 69641 0x1ce0-0x1ce7.7 (8)
0x1ce0|                        00 00 00 00 00 00 00 00|        ........|          size: 0 0x1ce8-0x1cef.7 (8)
      |                                               |                |        [54]{}: symbol 0x1cf0-0x1d07.7 (24)
0x1cf0|cd 00 00 00                                    |....            |          name: "a.c" (205) 0x1cf0-0x1cf3.7 (4)
0x1cf0|            04                                 |    .           |          bind: "local" (0) 0x1cf4-0x1cf4.3 (0.4)
0x1cf0|            04                                 |    .           |          type: "file" (4) 0x1cf4.4-0x1cf4.7 (0.4)
0x1cf0|               00                              |     .          |          other_unused: 0 0x1cf5-0x1cf5.5 (0.6)
0x1cf0|               00                              |     .          |          visibility: "default" (0) 0x1cf5.6-0x1cf5.7 (0.2)
0x1cf0|                  f1 ff                        |      ..        |          shndx: 65521 0x1cf6-0x1cf7.7 (2)
0x1cf0|                        00 00 00 00 00 00 00 00|        ........|          value: 0 0x1cf8-0x1cff.7 (8)
0x1d00|00 00 00 00 00 00 00 00                        |........        |          size: 0 0x1d00-0x1d07.7 (8)
      |                                               |                |        [55]{}: symbol 0x1d08-0x1d1f.7 (24)
0x1d00|                        25 00 00 00            |        %...    |          name: "$d" (37) 0x1d08-0x1d0b.7 (4)
0x1d00|                                    00         |            .   |          bind: "local" (0) 0x1d0c-0x1d0c.3 (0.4)
0x1d00|                                    00         |            .   |          type: "notype" (0) 0x1d0c.4-0x1d0c.7 (0.4)
0x1d00|                                       00      |             .  |          other_unused: 0 0x1d0d-0x1d0d.5 (0.6)
0x1d00|                                       00      |             .  |          visibility: "default" (0) 0x1d0d.6-0x1d0d.7 (0.2)
0x1d00|                                          0b 00|              ..|          shndx: 11 0x1d0e-0x1d0f.7 (2)
0x1d10|10 08 00 00 00 00 00 00                        |........        |          value: 2064 0x1d10-0x1d17.7 (8)
0x1d10|                        00 00 00 00 00 00 00 00|        ........|          size: 0 0x1d18-0x1d1f.7 (8)
      |                                               |                |        [56]{}: symbol 0x1d20-0x1d37.7 (24)
0x1d20|09 00 00 00                                    |....            |          name: "$x" (9) 0x1d20-0x1d23.7 (4)
0x1d20|            00                                 |    .           |          bind: "local" (0) 0x1d24-0x1d24.3 (0.4)
0x1d20|            00                                 |    .           |          type: "notype" (0) 0x1d24.4-0x1d24.7 (0.4)
0x1d20|               00                              |     .          |          other_unused: 0 0x1d25-0x1d25.5 (0.6)
0x1d20|               00                              |     .          |          visibility: "default" (0) 0x1d25.6-0x1d25.7 (0.2)
0x1d20|                  09 00                        |      ..        |          shndx: 9 0x1d26-0x1d27.7 (2)
0x1d20|                        c4 07 00 00 00 00 00 00|        ........|          value: 1988 0x1d28-0x1d2f.7 (8)
0x1d30|00 00 00 00 00 00 00 00                        |........        |          size: 0 0x1d30-0x1d37.7 (8)
      |                                               |                |        [57]{}: symbol 0x1d38-0x1d4f.7 (24)
0x1d30|                        25 00 00 00            |        %...    |          name: "$d" (37) 0x1d38-0x1d3b.7 (4)
0x1d30|                                    00         |            .   |          bind: "local" (0) 0x1d3c-0x1d3c.3 (0.4)
0x1d30|                                    00         |            .   |          type: "notype" (0) 0x1d3c.4-0x1d3c.7 (0.4)
0x1d30|                                       00      |             .  |          other_unused: 0 0x1d3d-0x1d3d.5 (0.6)
0x1d30|                                       00      |             .  |          visibility: "default" (0) 0x1d3d.6-0x1d3d.7 (0.2)
0x1d30|                                          0d 00|              ..|          shndx: 13 0x1d3e-0x1d3f.7 (2)
0x1d40|d0 08 00 00 00 00 00 00                        |........        |          value: 2256 0x1d40-0x1d47.7 (8)
0x1d40|                        00 00 00 00 00 00 00 00|        ........|          size: 0 0x1d48-0x1d4f.7 (8)
      |                                               |                |        [58]{}: symbol 0x1d50-0x1d67.7 (24)
0x1d50|1a 00 00 00                                    |....            |          name: "crtstuff.c" (26) 0x1d50-0x1d53.7 (4)
0x1d50|            04                                 |    .           |          bind: "local" (0) 0x1d54-0x1d54.3 (0.4)
0x1d50|            04                                 |    .           |          type: "file" (4) 0x1d54.4-0x1d54.7 (0.4)
0x1d50|               00                              |     .          |          other_unused: 0 0x1d55-0x1d55.5 (0.6)
0x1d50|               00                              |     .          |          visibility: "default" (0) 0x1d55.6-0x1d55.7 (0.2)
0x1d50|                  f1 ff                        |      ..        |          shndx: 65521 0x1d56-0x1d57.7 (2)
0x1d50|                        00 00 00 00 00 00 00 00|        ........|          value: 0 0x1d58-0x1d5f.7 (8)
0x1d60|00 00 00 00 00 00 00 00                        |........        |          size: 0 0x1d60-0x1d67.7 (8)
      |                                               |                |        [59]{}: symbol 0x1d68-0x1d7f.7 (24)
0x1d60|                        25 00 00 00            |        %...    |          name: "$d" (37) 0x1d68-0x1d6b.7 (4)
0x1d60|                                    00         |            .   |          bind: "local" (0) 0x1d6c-0x1d6c.3 (0.4)
0x1d60|                                    00         |            .   |          type: "notype" (0) 0x1d6c.4-0x1d6c.7 (0.4)
0x1d60|                                       00      |             .  |          other_unused: 0 0x1d6d-0x1d6d.5 (0.6)
0x1d60|                                       00      |             .  |          visibility: "default" (0) 0x1d6d.6-0x1d6d.7 (0.2)
0x1d60|                                          0d 00|              ..|          shndx: 13 0x1d6e-0x1d6f.7 (2)
0x1d70|10 09 00 00 00 00 00 00                        |........        |          value: 2320 0x1d70-0x1d77.7 (8)
0x1d70|                        00 00 00 00 00 00 00 00|        ........|          size: 0 0x1d78-0x1d7f.7 (8)
      |                                               |                |        [60]{}: symbol 0x1d80-0x1d97.7 (24)
0x1d80|d1 00 00 00                                    |....            |          name: "__FRAME_END__" (209) 0x1d80-0x1d83.7 (4)
0x1d80|            01                                 |    .           |          bind: "local" (0) 0x1d84-0x1d84.3 (0.4)
0x1d80|            01                                 |    .           |          type: "object" (1) 0x1d84.4-0x1d84.7 (0.4)
0x1d80|               00                              |     .          |          other_unused: 0 0x1d85-0x1d85.5 (0.6)
0x1d80|               00                              |     .          |          visibility: "default" (0) 0x1d85.6-0x1d85.7 (0.2)
0x1d80|                  0d 00                        |      ..        |          shndx: 13 0x1d86-0x1d87.7 (2)
0x1d80|                        10 09 00 00 00 00 00 00|        ........|          value: 2320 0x1d88-0x1d8f.7 (8)
0x1d90|00 00 00 00 00 00 00 00                        |........        |          size: 0 0x1d90-0x1d97.7 (8)
      |                                               |                |        [61]{}: symbol 0x1d98-0x1daf.7 (24)
0x1d90|                        00 00 00 00            |        ....    |          name: "" (0) 0x1d98-0x1d9b.7 (4)
0x1d90|                                    04         |            .   |          bind: "local" (0) 0x1d9c-0x1d9c.3 (0.4)
0x1d90|                                    04         |            .   |          type: "file" (4) 0x1d9c.4-0x1d9c.7 (0.4)
0x1d90|                                       00      |             .  |          other_unused: 0 0x1d9d-0x1d9d.5 (0.6)
0x1d90|                                       00      |             .  |          visibility: "default" (0) 0x1d9d.6-0x1d9d.7 (0.2)
0x1d90|                                          f1 ff|              ..|          shndx: 65521 0x1d9e-0x1d9f.7 (2)
0x1da0|00 00 00 00 00 00 00 00                        |........        |          value: 0 0x1da0-0x1da7.7 (8)
0x1da0|                        00 00 00 00 00 00 00 00|        ........|          size: 0 0x1da8-0x1daf.7 (8)
      |                                               |                |        [62]{}: symbol 0x1db0-0x1dc7.7 (24)
0x1db0|df 00 00 00                                    |....            |          name: "_DYNAMIC" (223) 0x1db0-0x1db3.7 (4)
0x1db0|            01                                 |    .           |          bind: "local" (0) 0x1db4-0x1db4.3 (0.4)
0x1db0|            01                                 |    .           |          type: "object" (1) 0x1db4.4-0x1db4.7 (0.4)
0x1db0|               00                              |     .          |          other_unused: 0 0x1db5-0x1db5.5 (0.6)
0x1db0|               00                              |     .          |          visibility: "default" (0) 0x1db5.6-0x1db5.7 (0.2)
0x1db0|                  f1 ff                        |      ..        |          shndx: 65521 0x1db6-0x1db7.7 (2)
0x1db0|                        a0 0d 01 00 00 00 00 00|        ........|          value: 69024 0x1db8-0x1dbf.7 (8)
0x1dc0|00 00 00 00 00 00 00 00                        |........        |          size: 0 0x1dc0-0x1dc7.7 (8)
      |                                               |                |        [63]{}: symbol 0x1dc8-0x1ddf.7 (24)
0x1dc0|                        e8 00 00 00            |        ....    |          name: "__GNU_EH_FRAME_HDR" (232) 0x1dc8-0x1dcb.7 (4)
0x1dc0|                                    00         |            .   |          bind: "local" (0) 0x1dcc-0x1dcc.3 (0.4)
0x1dc0|                                    00         |            .   |          type: "notype" (0) 0x1dcc.4-0x1dcc.7 (0.4)
0x1dc0|                                       00      |             .  |          other_unused: 0 0x1dcd-0x1dcd.5 (0.6)
0x1dc0|                                       00      |             .  |          visibility: "default" (0) 0x1dcd.6-0x1dcd.7 (0.2)
0x1dc0|                                          0c 00|              ..|          shndx: 12 0x1dce-0x1dcf.7 (2)
0x1dd0|14 08 00 00 00 00 00 00                        |........        |          value: 2068 0x1dd0-0x1dd7.7 (8)
0x1dd0|                        00 00 00 00 00 00 00 00|        ........|          size: 0 0x1dd8-0x1ddf.7 (8)
      |                                               |                |        [64]{}: symbol 0x1de0-0x1df7.7 (24)
0x1de0|fb 00 00 00                                    |....            |          name: "_GLOBAL_OFFSET_TABLE_" (251) 0x1de0-0x1de3.7 (4)
0x1de0|            01                                 |    .           |          bind: "local" (0) 0x1de4-0x1de4.3 (0.4)
0x1de0|            01                                 |    .           |          type: "object" (1) 0x1de4.4-0x1de4.7 (0.4)
0x1de0|               00                              |     .          |          other_unused: 0 0x1de5-0x1de5.5 (0.6)
0x1de0|               00                              |     .          |          visibility: "default" (0) 0x1de5.6-0x1de5.7 (0.2)
0x1de0|                  f1 ff                        |      ..        |          shndx: 65521 0x1de6-0x1de7.7 (2)
0x1de0|                        b8 0f 01 00 00 00 00 00|        ........|          value: 69560 0x1de8-0x1def.7 (8)
0x1df0|00 00 00 00 00 00 00 00                        |........        |          size: 0 0x1df0-0x1df7.7 (8)
      |                                               |                |        [65]{}: symbol 0x1df8-0x1e0f.7 (24)
0x1df0|                        09 00 00 00            |        ....    |          name: "$x" (9) 0x1df8-0x1dfb.7 (4)
0x1df0|                                    00         |            .   |          bind: "local" (0) 0x1dfc-0x1dfc.3 (0.4)
0x1df0|                                    00         |            .   |          type: "notype" (0) 0x1dfc.4-0x1dfc.7 (0.4)
0x1df0|                                       00      |             .  |          other_unused: 0 0x1dfd-0x1dfd.5 (0.6)
0x1df0|                                       00      |             .  |          visibility: "default" (0) 0x1dfd.6-0x1dfd.7 (0.2)
0x1df0|                                          08 00|              ..|          shndx: 8 0x1dfe-0x1dff.7 (2)
0x1e00|f0 05 00 00 00 00 00 00                        |........        |          value: 1520 0x1e00-0x1e07.7 (8)
0x1e00|                        00 00 00 00 00 00 00 00|        ........|          size: 0 0x1e08-0x1e0f.7 (8)
      |                                               |                |        [66]{}: symbol 0x1e10-0x1e27.7 (24)
0x1e10|89 01 00 00                                    |....            |          name: "_bss_end__" (393) 0x1e10-0x1e13.7 (4)
0x1e10|            10                                 |    .           |          bind: "global" (1) 0x1e14-0x1e14.3 (0.4)
0x1e10|            10                                 |    .           |          type: "notype" (0) 0x1e14.4-0x1e14.7 (0.4)
0x1e10|               00                              |     .          |          other_unused: 0 0x1e15-0x1e15.5 (0.6)
0x1e10|               00                              |     .          |          visibility: "default" (0) 0x1e15.6-0x1e15.7 (0.2)
0x1e10|                  13 00                        |      ..        |          shndx: 19 0x1e16-0x1e17.7 (2)
0x1e10|                        40 10 01 00 00 00 00 00|        @.......|          value: 69696 0x1e18-0x1e1f.7 (8)
0x1e20|00 00 00 00 00 00 00 00                        |........        |          size: 0 0x1e20-0x1e27.7 (8)
      |                                               |                |        [67]{}: symbol 0x1e28-0x1e3f.7 (24)
0x1e20|                        11 01 00 00            |        ....    |          name: "__TMC_END__" (273) 0x1e28-0x1e2b.7 (4)
0x1e20|                                    11         |            .   |          bind: "global" (1) 0x1e2c-0x1e2c.3 (0.4)
0x1e20|                                    11         |            .   |          type: "object" (1) 0x1e2c.4-0x1e2c.7 (0.4)
0x1e20|                                       02      |             .  |          other_unused: 0 0x1e2d-0x1e2d.5 (0.6)
0x1e20|                                       02      |             .  |          visibility: "hidden" (2) 0x1e2d.6-0x1e2d.7 (0.2)
0x1e20|                                          12 00|              ..|          shndx: 18 0x1e2e-0x1e2f.7 (2)
0x1e30|08 10 01 00 00 00 00 00                        |........        |          value: 69640 0x1e30-0x1e37.7 (8)
0x1e30|                        00 00 00 00 00 00 00 00|        ........|          size: 0 0x1e38-0x1e3f.7 (8)
      |                                               |                |        [68]{}: symbol 0x1e40-0x1e57.7 (24)
0x1e40|1d 01 00 00                                    |....            |          name: "puts" (285) 0x1e40-0x1e43.7 (4)
0x1e40|            12                                 |    .           |          bind: "global" (1) 0x1e44-0x1e44.3 (0.4)
0x1e40|            12                                 |    .           |          type: "func" (2) 0x1e44.4-0x1e44.7 (0.4)
0x1e40|               00                              |     .          |          other_unused: 0 0x1e45-0x1e45.5 (0.6)
0x1e40|               00                              |     .          |          visibility: "default" (0) 0x1e45.6-0x1e45.7 (0.2)
0x1e40|                  00 00                        |      ..        |          shndx: 0 0x1e46-0x1e47.7 (2)
0x1e40|                        00 00 00 00 00 00 00 00|        ........|          value: 0 0x1e48-0x1e4f.7 (8)
0x1e50|00 00 00 00 00 00 00 00                        |........        |          size: 0 0x1e50-0x1e57.7 (8)
      |                                               |                |        [69]{}: symbol 0x1e58-0x1e6f.7 (24)
0x1e50|                        22 01 00 00            |        "...    |          name: "__cxa_finalize" (290) 0x1e58-0x1e5b.7 (4)
0x1e50|                                    22         |            "   |          bind: "weak" (2) 0x1e5c-0x1e5c.3 (0.4)
0x1e50|                                    22         |            "   |          type: "func" (2) 0x1e5c.4-0x1e5c.7 (0.4)
0x1e50|                                       00      |             .  |          other_unused: 0 0x1e5d-0x1e5d.5 (0.6)
0x1e50|                                       00      |             .  |          visibility: "default" (0) 0x1e5d.6-0x1e5d.7 (0.2)
0x1e50|                                          00 00|              ..|          shndx: 0 0x1e5e-0x1e5f.7 (2)
0x1e60|00 00 00 00 00 00 00 00                        |........        |          value: 0 0x1e60-0x1e67.7 (8)
0x1e60|                        00 00 00 00 00 00 00 00|        ........|          size: 0 0x1e68-0x1e6f.7 (8)
      |                                               |                |        [70]{}: symbol 0x1e70-0x1e87.7 (24)
0x1e70|31 01 00 00                                    |1...            |          name: "__bss_start__" (305) 0x1e70-0x1e73.7 (4)
0x1e70|            10                                 |    .           |          bind: "global" (1) 0x1e74-0x1e74.3 (0.4)
0x1e70|            10                                 |    .           |          type: "notype" (0) 0x1e74.4-0x1e74.7 (0.4)
0x1e70|               00                              |     .          |          other_unused: 0 0x1e75-0x1e75.5 (0.6)
0x1e70|               00                              |     .          |          visibility: "default" (0) 0x1e75.6-0x1e75.7 (0.2)
0x1e70|                  13 00                        |      ..        |          shndx: 19 0x1e76-0x1e77.7 (2)
0x1e70|                        08 10 01 00 00 00 00 00|        ........|          value: 69640 0x1e78-0x1e7f.7 (8)
0x1e80|00 00 00 00 00 00 00 00                        |........        |          size: 0 0x1e80-0x1e87.7 (8)
      |                                               |                |        [71]{}: symbol 0x1e88-0x1e9f.7 (24)
0x1e80|                        3f 01 00 00            |        ?...    |          name: "__dso_handle" (319) 0x1e88-0x1e8b.7 (4)
0x1e80|                                    11         |            .   |          bind: "global" (1) 0x1e8c-0x1e8c.3 (0.4)
0x1e80|                                    11         |            .   |          type: "object" (1) 0x1e8c.4-0x1e8c.7 (0.4)
0x1e80|                                       02      |             .  |          other_unused: 0 0x1e8d-0x1e8d.5 (0.6)
0x1e80|                                       02      |             .  |          visibility: "hidden" (2) 0x1e8d.6-0x1e8d.7 (0.2)
0x1e80|                                          12 00|              ..|          shndx: 18 0x1e8e-0x1e8f.7 (2)
0x1e90|00 10 01 00 00 00 00 00                        |........        |          value: 69632 0x1e90-0x1e97.7 (8)
0x1e90|                        00 00 00 00 00 00 00 00|        ........|          size: 0 0x1e98-0x1e9f.7 (8)
      |                                               |                |        [72]{}: symbol 0x1ea0-0x1eb7.7 (24)
0x1ea0|4c 01 00 00                                    |L...            |          name: "aaa" (332) 0x1ea0-0x1ea3.7 (4)
0x1ea0|            12                                 |    .           |          bind: "global" (1) 0x1ea4-0x1ea4.3 (0.4)
0x1ea0|            12                                 |    .           |          type: "func" (2) 0x1ea4.4-0x1ea4.7 (0.4)
0x1ea0|               00                              |     .          |          other_unused: 0 0x1ea5-0x1ea5.5 (0.6)
0x1ea0|               00                              |     .          |          visibility: "default" (0) 0x1ea5.6-0x1ea5.7 (0.2)
0x1ea0|                  09 00                        |      ..        |          shndx: 9 0x1ea6-0x1ea7.7 (2)
0x1ea0|                        c4 07 00 00 00 00 00 00|        ........|          value: 1988 0x1ea8-0x1eaf.7 (8)
0x1eb0|20 00 00 00 00 00 00 00                        | .......        |          size: 32 0x1eb0-0x1eb7.7 (8)
      |                                               |                |        [73]{}: symbol 0x1eb8-0x1ecf.7 (24)
0x1eb0|                        50 01 00 00            |        P...    |          name: "_init" (336) 0x1eb8-0x1ebb.7 (4)
0x1eb0|                                    12         |            .   |          bind: "global" (1) 0x1ebc-0x1ebc.3 (0.4)
0x1eb0|                                    12         |            .   |          type: "func" (2) 0x1ebc.4-0x1ebc.7 (0.4)
0x1eb0|                                       00      |             .  |          other_unused: 0 0x1ebd-0x1ebd.5 (0.6)
0x1eb0|                                       00      |             .  |          visibility: "default" (0) 0x1ebd.6-0x1ebd.7 (0.2)
0x1eb0|                                          07 00|              ..|          shndx: 7 0x1ebe-0x1ebf.7 (2)
0x1ec0|e0 05 00 00 00 00 00 00                        |........        |          value: 1504 0x1ec0-0x1ec7.7 (8)
0x1ec0|                        04 00 00 00 00 00 00 00|        ........|          size: 4 0x1ec8-0x1ecf.7 (8)
      |                                               |                |        [74]{}: symbol 0x1ed0-0x1ee7.7 (24)
0x1ed0|56 01 00 00                                    |V...            |          name: "__deregister_frame_info" (342) 0x1ed0-0x1ed3.7 (4)
0x1ed0|            20                                 |                |          bind: "weak" (2) 0x1ed4-0x1ed4.3 (0.4)
0x1ed0|            20                                 |                |          type: "notype" (0) 0x1ed4.4-0x1ed4.7 (0.4)
0x1ed0|               00                              |     .          |          other_unused: 0 0x1ed5-0x1ed5.5 (0.6)
0x1ed0|               00                              |     .          |          visibility: "default" (0) 0x1ed5.6-0x1ed5.7 (0.2)
0x1ed0|                  00 00                        |      ..        |          shndx: 0 0x1ed6-0x1ed7.7 (2)
0x1ed0|                        00 00 00 00 00 00 00 00|        ........|          value: 0 0x1ed8-0x1edf.7 (8)
0x1ee0|00 00 00 00 00 00 00 00                        |........        |          size: 0 0x1ee0-0x1ee7.7 (8)
      |                                               |                |        [75]{}: symbol 0x1ee8-0x1eff.7 (24)
0x1ee0|                        6e 01 00 00            |        n...    |          name: "_ITM_registerTMCloneTable" (366) 0x1ee8-0x1eeb.7 (4)
0x1ee0|                                    20         |                |          bind: "weak" (2) 0x1eec-0x1eec.3 (0.4)
0x1ee0|                                    20         |                |          type: "notype" (0) 0x1eec.4-0x1eec.7 (0.4)
0x1ee0|                                       00      |             .  |          other_unused: 0 0x1eed-0x1eed.5 (0.6)
0x1ee0|                                       00      |             .  |          visibility: "default" (0) 0x1eed.6-0x1eed.7 (0.2)
0x1ee0|                                          00 00|              ..|          shndx: 0 0x1eee-0x1eef.7 (2)
0x1ef0|00 00 00 00 00 00 00 00                        |........        |          value: 0 0x1ef0-0x1ef7.7 (8)
0x1ef0|                        00 00 00 00 00 00 00 00|        ........|          size: 0 0x1ef8-0x1eff.7 (8)
      |                                               |                |        [76]{}: symbol 0x1f00-0x1f17.7 (24)
0x1f00|88 01 00 00                                    |....            |          name: "__bss_end__" (392) 0x1f00-0x1f03.7 (4)
0x1f00|            10                                 |    .           |          bind: "global" (1) 0x1f04-0x1f04.3 (0.4)
0x1f00|            10                                 |    .           |          type: "notype" (0) 0x1f04.4-0x1f04.7 (0.4)
0x1f00|               00                              |     .          |          other_unused: 0 0x1f05-0x1f05.5 (0.6)
0x1f00|               00                              |     .          |          visibility: "default" (0) 0x1f05.6-0x1f05.7 (0.2)
0x1f00|                  13 00                        |      ..        |          shndx: 19 0x1f06-0x1f07.7 (2)
0x1f00|                        40 10 01 00 00 00 00 00|        @.......|          value: 69696 0x1f08-0x1f0f.7 (8)
0x1f10|00 00 00 00 00 00 00 00                        |........        |          size: 0 0x1f10-0x1f17.7 (8)
      |                                               |                |        [77]{}: symbol 0x1f18-0x1f2f.7 (24)
0x1f10|                        be 01 00 00            |        ....    |          name: "_start" (446) 0x1f18-0x1f1b.7 (4)
0x1f10|                                    12         |            .   |          bind: "global" (1) 0x1f1c-0x1f1c.3 (0.4)
0x1f10|                                    12         |            .   |          type: "func" (2) 0x1f1c.4-0x1f1c.7 (0.4)
0x1f10|                                       00      |             .  |          other_unused: 0 0x1f1d-0x1f1d.5 (0.6)
0x1f10|                                       00      |             .  |          visibility: "default" (0) 0x1f1d.6-0x1f1d.7 (0.2)
0x1f10|                                          09 00|              ..|          shndx: 9 0x1f1e-0x1f1f.7 (2)
0x1f20|70 06 00 00 00 00 00 00                        |p.......        |          value: 1648 0x1f20-0x1f27.7 (8)
0x1f20|                        00 00 00 00 00 00 00 00|        ........|          size: 0 0x1f28-0x1f2f.7 (8)
      |                                               |                |        [78]{}: symbol 0x1f30-0x1f47.7 (24)
0x1f30|94 01 00 00                                    |....            |          name: "_start_c" (404) 0x1f30-0x1f33.7 (4)
0x1f30|            12                                 |    .           |          bind: "global" (1) 0x1f34-0x1f34.3 (0.4)
0x1f30|            12                                 |    .           |          type: "func" (2) 0x1f34.4-0x1f34.7 (0.4)
0x1f30|               00                              |     .          |          other_unused: 0 0x1f35-0x1f35.5 (0.6)
0x1f30|               00                              |     .          |          visibility: "default" (0) 0x1f35.6-0x1f35.7 (0.2)
0x1f30|                  09 00                        |      ..        |          shndx: 9 0x1f36-0x1f37.7 (2)
0x1f30|                        8c 06 00 00 00 00 00 00|        ........|          value: 1676 0x1f38-0x1f3f.7 (8)
0x1f40|28 00 00 00 00 00 00 00                        |(.......        |          size: 40 0x1f40-0x1f47.7 (8)
      |                                               |                |        [79]{}: symbol 0x1f48-0x1f5f.7 (24)
0x1f40|                        9d 01 00 00            |        ....    |          name: "_ITM_deregisterTMCloneTable" (413) 0x1f48-0x1f4b.7 (4)
0x1f40|                                    20         |                |          bind: "weak" (2) 0x1f4c-0x1f4c.3 (0.4)
0x1f40|                                    20         |                |          type: "notype" (0) 0x1f4c.4-0x1f4c.7 (0.4)
0x1f40|                                       00      |             .  |          other_unused: 0 0x1f4d-0x1f4d.5 (0.6)
0x1f40|                                       00      |             .  |          visibility: "default" (0) 0x1f4d.6-0x1f4d.7 (0.2)
0x1f40|                                          00 00|              ..|          shndx: 0 0x1f4e-0x1f4f.7 (2)
0x1f50|00 00 00 00 00 00 00 00                        |........        |          value: 0 0x1f50-0x1f57.7 (8)
0x1f50|                        00 00 00 00 00 00 00 00|        ........|          size: 0 0x1f58-0x1f5f.7 (8)
      |                                               |                |        [80]{}: symbol 0x1f60-0x1f77.7 (24)
0x1f60|b9 01 00 00                                    |....            |          name: "__bss_start" (441) 0x1f60-0x1f63.7 (4)
0x1f60|            10                                 |    .           |          bind: "global" (1) 0x1f64-0x1f64.3 (0.4)
0x1f60|            10                                 |    .           |          type: "notype" (0) 0x1f64.4-0x1f64.7 (0.4)
0x1f60|               00                              |     .          |          other_unused: 0 0x1f65-0x1f65.5 (0.6)
0x1f60|               00                              |     .          |          visibility: "default" (0) 0x1f65.6-0x1f65.7 (0.2)
0x1f60|                  13 00                        |      ..        |          shndx: 19 0x1f66-0x1f67.7 (2)
0x1f60|                        08 10 01 00 00 00 00 00|        ........|          value: 69640 0x1f68-0x1f6f.7 (8)
0x1f70|00 00 00 00 00 00 00 00                        |........        |          size: 0 0x1f70-0x1f77.7 (8)
      |                                               |                |        [81]{}: symbol 0x1f78-0x1f8f.7 (24)
0x1f70|                        f7 01 00 00            |        ....    |          name: "main" (503) 0x1f78-0x1f7b.7 (4)
0x1f70|                                    12         |            .   |          bind: "global" (1) 0x1f7c-0x1f7c.3 (0.4)
0x1f70|                                    12         |            .   |          type: "func" (2) 0x1f7c.4-0x1f7c.7 (0.4)
0x1f70|                                       00      |             .  |          other_unused: 0 0x1f7d-0x1f7d.5 (0.6)
0x1f70|                                       00      |             .  |          visibility: "default" (0) 0x1f7d.6-0x1f7d.7 (0.2)
0x1f70|                                          09 00|              ..|          shndx: 9 0x1f7e-0x1f7f.7 (2)
0x1f80|e4 07 00 00 00 00 00 00                        |........        |          value: 2020 0x1f80-0x1f87.7 (8)
0x1f80|                        1c 00 00 00 00 00 00 00|        ........|          size: 28 0x1f88-0x1f8f.7 (8)
      |                                               |                |        [82]{}: symbol 0x1f90-0x1fa7.7 (24)
0x1f90|c5 01 00 00                                    |....            |          name: "__end__" (453) 0x1f90-0x1f93.7 (4)
0x1f90|            10                                 |    .           |          bind: "global" (1) 0x1f94-0x1f94.3 (0.4)
0x1f90|            10                                 |    .           |          type: "notype" (0) 0x1f94.4-0x1f94.7 (0.4)
0x1f90|               00                              |     .          |          other_unused: 0 0x1f95-0x1f95.5 (0.6)
0x1f90|               00                              |     .          |          visibility: "default" (0) 0x1f95.6-0x1f95.7 (0.2)
0x1f90|                  13 00                        |      ..        |          shndx: 19 0x1f96-0x1f97.7 (2)
0x1f90|                        40 10 01 00 00 00 00 00|        @.......|          value: 69696 0x1f98-0x1f9f.7 (8)
0x1fa0|00 00 00 00 00 00 00 00                        |........        |          size: 0 0x1fa0-0x1fa7.7 (8)
      |                                               |                |        [83]{}: symbol 0x1fa8-0x1fbf.7 (24)
0x1fa0|                        cd 01 00 00            |        ....    |          name: "_fini" (461) 0x1fa8-0x1fab.7 (4)
0x1fa0|                                    12         |            .   |          bind: "global" (1) 0x1fac-0x1fac.3 (0.4)
0x1fa0|                                    12         |            .   |          type: "func" (2) 0x1fac.4-0x1fac.7 (0.4)
0x1fa0|                                       00      |             .  |          other_unused: 0 0x1fad-0x1fad.5 (0.6)
0x1fa0|                                       00      |             .  |          visibility: "default" (0) 0x1fad.6-0x1fad.7 (0.2)
0x1fa0|                                          0a 00|              ..|          shndx: 10 0x1fae-0x1faf.7 (2)
0x1fb0|00 08 00 00 00 00 00 00                        |........        |          value: 2048 0x1fb0-0x1fb7.7 (8)
0x1fb0|                        04 00 00 00 00 00 00 00|        ........|          size: 4 0x1fb8-0x1fbf.7 (8)
      |                                               |                |        [84]{}: symbol 0x1fc0-0x1fd7.7 (24)
0x1fc0|d3 01 00 00                                    |....            |          name: "_edata" (467) 0x1fc0-0x1fc3.7 (4)
0x1fc0|            10                                 |    .           |          bind: "global" (1) 0x1fc4-0x1fc4.3 (0.4)
0x1fc0|            10                                 |    .           |          type: "notype" (0) 0x1fc4.4-0x1fc4.7 (0.4)
0x1fc0|               00                              |     .          |          other_unused: 0 0x1fc5-0x1fc5.5 (0.6)
0x1fc0|               00                              |     .          |          visibility: "default" (0) 0x1fc5.6-0x1fc5.7 (0.2)
0x1fc0|                  12 00                        |      ..        |          shndx: 18 0x1fc6-0x1fc7.7 (2)
0x1fc0|                        08 10 01 00 00 00 00 00|        ........|          value: 69640 0x1fc8-0x1fcf.7 (8)
0x1fd0|00 00 00 00 00 00 00 00                        |........        |          size: 0 0x1fd0-0x1fd7.7 (8)
      |                                               |                |        [85]{}: symbol 0x1fd8-0x1fef.7 (24)
0x1fd0|                        da 01 00 00            |        ....    |          name: "_end" (474) 0x1fd8-0x1fdb.7 (4)
0x1fd0|                                    10         |            .   |          bind: "global" (1) 0x1fdc-0x1fdc.3 (0.4)
0x1fd0|                                    10         |            .   |          type: "notype" (0) 0x1fdc.4-0x1fdc.7 (0.4)
0x1fd0|                                       00      |             .  |          other_unused: 0 0x1fdd-0x1fdd.5 (0.6)
0x1fd0|                                       00      |             .  |          visibility: "default" (0) 0x1fdd.6-0x1fdd.7 (0.2)
0x1fd0|                                          13 00|              ..|          shndx: 19 0x1fde-0x1fdf.7 (2)
0x1fe0|40 10 01 00 00 00 00 00                        |@.......        |          value: 69696 0x1fe0-0x1fe7.7 (8)
0x1fe0|                        00 00 00 00 00 00 00 00|        ........|          size: 0 0x1fe8-0x1fef.7 (8)
      |                                               |                |        [86]{}: symbol 0x1ff0-0x2007.7 (24)
0x1ff0|df 01 00 00                                    |....            |          name: "libbbb_bbb" (479) 0x1ff0-0x1ff3.7 (4)
0x1ff0|            12                                 |    .           |          bind: "global" (1) 0x1ff4-0x1ff4.3 (0.4)
0x1ff0|            12                                 |    .           |          type: "func" (2) 0x1ff4.4-0x1ff4.7 (0.4)
0x1ff0|               00                              |     .          |          other_unused: 0 0x1ff5-0x1ff5.5 (0.6)
0x1ff0|               00                              |     .          |          visibility: "default" (0) 0x1ff5.6-0x1ff5.7 (0.2)
0x1ff0|                  00 00                        |      ..        |          shndx: 0 0x1ff6-0x1ff7.7 (2)
0x1ff0|                        00 00 00 00 00 00 00 00|        ........|          value: 0 0x1ff8-0x1fff.7 (8)
0x2000|00 00 00 00 00 00 00 00                        |........        |          size: 0 0x2000-0x2007.7 (8)
      |                                               |                |        [87]{}: symbol 0x2008-0x201f.7 (24)
0x2000|                        ea 01 00 00            |        ....    |          name: "__libc_start_main" (490) 0x2008-0x200b.7 (4)
0x2000|                                    12         |            .   |          bind: "global" (1) 0x200c-0x200c.3 (0.4)
0x2000|                                    12         |            .   |          type: "func" (2) 0x200c.4-0x200c.7 (0.4)
0x2000|                                       00      |             .  |          other_unused: 0 0x200d-0x200d.5 (0.6)
0x2000|                                       00      |             .  |          visibility: "default" (0) 0x200d.6-0x200d.7 (0.2)
0x2000|                                          00 00|              ..|          shndx: 0 0x200e-0x200f.7 (2)
0x2010|00 00 00 00 00 00 00 00                        |........        |          value: 0 0x2010-0x2017.7 (8)
0x2010|                        00 00 00 00 00 00 00 00|        ........|          size: 0 0x2018-0x201f.7 (8)
      |                                               |                |        [88]{}: symbol 0x2020-0x2037.7 (24)
0x2020|fc 01 00 00                                    |....            |          name: "__register_frame_info" (508) 0x2020-0x2023.7 (4)
0x2020|            20                                 |                |          bind: "weak" (2) 0x2024-0x2024.3 (0.4)
0x2020|            20                                 |                |          type: "notype" (0) 0x2024.4-0x2024.7 (0.4)
0x2020|               00                              |     .          |          other_unused: 0 0x2025-0x2025.5 (0.6)
0x2020|               00                              |     .          |          visibility: "default" (0) 0x2025.6-0x2025.7 (0.2)
0x2020|                  00 00                        |      ..        |          shndx: 0 0x2026-0x2027.7 (2)
0x2020|                        00 00 00 00 00 00 00 00|        ........|          value: 0 0x2028-0x202f.7 (8)
0x2030|00 00 00 00 00 00 00 00                        |........        |          size: 0 0x2030-0x2037.7 (8)
0x2ab0|01 00 00 00                                    |....            |      name: ".symtab" (1) 0x2ab0-0x2ab3.7 (4)
0x2ab0|            02 00 00 00                        |    ....        |      type: "symtab" (0x2) (Symbol table) 0x2ab4-0x2ab7.7 (4)
      |                                               |                |      flags{}: 0x2ab8-0x2abf.7 (8)
0x2ab0|                        00                     |        .       |        link_order: false 0x2ab8-0x2ab8 (0.1)
0x2ab0|                        00                     |        .       |        info_link: false 0x2ab8.1-0x2ab8.1 (0.1)
0x2ab0|                        00                     |        .       |        strings: false 0x2ab8.2-0x2ab8.2 (0.1)
0x2ab0|                        00                     |        .       |        merge: false 0x2ab8.3-0x2ab8.3 (0.1)
0x2ab0|                        00                     |        .       |        unused0: 0 0x2ab8.4-0x2ab8.4 (0.1)
0x2ab0|                        00                     |        .       |        execinstr: false 0x2ab8.5-0x2ab8.5 (0.1)
0x2ab0|                        00                     |        .       |        alloc: false 0x2ab8.6-0x2ab8.6 (0.1)
0x2ab0|                        00                     |        .       |        write: false 0x2ab8.7-0x2ab8.7 (0.1)
0x2ab0|                           00                  |         .      |        tls: false 0x2ab9-0x2ab9 (0.1)
0x2ab0|                           00                  |         .      |        group: false 0x2ab9.1-0x2ab9.1 (0.1)
0x2ab0|                           00                  |         .      |        os_nonconforming: false 0x2ab9.2-0x2ab9.2 (0.1)
0x2ab0|                           00 00               |         ..     |        unused1: 0 0x2ab9.3-0x2aba.3 (1.1)
0x2ab0|                              00 00            |          ..    |        os_specific: 0 0x2aba.4-0x2abb.3 (1)
0x2ab0|                                 00            |           .    |        processor_specific: 0 0x2abb.4-0x2abb.7 (0.4)
0x2ab0|                                    00 00 00 00|            ....|        unused2: 0 0x2abc-0x2abf.7 (4)
0x2ac0|00 00 00 00 00 00 00 00                        |........        |      addr: 0x0 0x2ac0-0x2ac7.7 (8)
0x2ac0|                        e0 17 00 00 00 00 00 00|        ........|      offset: 0x17e0 0x2ac8-0x2acf.7 (8)
0x2ad0|58 08 00 00 00 00 00 00                        |X.......        |      size: 2136 0x2ad0-0x2ad7.7 (8)
0x2ad0|                        1e 00 00 00            |        ....    |      link: 30 0x2ad8-0x2adb.7 (4)
0x2ad0|                                    42 00 00 00|            B...|      info: 66 0x2adc-0x2adf.7 (4)
0x2ae0|08 00 00 00 00 00 00 00                        |........        |      addralign: 8 0x2ae0-0x2ae7.7 (8)
0x2ae0|                        18 00 00 00 00 00 00 00|        ........|      entsize: 24 0x2ae8-0x2aef.7 (8)
      |                                               |                |    [30]{}: section_header 0x2038-0x2b2f.7 (2808)
0x2030|                        00 53 63 72 74 31 2e 63|        .Scrt1.c|      string: "\x00Scrt1.c\x00$x\x00crti.o\x00crtn.o\x00crtstuff.c\x00$d\x00__EH_FRAME"... 0x2038-0x2249.7 (530)
0x2040|00 24 78 00 63 72 74 69 2e 6f 00 63 72 74 6e 2e|.$x.crti.o.crtn.|
*     |until 0x2249.7 (530)                           |                |
0x2af0|09 00 00 00                                    |....            |      name: ".strtab" (9) 0x2af0-0x2af3.7 (4)
0x2af0|            03 00 00 00                        |    ....        |      type: "strtab" (0x3) (String table) 0x2af4-0x2af7.7 (4)
      |                                               |                |      flags{}: 0x2af8-0x2aff.7 (8)
0x2af0|                        00                     |        .       |        link_order: false 0x2af8-0x2af8 (0.1)
0x2af0|                        00                     |        .       |        info_link: false 0x2af8.1-0x2af8.1 (0.1)
0x2af0|                        00                     |        .       |        strings: false 0x2af8.2-0x2af8.2 (0.1)
0x2af0|                        00                     |        .       |        merge: false 0x2af8.3-0x2af8.3 (0.1)
0x2af0|                        00                     |        .       |        unused0: 0 0x2af8.4-0x2af8.4 (0.1)
0x2af0|                        00                     |        .       |        execinstr: false 0x2af8.5-0x2af8.5 (0.1)
0x2af0|                        00                     |        .       |        alloc: false 0x2af8.6-0x2af8.6 (0.1)
0x2af0|                        00                     |        .       |        write: false 0x2af8.7-0x2af8.7 (0.1)
0x2af0|                           00                  |         .      |        tls: false 0x2af9-0x2af9 (0.1)
0x2af0|                           00                  |         .      |        group: false 0x2af9.1-0x2af9.1 (0.1)
0x2af0|                           00                  |         .      |        os_nonconforming: false 0x2af9.2-0x2af9.2 (0.1)
0x2af0|                           00 00               |         ..     |        unused1: 0 0x2af9.3-0x2afa.3 (1.1)
0x2af0|                              00 00            |          ..    |        os_specific: 0 0x2afa.4-0x2afb.3 (1)
0x2af0|                                 00            |           .    |        processor_specific: 0 0x2afb.4-0x2afb.7 (0.4)
0x2af0|                                    00 00 00 00|            ....|        unused2: 0 0x2afc-0x2aff.7 (4)
0x2b00|00 00 00 00 00 00 00 00                        |........        |      addr: 0x0 0x2b00-0x2b07.7 (8)
0x2b00|                        38 20 00 00 00 00 00 00|        8 ......|      offset: 0x2038 0x2b08-0x2b0f.7 (8)
0x2b10|12 02 00 00 00 00 00 00                        |........        |      size: 530 0x2b10-0x2b17.7 (8)
0x2b10|                        00 00 00 00            |        ....    |      link: 0 0x2b18-0x2b1b.7 (4)
0x2b10|                                    00 00 00 00|            ....|      info: 0 0x2b1c-0x2b1f.7 (4)
0x2b20|01 00 00 00 00 00 00 00                        |........        |      addralign: 1 0x2b20-0x2b27.7 (8)
0x2b20|                        00 00 00 00 00 00 00 00|        ........|      entsize: 0 0x2b28-0x2b2f.7 (8)
      |                                               |                |    [31]{}: section_header 0x224a-0x2b6f.7 (2342)
0x2240|                              00 2e 73 79 6d 74|          ..symt|      string: "\x00.symtab\x00.strtab\x00.shstrtab\x00.interp\x00.gnu.hash\x00.dyns"... 0x224a-0x236c.7 (291)
0x2250|61 62 00 2e 73 74 72 74 61 62 00 2e 73 68 73 74|ab..strtab..shst|
*     |until 0x236c.7 (291)                           |                |
0x2b30|11 00 00 00                                    |....            |      name: ".shstrtab" (17) 0x2b30-0x2b33.7 (4)
0x2b30|            03 00 00 00                        |    ....        |      type: "strtab" (0x3) (String table) 0x2b34-0x2b37.7 (4)
      |                                               |                |      flags{}: 0x2b38-0x2b3f.7 (8)
0x2b30|                        00                     |        .       |        link_order: false 0x2b38-0x2b38 (0.1)
0x2b30|                        00                     |        .       |        info_link: false 0x2b38.1-0x2b38.1 (0.1)
0x2b30|                        00                     |        .       |        strings: false 0x2b38.2-0x2b38.2 (0.1)
0x2b30|                        00                     |        .       |        merge: false 0x2b38.3-0x2b38.3 (0.1)
0x2b30|                        00                     |        .       |        unused0: 0 0x2b38.4-0x2b38.4 (0.1)
0x2b30|                        00                     |        .       |        execinstr: false 0x2b38.5-0x2b38.5 (0.1)
0x2b30|                        00                     |        .       |        alloc: false 0x2b38.6-0x2b38.6 (0.1)
0x2b30|                        00                     |        .       |        write: false 0x2b38.7-0x2b38.7 (0.1)
0x2b30|                           00                  |         .      |        tls: false 0x2b39-0x2b39 (0.1)
0x2b30|                           00                  |         .      |        group: false 0x2b39.1-0x2b39.1 (0.1)
0x2b30|                           00                  |         .      |        os_nonconforming: false 0x2b39.2-0x2b39.2 (0.1)
0x2b30|                           00 00               |         ..     |        unused1: 0 0x2b39.3-0x2b3a.3 (1.1)
0x2b30|                              00 00            |          ..    |        os_specific: 0 0x2b3a.4-0x2b3b.3 (1)
0x2b30|                                 00            |           .    |        processor_specific: 0 0x2b3b.4-0x2b3b.7 (0.4)
0x2b30|                                    00 00 00 00|            ....|        unused2: 0 0x2b3c-0x2b3f.7 (4)
0x2b40|00 00 00 00 00 00 00 00                        |........        |      addr: 0x0 0x2b40-0x2b47.7 (8)
0x2b40|                        4a 22 00 00 00 00 00 00|        J"......|      offset: 0x224a 0x2b48-0x2b4f.7 (8)
0x2b50|23 01 00 00 00 00 00 00                        |#.......        |      size: 291 0x2b50-0x2b57.7 (8)
0x2b50|                        00 00 00 00            |        ....    |      link: 0 0x2b58-0x2b5b.7 (4)
0x2b50|                                    00 00 00 00|            ....|      info: 0 0x2b5c-0x2b5f.7 (4)
0x2b60|01 00 00 00 00 00 00 00                        |........        |      addralign: 1 0x2b60-0x2b67.7 (8)
0x2b60|                        00 00 00 00 00 00 00 00|        ........|      entsize: 0 0x2b68-0x2b6f.7 (8)
0x0910|            00 00 00 00 00 00 00 00 00 00 00 00|    ............|  unknown0: raw bits 0x914-0xd8f.7 (1148)
0x0920|00 00 00 00 00 00 00 00 00 00 00 00 00 00 00 00|................|
*     |until 0xd8f.7 (1148)                           |                |
0x1060|                              00 00 00 00 00 00|          ......|  unknown1: raw bits 0x106a-0x106f.7 (6)
0x1420|         00 00 00 00 00                        |   .....        |  unknown2: raw bits 0x1423-0x1427.7 (5)
0x2360|                                       00 00 00|             ...|  unknown3: raw bits 0x236d-0x236f.7 (3)
