$ fq -d elf dv a_stripped
      |00 01 02 03 04 05 06 07 08 09 0a 0b 0c 0d 0e 0f|0123456789abcdef|.{}: a_stripped (elf) 0x0-0x1668 (5736)
      |                                               |                |  header{}: 0x0-0x40 (64)
      |                                               |                |    ident{}: 0x0-0x10 (16)
0x0000|7f 45 4c 46                                    |.ELF            |      magic: raw bits (valid) 0x0-0x4 (4)
0x0000|            02                                 |    .           |      class: 64 (2) 0x4-0x5 (1)
0x0000|               01                              |     .          |      data: "little_endian" (1) 0x5-0x6 (1)
0x0000|                  01                           |      .         |      version: 1 0x6-0x7 (1)
0x0000|                     00                        |       .        |      os_abi: "sysv" (0) 0x7-0x8 (1)
0x0000|                        00                     |        .       |      abi_version: 0 0x8-0x9 (1)
0x0000|                           00 00 00 00 00 00 00|         .......|      pad: raw bits (all zero) 0x9-0x10 (7)
0x0010|03 00                                          |..              |    type: "dyn" (0x3) 0x10-0x12 (2)
0x0010|      b7 00                                    |  ..            |    machine: "arm64" (0xb7) (ARM 64-bits (ARMv8/Aarch64)) 0x12-0x14 (2)
0x0010|            01 00 00 00                        |    ....        |    version: 1 0x14-0x18 (4)
0x0010|                        70 06 00 00 00 00 00 00|        p.......|    entry: 1648 0x18-0x20 (8)
0x0020|40 00 00 00 00 00 00 00                        |@.......        |    phoff: 64 0x20-0x28 (8)
0x0020|                        e8 10 00 00 00 00 00 00|        ........|    shoff: 4328 0x28-0x30 (8)
0x0030|00 00 00 00                                    |....            |    flags: 0 0x30-0x34 (4)
0x0030|            40 00                              |    @.          |    ehsize: 64 0x34-0x36 (2)
0x0030|                  38 00                        |      8.        |    phentsize: 56 0x36-0x38 (2)
0x0030|                        08 00                  |        ..      |    phnum: 8 0x38-0x3a (2)
0x0030|                              40 00            |          @.    |    shentsize: 64 0x3a-0x3c (2)
0x0030|                                    16 00      |            ..  |    shnum: 22 0x3c-0x3e (2)
0x0030|                                          15 00|              ..|    shstrndx: 21 0x3e-0x40 (2)
      |                                               |                |  program_headers[0:8]: 0x0-0x1008 (4104)
      |                                               |                |    [0]{}: program_header 0x40-0x200 (448)
0x0040|06 00 00 00                                    |....            |      type: "phdr" (6) (Program header location and size) 0x40-0x44 (4)
0x0040|06 00 00 00 04 00 00 00 40 00 00 00 00 00 00 00|........@.......|      data: raw bits 0x40-0x200 (448)
*     |until 0x1ff.7 (448)                            |                |
      |                                               |                |      flags{}: 0x44-0x48 (4)
0x0040|            04                                 |    .           |        unused0: 0 0x44-0x44.5 (0.5)
0x0040|            04                                 |    .           |        r: true 0x44.5-0x44.6 (0.1)
0x0040|            04                                 |    .           |        w: false 0x44.6-0x44.7 (0.1)
0x0040|            04                                 |    .           |        x: false 0x44.7-0x45 (0.1)
0x0040|               00 00 00                        |     ...        |        unused1: 0 0x45-0x48 (3)
0x0040|                        40 00 00 00 00 00 00 00|        @.......|      offset: 0x40 0x48-0x50 (8)
0x0050|40 00 00 00 00 00 00 00                        |@.......        |      vaddr: 0x40 0x50-0x58 (8)
0x0050|                        40 00 00 00 00 00 00 00|        @.......|      paddr: 0x40 0x58-0x60 (8)
0x0060|c0 01 00 00 00 00 00 00                        |........        |      filesz: 448 0x60-0x68 (8)
0x0060|                        c0 01 00 00 00 00 00 00|        ........|      memsz: 448 0x68-0x70 (8)
0x0070|08 00 00 00 00 00 00 00                        |........        |      align: 8 0x70-0x78 (8)
      |                                               |                |    [1]{}: program_header 0x78-0x21a (418)
0x0070|                        03 00 00 00            |        ....    |      type: "interp" (3) (Interpreter to invoke) 0x78-0x7c (4)
      |                                               |                |      flags{}: 0x7c-0x80 (4)
0x0070|                                    04         |            .   |        unused0: 0 0x7c-0x7c.5 (0.5)
0x0070|                                    04         |            .   |        r: true 0x7c.5-0x7c.6 (0.1)
0x0070|                                    04         |            .   |        w: false 0x7c.6-0x7c.7 (0.1)
0x0070|                                    04         |            .   |        x: false 0x7c.7-0x7d (0.1)
0x0070|                                       00 00 00|             ...|        unused1: 0 0x7d-0x80 (3)
0x0080|00 02 00 00 00 00 00 00                        |........        |      offset: 0x200 0x80-0x88 (8)
0x0080|                        00 02 00 00 00 00 00 00|        ........|      vaddr: 0x200 0x88-0x90 (8)
0x0090|00 02 00 00 00 00 00 00                        |........        |      paddr: 0x200 0x90-0x98 (8)
0x0090|                        1a 00 00 00 00 00 00 00|        ........|      filesz: 26 0x98-0xa0 (8)
0x00a0|1a 00 00 00 00 00 00 00                        |........        |      memsz: 26 0xa0-0xa8 (8)
0x00a0|                        01 00 00 00 00 00 00 00|        ........|      align: 1 0xa8-0xb0 (8)
0x0200|2f 6c 69 62 2f 6c 64 2d 6d 75 73 6c 2d 61 61 72|/lib/ld-musl-aar|      data: raw bits 0x200-0x21a (26)
0x0210|63 68 36 34 2e 73 6f 2e 31 00                  |ch64.so.1.      |
      |                                               |                |    [2]{}: program_header 0x0-0x914 (2324)
0x0000|7f 45 4c 46 02 01 01 00 00 00 00 00 00 00 00 00|.ELF............|      data: raw bits 0x0-0x914 (2324)
*     |until 0x913.7 (2324)                           |                |
0x00b0|01 00 00 00                                    |....            |      type: "load" (1) (Loadable segment) 0xb0-0xb4 (4)
      |                                               |                |      flags{}: 0xb4-0xb8 (4)
0x00b0|            05                                 |    .           |        unused0: 0 0xb4-0xb4.5 (0.5)
0x00b0|            05                                 |    .           |        r: true 0xb4.5-0xb4.6 (0.1)
0x00b0|            05                                 |    .           |        w: false 0xb4.6-0xb4.7 (0.1)
0x00b0|            05                                 |    .           |        x: true 0xb4.7-0xb5 (0.1)
0x00b0|               00 00 00                        |     ...        |        unused1: 0 0xb5-0xb8 (3)
0x00b0|                        00 00 00 00 00 00 00 00|        ........|      offset: 0x0 0xb8-0xc0 (8)
0x00c0|00 00 00 00 00 00 00 00                        |........        |      vaddr: 0x0 0xc0-0xc8 (8)
0x00c0|                        00 00 00 00 00 00 00 00|        ........|      paddr: 0x0 0xc8-0xd0 (8)
0x00d0|14 09 00 00 00 00 00 00                        |........        |      filesz: 2324 0xd0-0xd8 (8)
0x00d0|                        14 09 00 00 00 00 00 00|        ........|      memsz: 2324 0xd8-0xe0 (8)
0x00e0|00 00 01 00 00 00 00 00                        |........        |      align: 65536 0xe0-0xe8 (8)
      |                                               |                |    [3]{}: program_header 0xe8-0x1008 (3872)
0x00e0|                        01 00 00 00            |        ....    |      type: "load" (1) (Loadable segment) 0xe8-0xec (4)
      |                                               |                |      flags{}: 0xec-0xf0 (4)
0x00e0|                                    06         |            .   |        unused0: 0 0xec-0xec.5 (0.5)
0x00e0|                                    06         |            .   |        r: true 0xec.5-0xec.6 (0.1)
0x00e0|                                    06         |            .   |        w: true 0xec.6-0xec.7 (0.1)
0x00e0|                                    06         |            .   |        x: false 0xec.7-0xed (0.1)
0x00e0|                                       00 00 00|             ...|        unused1: 0 0xed-0xf0 (3)
0x00f0|90 0d 00 00 00 00 00 00                        |........        |      offset: 0xd90 0xf0-0xf8 (8)
0x00f0|                        90 0d 01 00 00 00 00 00|        ........|      vaddr: 0x10d90 0xf8-0x100 (8)
0x0100|90 0d 01 00 00 00 00 00                        |........        |      paddr: 0x10d90 0x100-0x108 (8)
0x0100|                        78 02 00 00 00 00 00 00|        x.......|      filesz: 632 0x108-0x110 (8)
0x0110|b0 02 00 00 00 00 00 00                        |........        |      memsz: 688 0x110-0x118 (8)
0x0110|                        00 00 01 00 00 00 00 00|        ........|      align: 65536 0x118-0x120 (8)
0x0d90|90 07 00 00 00 00 00 00 30 07 00 00 00 00 00 00|........0.......|      data: raw bits 0xd90-0x1008 (632)
*     |until 0x1007.7 (632)                           |                |
      |                                               |                |    [4]{}: program_header 0x120-0xf70 (3664)
0x0120|02 00 00 00                                    |....            |      type: "dynamic" (2) (Dynamic linking information) 0x120-0x124 (4)
      |                                               |                |      flags{}: 0x124-0x128 (4)
0x0120|            06                                 |    .           |        unused0: 0 0x124-0x124.5 (0.5)
0x0120|            06                                 |    .           |        r: true 0x124.5-0x124.6 (0.1)
0x0120|            06                                 |    .           |        w: true 0x124.6-0x124.7 (0.1)
0x0120|            06                                 |    .           |        x: false 0x124.7-0x125 (0.1)
0x0120|               00 00 00                        |     ...        |        unused1: 0 0x125-0x128 (3)
0x0120|                        a0 0d 00 00 00 00 00 00|        ........|      offset: 0xda0 0x128-0x130 (8)
0x0130|a0 0d 01 00 00 00 00 00                        |........        |      vaddr: 0x10da0 0x130-0x138 (8)
0x0130|                        a0 0d 01 00 00 00 00 00|        ........|      paddr: 0x10da0 0x138-0x140 (8)
0x0140|d0 01 00 00 00 00 00 00                        |........        |      filesz: 464 0x140-0x148 (8)
0x0140|                        d0 01 00 00 00 00 00 00|        ........|      memsz: 464 0x148-0x150 (8)
0x0150|08 00 00 00 00 00 00 00                        |........        |      align: 8 0x150-0x158 (8)
0x0da0|01 00 00 00 00 00 00 00 a2 00 00 00 00 00 00 00|................|      data: raw bits 0xda0-0xf70 (464)
*     |until 0xf6f.7 (464)                            |                |
      |                                               |                |    [5]{}: program_header 0x158-0x850 (1784)
0x0150|                        50 e5 74 64            |        P.td    |      type: "gnu_eh_frame" (1685382480) (GNU frame unwind information) 0x158-0x15c (4)
      |                                               |                |      flags{}: 0x15c-0x160 (4)
0x0150|                                    04         |            .   |        unused0: 0 0x15c-0x15c.5 (0.5)
0x0150|                                    04         |            .   |        r: true 0x15c.5-0x15c.6 (0.1)
0x0150|                                    04         |            .   |        w: false 0x15c.6-0x15c.7 (0.1)
0x0150|                                    04         |            .   |        x: false 0x15c.7-0x15d (0.1)
0x0150|                                       00 00 00|             ...|        unused1: 0 0x15d-0x160 (3)
0x0160|14 08 00 00 00 00 00 00                        |........        |      offset: 0x814 0x160-0x168 (8)
0x0160|                        14 08 00 00 00 00 00 00|        ........|      vaddr: 0x814 0x168-0x170 (8)
0x0170|14 08 00 00 00 00 00 00                        |........        |      paddr: 0x814 0x170-0x178 (8)
0x0170|                        3c 00 00 00 00 00 00 00|        <.......|      filesz: 60 0x178-0x180 (8)
0x0180|3c 00 00 00 00 00 00 00                        |<.......        |      memsz: 60 0x180-0x188 (8)
0x0180|                        04 00 00 00 00 00 00 00|        ........|      align: 4 0x188-0x190 (8)
0x0810|            01 1b 03 3b 38 00 00 00 06 00 00 00|    ...;8.......|      data: raw bits 0x814-0x850 (60)
0x0820|ac fe ff ff 50 00 00 00 dc fe ff ff 64 00 00 00|....P.......d...|
*     |until 0x84f.7 (60)                             |                |
      |                                               |                |    [6]{}: program_header 0x0-0x1c8 (456)
      |                                               |                |      data: raw bits 0x0-0x0 (0)
0x0190|51 e5 74 64                                    |Q.td            |      type: "gnu_stack" (1685382481) (GNU stack permission) 0x190-0x194 (4)
      |                                               |                |      flags{}: 0x194-0x198 (4)
0x0190|            06                                 |    .           |        unused0: 0 0x194-0x194.5 (0.5)
0x0190|            06                                 |    .           |        r: true 0x194.5-0x194.6 (0.1)
0x0190|            06                                 |    .           |        w: true 0x194.6-0x194.7 (0.1)
0x0190|            06                                 |    .           |        x: false 0x194.7-0x195 (0.1)
0x0190|               00 00 00                        |     ...        |        unused1: 0 0x195-0x198 (3)
0x0190|                        00 00 00 00 00 00 00 00|        ........|      offset: 0x0 0x198-0x1a0 (8)
0x01a0|00 00 00 00 00 00 00 00                        |........        |      vaddr: 0x0 0x1a0-0x1a8 (8)
0x01a0|                        00 00 00 00 00 00 00 00|        ........|      paddr: 0x0 0x1a8-0x1b0 (8)
0x01b0|00 00 00 00 00 00 00 00                        |........        |      filesz: 0 0x1b0-0x1b8 (8)
0x01b0|                        00 00 00 00 00 00 00 00|        ........|      memsz: 0 0x1b8-0x1c0 (8)
0x01c0|10 00 00 00 00 00 00 00                        |........        |      align: 16 0x1c0-0x1c8 (8)
      |                                               |                |    [7]{}: program_header 0x1c8-0x1000 (3640)
0x01c0|                        52 e5 74 64            |        R.td    |      type: "gnu_relro" (1685382482) (GNU read-only after relocation) 0x1c8-0x1cc (4)
      |                                               |                |      flags{}: 0x1cc-0x1d0 (4)
0x01c0|                                    04         |            .   |        unused0: 0 0x1cc-0x1cc.5 (0.5)
0x01c0|                                    04         |            .   |        r: true 0x1cc.5-0x1cc.6 (0.1)
0x01c0|                                    04         |            .   |        w: false 0x1cc.6-0x1cc.7 (0.1)
0x01c0|                                    04         |            .   |        x: false 0x1cc.7-0x1cd (0.1)
0x01c0|                                       00 00 00|             ...|        unused1: 0 0x1cd-0x1d0 (3)
0x01d0|90 0d 00 00 00 00 00 00                        |........        |      offset: 0xd90 0x1d0-0x1d8 (8)
0x01d0|                        90 0d 01 00 00 00 00 00|        ........|      vaddr: 0x10d90 0x1d8-0x1e0 (8)
0x01e0|90 0d 01 00 00 00 00 00                        |........        |      paddr: 0x10d90 0x1e0-0x1e8 (8)
0x01e0|                        70 02 00 00 00 00 00 00|        p.......|      filesz: 624 0x1e8-0x1f0 (8)
0x01f0|70 02 00 00 00 00 00 00                        |p.......        |      memsz: 624 0x1f0-0x1f8 (8)
0x01f0|                        01 00 00 00 00 00 00 00|        ........|      align: 1 0x1f8-0x200 (8)
0x0d90|90 07 00 00 00 00 00 00 30 07 00 00 00 00 00 00|........0.......|      data: raw bits 0xd90-0x1000 (624)
*     |until 0xfff.7 (624)                            |                |
      |                                               |                |  section_headers[0:22]: 0x200-0x1668 (5224)
      |                                               |                |    [0]{}: section_header 0x10e8-0x1128 (64)
0x10e0|                        00 00 00 00            |        ....    |      name: "" (0) 0x10e8-0x10ec (4)
0x10e0|                                    00 00 00 00|            ....|      type: "null" (0x0) (Header inactive) 0x10ec-0x10f0 (4)
      |                                               |                |      flags{}: 0x10f0-0x10f8 (8)
0x10f0|00                                             |.               |        link_order: false 0x10f0-0x10f0.1 (0.1)
0x10f0|00                                             |.               |        info_link: false 0x10f0.1-0x10f0.2 (0.1)
0x10f0|00                                             |.               |        strings: false 0x10f0.2-0x10f0.3 (0.1)
0x10f0|00                                             |.               |        merge: false 0x10f0.3-0x10f0.4 (0.1)
0x10f0|00                                             |.               |        unused0: 0 0x10f0.4-0x10f0.5 (0.1)
0x10f0|00                                             |.               |        execinstr: false 0x10f0.5-0x10f0.6 (0.1)
0x10f0|00                                             |.               |        alloc: false 0x10f0.6-0x10f0.7 (0.1)
0x10f0|00                                             |.               |        write: false 0x10f0.7-0x10f1 (0.1)
0x10f0|   00                                          | .              |        tls: false 0x10f1-0x10f1.1 (0.1)
0x10f0|   00                                          | .              |        group: false 0x10f1.1-0x10f1.2 (0.1)
0x10f0|   00                                          | .              |        os_nonconforming: false 0x10f1.2-0x10f1.3 (0.1)
0x10f0|   00 00                                       | ..             |        unused1: 0 0x10f1.3-0x10f2.4 (1.1)
0x10f0|      00 00                                    |  ..            |        os_specific: 0 0x10f2.4-0x10f3.4 (1)
0x10f0|         00                                    |   .            |        processor_specific: 0 0x10f3.4-0x10f4 (0.4)
0x10f0|            00 00 00 00                        |    ....        |        unused2: 0 0x10f4-0x10f8 (4)
0x10f0|                        00 00 00 00 00 00 00 00|        ........|      addr: 0x0 0x10f8-0x1100 (8)
0x1100|00 00 00 00 00 00 00 00                        |........        |      offset: 0x0 0x1100-0x1108 (8)
0x1100|                        00 00 00 00 00 00 00 00|        ........|      size: 0 0x1108-0x1110 (8)
0x1110|00 00 00 00                                    |....            |      link: 0 0x1110-0x1114 (4)
0x1110|            00 00 00 00                        |    ....        |      info: 0 0x1114-0x1118 (4)
0x1110|                        00 00 00 00 00 00 00 00|        ........|      addralign: 0 0x1118-0x1120 (8)
0x1120|00 00 00 00 00 00 00 00                        |........        |      entsize: 0 0x1120-0x1128 (8)
      |                                               |                |    [1]{}: section_header 0x200-0x1168 (3944)
0x0200|2f 6c 69 62 2f 6c 64 2d 6d 75 73 6c 2d 61 61 72|/lib/ld-musl-aar|      data: raw bits 0x200-0x21a (26)
0x0210|63 68 36 34 2e 73 6f 2e 31 00                  |ch64.so.1.      |
0x1120|                        0b 00 00 00            |        ....    |      name: ".interp" (11) 0x1128-0x112c (4)
0x1120|                                    01 00 00 00|            ....|      type: "progbits" (0x1) (Information defined by the program) 0x112c-0x1130 (4)
      |                                               |                |      flags{}: 0x1130-0x1138 (8)
0x1130|02                                             |.               |        link_order: false 0x1130-0x1130.1 (0.1)
0x1130|02                                             |.               |        info_link: false 0x1130.1-0x1130.2 (0.1)
0x1130|02                                             |.               |        strings: false 0x1130.2-0x1130.3 (0.1)
0x1130|02                                             |.               |        merge: false 0x1130.3-0x1130.4 (0.1)
0x1130|02                                             |.               |        unused0: 0 0x1130.4-0x1130.5 (0.1)
0x1130|02                                             |.               |        execinstr: false 0x1130.5-0x1130.6 (0.1)
0x1130|02                                             |.               |        alloc: true 0x1130.6-0x1130.7 (0.1)
0x1130|02                                             |.               |        write: false 0x1130.7-0x1131 (0.1)
0x1130|   00                                          | .              |        tls: false 0x1131-0x1131.1 (0.1)
0x1130|   00                                          | .              |        group: false 0x1131.1-0x1131.2 (0.1)
0x1130|   00                                          | .              |        os_nonconforming: false 0x1131.2-0x1131.3 (0.1)
0x1130|   00 00                                       | ..             |        unused1: 0 0x1131.3-0x1132.4 (1.1)
0x1130|      00 00                                    |  ..            |        os_specific: 0 0x1132.4-0x1133.4 (1)
0x1130|         00                                    |   .            |        processor_specific: 0 0x1133.4-0x1134 (0.4)
0x1130|            00 00 00 00                        |    ....        |        unused2: 0 0x1134-0x1138 (4)
0x1130|                        00 02 00 00 00 00 00 00|        ........|      addr: 0x200 0x1138-0x1140 (8)
0x1140|00 02 00 00 00 00 00 00                        |........        |      offset: 0x200 0x1140-0x1148 (8)
0x1140|                        1a 00 00 00 00 00 00 00|        ........|      size: 26 0x1148-0x1150 (8)
0x1150|00 00 00 00                                    |....            |      link: 0 0x1150-0x1154 (4)
0x1150|            00 00 00 00                        |    ....        |      info: 0 0x1154-0x1158 (4)
0x1150|                        01 00 00 00 00 00 00 00|        ........|      addralign: 1 0x1158-0x1160 (8)
0x1160|00 00 00 00 00 00 00 00                        |........        |      entsize: 0 0x1160-0x1168 (8)
      |                                               |                |    [2]{}: section_header 0x220-0x11a8 (3976)
      |                                               |                |      gnu_hash{}: 0x220-0x248 (40)
0x0220|02 00 00 00                                    |....            |        nbuckets: 2 0x220-0x224 (4)
0x0220|            0b 00 00 00                        |    ....        |        symndx: 11 0x224-0x228 (4)
0x0220|                        01 00 00 00            |        ....    |        maskwords: 1 0x228-0x22c (4)
0x0220|                                    06 00 00 00|            ....|        shift2: 6 0x22c-0x230 (4)
      |                                               |                |        bloom_filter[0:1]: 0x230-0x238 (8)
0x0230|00 80 00 00 00 04 40 01                        |......@.        |          [0]: 90076390593953792 maskword 0x230-0x238 (8)
      |                                               |                |        buckets[0:2]: 0x238-0x240 (8)
0x0230|                        0b 00 00 00            |        ....    |          [0]: 11 bucket 0x238-0x23c (4)
0x0230|                                    00 00 00 00|            ....|          [1]: 0 bucket 0x23c-0x240 (4)
      |                                               |                |        values[0:2]: 0x240-0x248 (8)
0x0240|b8 8d f1 0e                                    |....            |          [0]: 250711480 value 0x240-0x244 (4)
0x0240|            eb d3 ef 0e                        |    ....        |          [1]: 250598379 value 0x244-0x248 (4)
0x1160|                        13 00 00 00            |        ....    |      name: ".gnu.hash" (19) 0x1168-0x116c (4)
0x1160|                                    f6 ff ff 6f|            ...o|      type: "gnu_hash" (0x6ffffff6) (GNU symbol hash table) 0x116c-0x1170 (4)
      |                                               |                |      flags{}: 0x1170-0x1178 (8)
0x1170|02                                             |.               |        link_order: false 0x1170-0x1170.1 (0.1)
0x1170|02                                             |.               |        info_link: false 0x1170.1-0x1170.2 (0.1)
0x1170|02                                             |.               |        strings: false 0x1170.2-0x1170.3 (0.1)
0x1170|02                                             |.               |        merge: false 0x1170.3-0x1170.4 (0.1)
0x1170|02                                             |.               |        unused0: 0 0x1170.4-0x1170.5 (0.1)
0x1170|02                                             |.               |        execinstr: false 0x1170.5-0x1170.6 (0.1)
0x1170|02                                             |.               |        alloc: true 0x1170.6-0x1170.7 (0.1)
0x1170|02                                             |.               |        write: false 0x1170.7-0x1171 (0.1)
0x1170|   00                                          | .              |        tls: false 0x1171-0x1171.1 (0.1)
0x1170|   00                                          | .              |        group: false 0x1171.1-0x1171.2 (0.1)
0x1170|   00                                          | .              |        os_nonconforming: false 0x1171.2-0x1171.3 (0.1)
0x1170|   00 00                                       | ..             |        unused1: 0 0x1171.3-0x1172.4 (1.1)
0x1170|      00 00                                    |  ..            |        os_specific: 0 0x1172.4-0x1173.4 (1)
0x1170|         00                                    |   .            |        processor_specific: 0 0x1173.4-0x1174 (0.4)
0x1170|            00 00 00 00                        |    ....        |        unused2: 0 0x1174-0x1178 (4)
0x1170|                        20 02 00 00 00 00 00 00|         .......|      addr: 0x220 0x1178-0x1180 (8)
0x1180|20 02 00 00 00 00 00 00                        | .......        |      offset: 0x220 0x1180-0x1188 (8)
0x1180|                        28 00 00 00 00 00 00 00|        (.......|      size: 40 0x1188-0x1190 (8)
0x1190|03 00 00 00                                    |....            |      link: 3 0x1190-0x1194 (4)
0x1190|            00 00 00 00                        |    ....        |      info: 0 0x1194-0x1198 (4)
0x1190|                        08 00 00 00 00 00 00 00|        ........|      addralign: 8 0x1198-0x11a0 (8)
0x11a0|00 00 00 00 00 00 00 00                        |........        |      entsize: 0 0x11a0-0x11a8 (8)
      |                                               |                |    [3]{}: section_header 0x248-0x11e8 (4000)
      |                                               |                |      symbol_table[0:13]: 0x248-0x380 (312)
      |                                               |                |        [0]{}: symbol 0x248-0x260 (24)
0x0240|                        00 00 00 00            |        ....    |          name: "" (0) 0x248-0x24c (4)
0x0240|                                    00         |            .   |          bind: "local" (0) 0x24c-0x24c.4 (0.4)
0x0240|                                    00         |            .   |          type: "notype" (0) 0x24c.4-0x24d (0.4)
0x0240|                                       00      |             .  |          other_unused: 0 0x24d-0x24d.6 (0.6)
0x0240|                                       00      |             .  |          visibility: "default" (0) 0x24d.6-0x24e (0.2)
0x0240|                                          00 00|              ..|          shndx: 0 0x24e-0x250 (2)
0x0250|00 00 00 00 00 00 00 00                        |........        |          value: 0 0x250-0x258 (8)
0x0250|                        00 00 00 00 00 00 00 00|        ........|          size: 0 0x258-0x260 (8)
      |                                               |                |        [1]{}: symbol 0x260-0x278 (24)
0x0260|00 00 00 00                                    |....            |          name: "" (0) 0x260-0x264 (4)
0x0260|            03                                 |    .           |          bind: "local" (0) 0x264-0x264.4 (0.4)
0x0260|            03                                 |    .           |          type: "section" (3) 0x264.4-0x265 (0.4)
0x0260|               00                              |     .          |          other_unused: 0 0x265-0x265.6 (0.6)
0x0260|               00                              |     .          |          visibility: "default" (0) 0x265.6-0x266 (0.2)
0x0260|                  07 00                        |      ..        |          shndx: 7 0x266-0x268 (2)
0x0260|                        e0 05 00 00 00 00 00 00|        ........|          value: 1504 0x268-0x270 (8)
0x0270|00 00 00 00 00 00 00 00                        |........        |          size: 0 0x270-0x278 (8)
      |                                               |                |        [2]{}: symbol 0x278-0x290 (24)
0x0270|                        00 00 00 00            |        ....    |          name: "" (0) 0x278-0x27c (4)
0x0270|                                    03         |            .   |          bind: "local" (0) 0x27c-0x27c.4 (0.4)
0x0270|                                    03         |            .   |          type: "section" (3) 0x27c.4-0x27d (0.4)
0x0270|                                       00      |             .  |          other_unused: 0 0x27d-0x27d.6 (0.6)
0x0270|                                       00      |             .  |          visibility: "default" (0) 0x27d.6-0x27e (0.2)
0x0270|                                          12 00|              ..|          shndx: 18 0x27e-0x280 (2)
0x0280|00 10 01 00 00 00 00 00                        |........        |          value: 69632 0x280-0x288 (8)
0x0280|                        00 00 00 00 00 00 00 00|        ........|          size: 0 0x288-0x290 (8)
      |                                               |                |        [3]{}: symbol 0x290-0x2a8 (24)
0x0290|01 00 00 00                                    |....            |          name: "puts" (1) 0x290-0x294 (4)
0x0290|            12                                 |    .           |          bind: "global" (1) 0x294-0x294.4 (0.4)
0x0290|            12                                 |    .           |          type: "func" (2) 0x294.4-0x295 (0.4)
0x0290|               00                              |     .          |          other_unused: 0 0x295-0x295.6 (0.6)
0x0290|               00                              |     .          |          visibility: "default" (0) 0x295.6-0x296 (0.2)
0x0290|                  00 00                        |      ..        |          shndx: 0 0x296-0x298 (2)
0x0290|                        00 00 00 00 00 00 00 00|        ........|          value: 0 0x298-0x2a0 (8)
0x02a0|00 00 00 00 00 00 00 00                        |........        |          size: 0 0x2a0-0x2a8 (8)
      |                                               |                |        [4]{}: symbol 0x2a8-0x2c0 (24)
0x02a0|                        06 00 00 00            |        ....    |          name: "__cxa_finalize" (6) 0x2a8-0x2ac (4)
0x02a0|                                    22         |            "   |          bind: "weak" (2) 0x2ac-0x2ac.4 (0.4)
0x02a0|                                    22         |            "   |          type: "func" (2) 0x2ac.4-0x2ad (0.4)
0x02a0|                                       00      |             .  |          other_unused: 0 0x2ad-0x2ad.6 (0.6)
0x02a0|                                       00      |             .  |          visibility: "default" (0) 0x2ad.6-0x2ae (0.2)
0x02a0|                                          00 00|              ..|          shndx: 0 0x2ae-0x2b0 (2)
0x02b0|00 00 00 00 00 00 00 00                        |........        |          value: 0 0x2b0-0x2b8 (8)
0x02b0|                        00 00 00 00 00 00 00 00|        ........|          size: 0 0x2b8-0x2c0 (8)
      |                                               |                |        [5]{}: symbol 0x2c0-0x2d8 (24)
0x02c0|15 00 00 00                                    |....            |          name: "__deregister_frame_info" (21) 0x2c0-0x2c4 (4)
0x02c0|            20                                 |                |          bind: "weak" (2) 0x2c4-0x2c4.4 (0.4)
0x02c0|            20                                 |                |          type: "notype" (0) 0x2c4.4-0x2c5 (0.4)
0x02c0|               00                              |     .          |          other_unused: 0 0x2c5-0x2c5.6 (0.6)
0x02c0|               00                              |     .          |          visibility: "default" (0) 0x2c5.6-0x2c6 (0.2)
0x02c0|                  00 00                        |      ..        |          shndx: 0 0x2c6-0x2c8 (2)
0x02c0|                        00 00 00 00 00 00 00 00|        ........|          value: 0 0x2c8-0x2d0 (8)
0x02d0|00 00 00 00 00 00 00 00                        |........        |          size: 0 0x2d0-0x2d8 (8)
      |                                               |                |        [6]{}: symbol 0x2d8-0x2f0 (24)
0x02d0|                        2d 00 00 00            |        -...    |          name: "_ITM_registerTMCloneTable" (45) 0x2d8-0x2dc (4)
0x02d0|                                    20         |                |          bind: "weak" (2) 0x2dc-0x2dc.4 (0.4)
0x02d0|                                    20         |                |          type: "notype" (0) 0x2dc.4-0x2dd (0.4)
0x02d0|                                       00      |             .  |          other_unused: 0 0x2dd-0x2dd.6 (0.6)
0x02d0|                                       00      |             .  |          visibility: "default" (0) 0x2dd.6-0x2de (0.2)
0x02d0|                                          00 00|              ..|          shndx: 0 0x2de-0x2e0 (2)
0x02e0|00 00 00 00 00 00 00 00                        |........        |          value: 0 0x2e0-0x2e8 (8)
0x02e0|                        00 00 00 00 00 00 00 00|        ........|          size: 0 0x2e8-0x2f0 (8)
      |                                               |                |        [7]{}: symbol 0x2f0-0x308 (24)
0x02f0|47 00 00 00                                    |G...            |          name: "_ITM_deregisterTMCloneTable" (71) 0x2f0-0x2f4 (4)
0x02f0|            20                                 |                |          bind: "weak" (2) 0x2f4-0x2f4.4 (0.4)
0x02f0|            20                                 |                |          type: "notype" (0) 0x2f4.4-0x2f5 (0.4)
0x02f0|               00                              |     .          |          other_unused: 0 0x2f5-0x2f5.6 (0.6)
0x02f0|               00                              |     .          |          visibility: "default" (0) 0x2f5.6-0x2f6 (0.2)
0x02f0|                  00 00                        |      ..        |          shndx: 0 0x2f6-0x2f8 (2)
0x02f0|                        00 00 00 00 00 00 00 00|        ........|          value: 0 0x2f8-0x300 (8)
0x0300|00 00 00 00 00 00 00 00                        |........        |          size: 0 0x300-0x308 (8)
      |                                               |                |        [8]{}: symbol 0x308-0x320 (24)
0x0300|                        85 00 00 00            |        ....    |          name: "libbbb_bbb" (133) 0x308-0x30c (4)
0x0300|                                    12         |            .   |          bind: "global" (1) 0x30c-0x30c.4 (0.4)
0x0300|                                    12         |            .   |          type: "func" (2) 0x30c.4-0x30d (0.4)
0x0300|                                       00      |             .  |          other_unused: 0 0x30d-0x30d.6 (0.6)
0x0300|                                       00      |             .  |          visibility: "default" (0) 0x30d.6-0x30e (0.2)
0x0300|                                          00 00|              ..|          shndx: 0 0x30e-0x310 (2)
0x0310|00 00 00 00 00 00 00 00                        |........        |          value: 0 0x310-0x318 (8)
0x0310|                        00 00 00 00 00 00 00 00|        ........|          size: 0 0x318-0x320 (8)
      |                                               |                |        [9]{}: symbol 0x320-0x338 (24)
0x0320|90 00 00 00                                    |....            |          name: "__libc_start_main" (144) 0x320-0x324 (4)
0x0320|            12                                 |    .           |          bind: "global" (1) 0x324-0x324.4 (0.4)
0x0320|            12                                 |    .           |          type: "func" (2) 0x324.4-0x325 (0.4)
0x0320|               00                              |     .          |          other_unused: 0 0x325-0x325.6 (0.6)
0x0320|               00                              |     .          |          visibility: "default" (0) 0x325.6-0x326 (0.2)
0x0320|                  00 00                        |      ..        |          shndx: 0 0x326-0x328 (2)
0x0320|                        00 00 00 00 00 00 00 00|        ........|          value: 0 0x328-0x330 (8)
0x0330|00 00 00 00 00 00 00 00                        |........        |          size: 0 0x330-0x338 (8)
      |                                               |                |        [10]{}: symbol 0x338-0x350 (24)
0x0330|                        63 00 00 00            |        c...    |          name: "__register_frame_info" (99) 0x338-0x33c (4)
0x0330|                                    20         |                |          bind: "weak" (2) 0x33c-0x33c.4 (0.4)
0x0330|                                    20         |                |          type: "notype" (0) 0x33c.4-0x33d (0.4)
0x0330|                                       00      |             .  |          other_unused: 0 0x33d-0x33d.6 (0.6)
0x0330|                                       00      |             .  |          visibility: "default" (0) 0x33d.6-0x33e (0.2)
0x0330|                                          00 00|              ..|          shndx: 0 0x33e-0x340 (2)
0x0340|00 00 00 00 00 00 00 00                        |........        |          value: 0 0x340-0x348 (8)
0x0340|                        00 00 00 00 00 00 00 00|        ........|          size: 0 0x348-0x350 (8)
      |                                               |                |        [11]{}: symbol 0x350-0x368 (24)
0x0350|79 00 00 00                                    |y...            |          name: "_init" (121) 0x350-0x354 (4)
0x0350|            12                                 |    .           |          bind: "global" (1) 0x354-0x354.4 (0.4)
0x0350|            12                                 |    .           |          type: "func" (2) 0x354.4-0x355 (0.4)
0x0350|               00                              |     .          |          other_unused: 0 0x355-0x355.6 (0.6)
0x0350|               00                              |     .          |          visibility: "default" (0) 0x355.6-0x356 (0.2)
0x0350|                  07 00                        |      ..        |          shndx: 7 0x356-0x358 (2)
0x0350|                        e0 05 00 00 00 00 00 00|        ........|          value: 1504 0x358-0x360 (8)
0x0360|04 00 00 00 00 00 00 00                        |........        |          size: 4 0x360-0x368 (8)
      |                                               |                |        [12]{}: symbol 0x368-0x380 (24)
0x0360|                        7f 00 00 00            |        ....    |          name: "_fini" (127) 0x368-0x36c (4)
0x0360|                                    12         |            .   |          bind: "global" (1) 0x36c-0x36c.4 (0.4)
0x0360|                                    12         |            .   |          type: "func" (2) 0x36c.4-0x36d (0.4)
0x0360|                                       00      |             .  |          other_unused: 0 0x36d-0x36d.6 (0.6)
0x0360|                                       00      |             .  |          visibility: "default" (0) 0x36d.6-0x36e (0.2)
0x0360|                                          0a 00|              ..|          shndx: 10 0x36e-0x370 (2)
0x0370|00 08 00 00 00 00 00 00                        |........        |          value: 2048 0x370-0x378 (8)
0x0370|                        04 00 00 00 00 00 00 00|        ........|          size: 4 0x378-0x380 (8)
0x11a0|                        1d 00 00 00            |        ....    |      name: ".dynsym" (29) 0x11a8-0x11ac (4)
0x11a0|                                    0b 00 00 00|            ....|      type: "dynsym" (0xb) (Dynamic linking symbol table) 0x11ac-0x11b0 (4)
      |                                               |                |      flags{}: 0x11b0-0x11b8 (8)
0x11b0|02                                             |.               |        link_order: false 0x11b0-0x11b0.1 (0.1)
0x11b0|02                                             |.               |        info_link: false 0x11b0.1-0x11b0.2 (0.1)
0x11b0|02                                             |.               |        strings: false 0x11b0.2-0x11b0.3 (0.1)
0x11b0|02                                             |.               |        merge: false 0x11b0.3-0x11b0.4 (0.1)
0x11b0|02                                             |.               |        unused0: 0 0x11b0.4-0x11b0.5 (0.1)
0x11b0|02                                             |.               |        execinstr: false 0x11b0.5-0x11b0.6 (0.1)
0x11b0|02                                             |.               |        alloc: true 0x11b0.6-0x11b0.7 (0.1)
0x11b0|02                                             |.               |        write: false 0x11b0.7-0x11b1 (0.1)
0x11b0|   00                                          | .              |        tls: false 0x11b1-0x11b1.1 (0.1)
0x11b0|   00                                          | .              |        group: false 0x11b1.1-0x11b1.2 (0.1)
0x11b0|   00                                          | .              |        os_nonconforming: false 0x11b1.2-0x11b1.3 (0.1)
0x11b0|   00 00                                       | ..             |        unused1: 0 0x11b1.3-0x11b2.4 (1.1)
0x11b0|      00 00                                    |  ..            |        os_specific: 0 0x11b2.4-0x11b3.4 (1)
0x11b0|         00                                    |   .            |        processor_specific: 0 0x11b3.4-0x11b4 (0.4)
0x11b0|            00 00 00 00                        |    ....        |        unused2: 0 0x11b4-0x11b8 (4)
0x11b0|                        48 02 00 00 00 00 00 00|        H.......|      addr: 0x248 0x11b8-0x11c0 (8)
0x11c0|48 02 00 00 00 00 00 00                        |H.......        |      offset: 0x248 0x11c0-0x11c8 (8)
0x11c0|                        38 01 00 00 00 00 00 00|        8.......|      size: 312 0x11c8-0x11d0 (8)
0x11d0|04 00 00 00                                    |....            |      link: 4 0x11d0-0x11d4 (4)
0x11d0|            03 00 00 00                        |    ....        |      info: 3 0x11d4-0x11d8 (4)
0x11d0|                        08 00 00 00 00 00 00 00|        ........|      addralign: 8 0x11d8-0x11e0 (8)
0x11e0|18 00 00 00 00 00 00 00                        |........        |      entsize: 24 0x11e0-0x11e8 (8)
      |                                               |                |    [4]{}: section_header 0x380-0x1228 (3752)
0x0380|00 70 75 74 73 00 5f 5f 63 78 61 5f 66 69 6e 61|.puts.__cxa_fina|      string: "\x00puts\x00__cxa_finalize\x00__deregister_frame_info\x00_ITM_registerTMCloneTable\x00_ITM_deregisterTMCloneTable\x00__register_frame_info\x00_init\x00_fini\x00libbbb_bbb\x00__libc_start_main\x00libbbb.so\x00libc.musl-aarch64.so.1\x00" 0x380-0x443 (195)
*     |until 0x442.7 (195)                            |                |
0x11e0|                        25 00 00 00            |        %...    |      name: ".dynstr" (37) 0x11e8-0x11ec (4)
0x11e0|                                    03 00 00 00|            ....|      type: "strtab" (0x3) (String table) 0x11ec-0x11f0 (4)
      |                                               |                |      flags{}: 0x11f0-0x11f8 (8)
0x11f0|02                                             |.               |        link_order: false 0x11f0-0x11f0.1 (0.1)
0x11f0|02                                             |.               |        info_link: false 0x11f0.1-0x11f0.2 (0.1)
0x11f0|02                                             |.               |        strings: false 0x11f0.2-0x11f0.3 (0.1)
0x11f0|02                                             |.               |        merge: false 0x11f0.3-0x11f0.4 (0.1)
0x11f0|02                                             |.               |        unused0: 0 0x11f0.4-0x11f0.5 (0.1)
0x11f0|02                                             |.               |        execinstr: false 0x11f0.5-0x11f0.6 (0.1)
0x11f0|02                                             |.               |        alloc: true 0x11f0.6-0x11f0.7 (0.1)
0x11f0|02                                             |.               |        write: false 0x11f0.7-0x11f1 (0.1)
0x11f0|   00                                          | .              |        tls: false 0x11f1-0x11f1.1 (0.1)
0x11f0|   00                                          | .              |        group: false 0x11f1.1-0x11f1.2 (0.1)
0x11f0|   00                                          | .              |        os_nonconforming: false 0x11f1.2-0x11f1.3 (0.1)
0x11f0|   00 00                                       | ..             |        unused1: 0 0x11f1.3-0x11f2.4 (1.1)
0x11f0|      00 00                                    |  ..            |        os_specific: 0 0x11f2.4-0x11f3.4 (1)
0x11f0|         00                                    |   .            |        processor_specific: 0 0x11f3.4-0x11f4 (0.4)
0x11f0|            00 00 00 00                        |    ....        |        unused2: 0 0x11f4-0x11f8 (4)
0x11f0|                        80 03 00 00 00 00 00 00|        ........|      addr: 0x380 0x11f8-0x1200 (8)
0x1200|80 03 00 00 00 00 00 00                        |........        |      offset: 0x380 0x1200-0x1208 (8)
0x1200|                        c3 00 00 00 00 00 00 00|        ........|      size: 195 0x1208-0x1210 (8)
0x1210|00 00 00 00                                    |....            |      link: 0 0x1210-0x1214 (4)
0x1210|            00 00 00 00                        |    ....        |      info: 0 0x1214-0x1218 (4)
0x1210|                        01 00 00 00 00 00 00 00|        ........|      addralign: 1 0x1218-0x1220 (8)
0x1220|00 00 00 00 00 00 00 00                        |........        |      entsize: 0 0x1220-0x1228 (8)
      |                                               |                |    [5]{}: section_header 0x448-0x1268 (3616)
0x0440|                        90 0d 01 00 00 00 00 00|        ........|      data: raw bits 0x448-0x550 (264)
0x0450|03 04 00 00 00 00 00 00 90 07 00 00 00 00 00 00|................|
*     |until 0x54f.7 (264)                            |                |
0x1220|                        2d 00 00 00            |        -...    |      name: ".rela.dyn" (45) 0x1228-0x122c (4)
0x1220|                                    04 00 00 00|            ....|      type: "rela" (0x4) (Relocation entries with explicit addends) 0x122c-0x1230 (4)
      |                                               |                |      flags{}: 0x1230-0x1238 (8)
0x1230|02                                             |.               |        link_order: false 0x1230-0x1230.1 (0.1)
0x1230|02                                             |.               |        info_link: false 0x1230.1-0x1230.2 (0.1)
0x1230|02                                             |.               |        strings: false 0x1230.2-0x1230.3 (0.1)
0x1230|02                                             |.               |        merge: false 0x1230.3-0x1230.4 (0.1)
0x1230|02                                             |.               |        unused0: 0 0x1230.4-0x1230.5 (0.1)
0x1230|02                                             |.               |        execinstr: false 0x1230.5-0x1230.6 (0.1)
0x1230|02                                             |.               |        alloc: true 0x1230.6-0x1230.7 (0.1)
0x1230|02                                             |.               |        write: false 0x1230.7-0x1231 (0.1)
0x1230|   00                                          | .              |        tls: false 0x1231-0x1231.1 (0.1)
0x1230|   00                                          | .              |        group: false 0x1231.1-0x1231.2 (0.1)
0x1230|   00                                          | .              |        os_nonconforming: false 0x1231.2-0x1231.3 (0.1)
0x1230|   00 00                                       | ..             |        unused1: 0 0x1231.3-0x1232.4 (1.1)
0x1230|      00 00                                    |  ..            |        os_specific: 0 0x1232.4-0x1233.4 (1)
0x1230|         00                                    |   .            |        processor_specific: 0 0x1233.4-0x1234 (0.4)
0x1230|            00 00 00 00                        |    ....        |        unused2: 0 0x1234-0x1238 (4)
0x1230|                        48 04 00 00 00 00 00 00|        H.......|      addr: 0x448 0x1238-0x1240 (8)
0x1240|48 04 00 00 00 00 00 00                        |H.......        |      offset: 0x448 0x1240-0x1248 (8)
0x1240|                        08 01 00 00 00 00 00 00|        ........|      size: 264 0x1248-0x1250 (8)
0x1250|03 00 00 00                                    |....            |      link: 3 0x1250-0x1254 (4)
0x1250|            00 00 00 00                        |    ....        |      info: 0 0x1254-0x1258 (4)
0x1250|                        08 00 00 00 00 00 00 00|        ........|      addralign: 8 0x1258-0x1260 (8)
0x1260|18 00 00 00 00 00 00 00                        |........        |      entsize: 24 0x1260-0x1268 (8)
      |                                               |                |    [6]{}: section_header 0x550-0x12a8 (3416)
0x0550|88 0f 01 00 00 00 00 00 02 04 00 00 03 00 00 00|................|      data: raw bits 0x550-0x5e0 (144)
*     |until 0x5df.7 (144)                            |                |
0x1260|                        37 00 00 00            |        7...    |      name: ".rela.plt" (55) 0x1268-0x126c (4)
0x1260|                                    04 00 00 00|            ....|      type: "rela" (0x4) (Relocation entries with explicit addends) 0x126c-0x1270 (4)
      |                                               |                |      flags{}: 0x1270-0x1278 (8)
0x1270|42                                             |B               |        link_order: false 0x1270-0x1270.1 (0.1)
0x1270|42                                             |B               |        info_link: true 0x1270.1-0x1270.2 (0.1)
0x1270|42                                             |B               |        strings: false 0x1270.2-0x1270.3 (0.1)
0x1270|42                                             |B               |        merge: false 0x1270.3-0x1270.4 (0.1)
0x1270|42                                             |B               |        unused0: 0 0x1270.4-0x1270.5 (0.1)
0x1270|42                                             |B               |        execinstr: false 0x1270.5-0x1270.6 (0.1)
0x1270|42                                             |B               |        alloc: true 0x1270.6-0x1270.7 (0.1)
0x1270|42                                             |B               |        write: false 0x1270.7-0x1271 (0.1)
0x1270|   00                                          | .              |        tls: false 0x1271-0x1271.1 (0.1)
0x1270|   00                                          | .              |        group: false 0x1271.1-0x1271.2 (0.1)
0x1270|   00                                          | .              |        os_nonconforming: false 0x1271.2-0x1271.3 (0.1)
0x1270|   00 00                                       | ..             |        unused1: 0 0x1271.3-0x1272.4 (1.1)
0x1270|      00 00                                    |  ..            |        os_specific: 0 0x1272.4-0x1273.4 (1)
0x1270|         00                                    |   .            |        processor_specific: 0 0x1273.4-0x1274 (0.4)
0x1270|            00 00 00 00                        |    ....        |        unused2: 0 0x1274-0x1278 (4)
0x1270|                        50 05 00 00 00 00 00 00|        P.......|      addr: 0x550 0x1278-0x1280 (8)
0x1280|50 05 00 00 00 00 00 00                        |P.......        |      offset: 0x550 0x1280-0x1288 (8)
0x1280|                        90 00 00 00 00 00 00 00|        ........|      size: 144 0x1288-0x1290 (8)
0x1290|03 00 00 00                                    |....            |      link: 3 0x1290-0x1294 (4)
0x1290|            11 00 00 00                        |    ....        |      info: 17 0x1294-0x1298 (4)
0x1290|                        08 00 00 00 00 00 00 00|        ........|      addralign: 8 0x1298-0x12a0 (8)
0x12a0|18 00 00 00 00 00 00 00                        |........        |      entsize: 24 0x12a0-0x12a8 (8)
      |                                               |                |    [7]{}: section_header 0x5e0-0x12e8 (3336)
0x05e0|fd 7b bf a9 fd 03 00 91 fd 7b c1 a8 c0 03 5f d6|.{.......{...._.|      data: raw bits 0x5e0-0x5f0 (16)
0x12a0|                        41 00 00 00            |        A...    |      name: ".init" (65) 0x12a8-0x12ac (4)
0x12a0|                                    01 00 00 00|            ....|      type: "progbits" (0x1) (Information defined by the program) 0x12ac-0x12b0 (4)
      |                                               |                |      flags{}: 0x12b0-0x12b8 (8)
0x12b0|06                                             |.               |        link_order: false 0x12b0-0x12b0.1 (0.1)
0x12b0|06                                             |.               |        info_link: false 0x12b0.1-0x12b0.2 (0.1)
0x12b0|06                                             |.               |        strings: false 0x12b0.2-0x12b0.3 (0.1)
0x12b0|06                                             |.               |        merge: false 0x12b0.3-0x12b0.4 (0.1)
0x12b0|06                                             |.               |        unused0: 0 0x12b0.4-0x12b0.5 (0.1)
0x12b0|06                                             |.               |        execinstr: true 0x12b0.5-0x12b0.6 (0.1)
0x12b0|06                                             |.               |        alloc: true 0x12b0.6-0x12b0.7 (0.1)
0x12b0|06                                             |.               |        write: false 0x12b0.7-0x12b1 (0.1)
0x12b0|   00                                          | .              |        tls: false 0x12b1-0x12b1.1 (0.1)
0x12b0|   00                                          | .              |        group: false 0x12b1.1-0x12b1.2 (0.1)
0x12b0|   00                                          | .              |        os_nonconforming: false 0x12b1.2-0x12b1.3 (0.1)
0x12b0|   00 00                                       | ..             |        unused1: 0 0x12b1.3-0x12b2.4 (1.1)
0x12b0|      00 00                                    |  ..            |        os_specific: 0 0x12b2.4-0x12b3.4 (1)
0x12b0|         00                                    |   .            |        processor_specific: 0 0x12b3.4-0x12b4 (0.4)
0x12b0|            00 00 00 00                        |    ....        |        unused2: 0 0x12b4-0x12b8 (4)
0x12b0|                        e0 05 00 00 00 00 00 00|        ........|      addr: 0x5e0 0x12b8-0x12c0 (8)
0x12c0|e0 05 00 00 00 00 00 00                        |........        |      offset: 0x5e0 0x12c0-0x12c8 (8)
0x12c0|                        10 00 00 00 00 00 00 00|        ........|      size: 16 0x12c8-0x12d0 (8)
0x12d0|00 00 00 00                                    |....            |      link: 0 0x12d0-0x12d4 (4)
0x12d0|            00 00 00 00                        |    ....        |      info: 0 0x12d4-0x12d8 (4)
0x12d0|                        04 00 00 00 00 00 00 00|        ........|      addralign: 4 0x12d8-0x12e0 (8)
0x12e0|00 00 00 00 00 00 00 00                        |........        |      entsize: 0 0x12e0-0x12e8 (8)
      |                                               |                |    [8]{}: section_header 0x5f0-0x1328 (3384)
0x05f0|f0 7b bf a9 90 00 00 90 11 c2 47 f9 10 02 3e 91|.{........G...>.|      data: raw bits 0x5f0-0x670 (128)
*     |until 0x66f.7 (128)                            |                |
0x12e0|                        3c 00 00 00            |        <...    |      name: ".plt" (60) 0x12e8-0x12ec (4)
0x12e0|                                    01 00 00 00|            ....|      type: "progbits" (0x1) (Information defined by the program) 0x12ec-0x12f0 (4)
      |                                               |                |      flags{}: 0x12f0-0x12f8 (8)
0x12f0|06                                             |.               |        link_order: false 0x12f0-0x12f0.1 (0.1)
0x12f0|06                                             |.               |        info_link: false 0x12f0.1-0x12f0.2 (0.1)
0x12f0|06                                             |.               |        strings: false 0x12f0.2-0x12f0.3 (0.1)
0x12f0|06                                             |.               |        merge: false 0x12f0.3-0x12f0.4 (0.1)
0x12f0|06                                             |.               |        unused0: 0 0x12f0.4-0x12f0.5 (0.1)
0x12f0|06                                             |.               |        execinstr: true 0x12f0.5-0x12f0.6 (0.1)
0x12f0|06                                             |.               |        alloc: true 0x12f0.6-0x12f0.7 (0.1)
0x12f0|06                                             |.               |        write: false 0x12f0.7-0x12f1 (0.1)
0x12f0|   00                                          | .              |        tls: false 0x12f1-0x12f1.1 (0.1)
0x12f0|   00                                          | .              |        group: false 0x12f1.1-0x12f1.2 (0.1)
0x12f0|   00                                          | .              |        os_nonconforming: false 0x12f1.2-0x12f1.3 (0.1)
0x12f0|   00 00                                       | ..             |        unused1: 0 0x12f1.3-0x12f2.4 (1.1)
0x12f0|      00 00                                    |  ..            |        os_specific: 0 0x12f2.4-0x12f3.4 (1)
0x12f0|         00                                    |   .            |        processor_specific: 0 0x12f3.4-0x12f4 (0.4)
0x12f0|            00 00 00 00                        |    ....        |        unused2: 0 0x12f4-0x12f8 (4)
0x12f0|                        f0 05 00 00 00 00 00 00|        ........|      addr: 0x5f0 0x12f8-0x1300 (8)
0x1300|f0 05 00 00 00 00 00 00                        |........        |      offset: 0x5f0 0x1300-0x1308 (8)
0x1300|                        80 00 00 00 00 00 00 00|        ........|      size: 128 0x1308-0x1310 (8)
0x1310|00 00 00 00                                    |....            |      link: 0 0x1310-0x1314 (4)
0x1310|            00 00 00 00                        |    ....        |      info: 0 0x1314-0x1318 (4)
0x1310|                        10 00 00 00 00 00 00 00|        ........|      addralign: 16 0x1318-0x1320 (8)
0x1320|00 00 00 00 00 00 00 00                        |........        |      entsize: 0 0x1320-0x1328 (8)
      |                                               |                |    [9]{}: section_header 0x670-0x1368 (3320)
0x0670|1d 00 80 d2 1e 00 80 d2 e0 03 00 91 81 00 00 90|................|      data: raw bits 0x670-0x800 (400)
*     |until 0x7ff.7 (400)                            |                |
0x1320|                        47 00 00 00            |        G...    |      name: ".text" (71) 0x1328-0x132c (4)
0x1320|                                    01 00 00 00|            ....|      type: "progbits" (0x1) (Information defined by the program) 0x132c-0x1330 (4)
      |                                               |                |      flags{}: 0x1330-0x1338 (8)
0x1330|06                                             |.               |        link_order: false 0x1330-0x1330.1 (0.1)
0x1330|06                                             |.               |        info_link: false 0x1330.1-0x1330.2 (0.1)
0x1330|06                                             |.               |        strings: false 0x1330.2-0x1330.3 (0.1)
0x1330|06                                             |.               |        merge: false 0x1330.3-0x1330.4 (0.1)
0x1330|06                                             |.               |        unused0: 0 0x1330.4-0x1330.5 (0.1)
0x1330|06                                             |.               |        execinstr: true 0x1330.5-0x1330.6 (0.1)
0x1330|06                                             |.               |        alloc: true 0x1330.6-0x1330.7 (0.1)
0x1330|06                                             |.               |        write: false 0x1330.7-0x1331 (0.1)
0x1330|   00                                          | .              |        tls: false 0x1331-0x1331.1 (0.1)
0x1330|   00                                          | .              |        group: false 0x1331.1-0x1331.2 (0.1)
0x1330|   00                                          | .              |        os_nonconforming: false 0x1331.2-0x1331.3 (0.1)
0x1330|   00 00                                       | ..             |        unused1: 0 0x1331.3-0x1332.4 (1.1)
0x1330|      00 00                                    |  ..            |        os_specific: 0 0x1332.4-0x1333.4 (1)
0x1330|         00                                    |   .            |        processor_specific: 0 0x1333.4-0x1334 (0.4)
0x1330|            00 00 00 00                        |    ....        |        unused2: 0 0x1334-0x1338 (4)
0x1330|                        70 06 00 00 00 00 00 00|        p.......|      addr: 0x670 0x1338-0x1340 (8)
0x1340|70 06 00 00 00 00 00 00                        |p.......        |      offset: 0x670 0x1340-0x1348 (8)
0x1340|                        90 01 00 00 00 00 00 00|        ........|      size: 400 0x1348-0x1350 (8)
0x1350|00 00 00 00                                    |....            |      link: 0 0x1350-0x1354 (4)
0x1350|            00 00 00 00                        |    ....        |      info: 0 0x1354-0x1358 (4)
0x1350|                        10 00 00 00 00 00 00 00|        ........|      addralign: 16 0x1358-0x1360 (8)
0x1360|00 00 00 00 00 00 00 00                        |........        |      entsize: 0 0x1360-0x1368 (8)
      |                                               |                |    [10]{}: section_header 0x800-0x13a8 (2984)
0x0800|fd 7b bf a9 fd 03 00 91 fd 7b c1 a8 c0 03 5f d6|.{.......{...._.|      data: raw bits 0x800-0x810 (16)
0x1360|                        4d 00 00 00            |        M...    |      name: ".fini" (77) 0x1368-0x136c (4)
0x1360|                                    01 00 00 00|            ....|      type: "progbits" (0x1) (Information defined by the program) 0x136c-0x1370 (4)
      |                                               |                |      flags{}: 0x1370-0x1378 (8)
0x1370|06                                             |.               |        link_order: false 0x1370-0x1370.1 (0.1)
0x1370|06                                             |.               |        info_link: false 0x1370.1-0x1370.2 (0.1)
0x1370|06                                             |.               |        strings: false 0x1370.2-0x1370.3 (0.1)
0x1370|06                                             |.               |        merge: false 0x1370.3-0x1370.4 (0.1)
0x1370|06                                             |.               |        unused0: 0 0x1370.4-0x1370.5 (0.1)
0x1370|06                                             |.               |        execinstr: true 0x1370.5-0x1370.6 (0.1)
0x1370|06                                             |.               |        alloc: true 0x1370.6-0x1370.7 (0.1)
0x1370|06                                             |.               |        write: false 0x1370.7-0x1371 (0.1)
0x1370|   00                                          | .              |        tls: false 0x1371-0x1371.1 (0.1)
0x1370|   00                                          | .              |        group: false 0x1371.1-0x1371.2 (0.1)
0x1370|   00                                          | .              |        os_nonconforming: false 0x1371.2-0x1371.3 (0.1)
0x1370|   00 00                                       | ..             |        unused1: 0 0x1371.3-0x1372.4 (1.1)
0x1370|      00 00                                    |  ..            |        os_specific: 0 0x1372.4-0x1373.4 (1)
0x1370|         00                                    |   .            |        processor_specific: 0 0x1373.4-0x1374 (0.4)
0x1370|            00 00 00 00                        |    ....        |        unused2: 0 0x1374-0x1378 (4)
0x1370|                        00 08 00 00 00 00 00 00|        ........|      addr: 0x800 0x1378-0x1380 (8)
0x1380|00 08 00 00 00 00 00 00                        |........        |      offset: 0x800 0x1380-0x1388 (8)
0x1380|                        10 00 00 00 00 00 00 00|        ........|      size: 16 0x1388-0x1390 (8)
0x1390|00 00 00 00                                    |....            |      link: 0 0x1390-0x1394 (4)
0x1390|            00 00 00 00                        |    ....        |      info: 0 0x1394-0x1398 (4)
0x1390|                        04 00 00 00 00 00 00 00|        ........|      addralign: 4 0x1398-0x13a0 (8)
0x13a0|00 00 00 00 00 00 00 00                        |........        |      entsize: 0 0x13a0-0x13a8 (8)
      |                                               |                |    [11]{}: section_header 0x810-0x13e8 (3032)
0x0810|61 61 61 00                                    |aaa.            |      data: raw bits 0x810-0x814 (4)
0x13a0|                        53 00 00 00            |        S...    |      name: ".rodata" (83) 0x13a8-0x13ac (4)
0x13a0|                                    01 00 00 00|            ....|      type: "progbits" (0x1) (Information defined by the program) 0x13ac-0x13b0 (4)
      |                                               |                |      flags{}: 0x13b0-0x13b8 (8)
0x13b0|02                                             |.               |        link_order: false 0x13b0-0x13b0.1 (0.1)
0x13b0|02                                             |.               |        info_link: false 0x13b0.1-0x13b0.2 (0.1)
0x13b0|02                                             |.               |        strings: false 0x13b0.2-0x13b0.3 (0.1)
0x13b0|02                                             |.               |        merge: false 0x13b0.3-0x13b0.4 (0.1)
0x13b0|02                                             |.               |        unused0: 0 0x13b0.4-0x13b0.5 (0.1)
0x13b0|02                                             |.               |        execinstr: false 0x13b0.5-0x13b0.6 (0.1)
0x13b0|02                                             |.               |        alloc: true 0x13b0.6-0x13b0.7 (0.1)
0x13b0|02                                             |.               |        write: false 0x13b0.7-0x13b1 (0.1)
0x13b0|   00                                          | .              |        tls: false 0x13b1-0x13b1.1 (0.1)
0x13b0|   00                                          | .              |        group: false 0x13b1.1-0x13b1.2 (0.1)
0x13b0|   00                                          | .              |        os_nonconforming: false 0x13b1.2-0x13b1.3 (0.1)
0x13b0|   00 00                                       | ..             |        unused1: 0 0x13b1.3-0x13b2.4 (1.1)
0x13b0|      00 00                                    |  ..            |        os_specific: 0 0x13b2.4-0x13b3.4 (1)
0x13b0|         00                                    |   .            |        processor_specific: 0 0x13b3.4-0x13b4 (0.4)
0x13b0|            00 00 00 00                        |    ....        |        unused2: 0 0x13b4-0x13b8 (4)
0x13b0|                        10 08 00 00 00 00 00 00|        ........|      addr: 0x810 0x13b8-0x13c0 (8)
0x13c0|10 08 00 00 00 00 00 00                        |........        |      offset: 0x810 0x13c0-0x13c8 (8)
0x13c0|                        04 00 00 00 00 00 00 00|        ........|      size: 4 0x13c8-0x13d0 (8)
0x13d0|00 00 00 00                                    |....            |      link: 0 0x13d0-0x13d4 (4)
0x13d0|            00 00 00 00                        |    ....        |      info: 0 0x13d4-0x13d8 (4)
0x13d0|                        08 00 00 00 00 00 00 00|        ........|      addralign: 8 0x13d8-0x13e0 (8)
0x13e0|00 00 00 00 00 00 00 00                        |........        |      entsize: 0 0x13e0-0x13e8 (8)
      |                                               |                |    [12]{}: section_header 0x814-0x1428 (3092)
0x0810|            01 1b 03 3b 38 00 00 00 06 00 00 00|    ...;8.......|      data: raw bits 0x814-0x850 (60)
0x0820|ac fe ff ff 50 00 00 00 dc fe ff ff 64 00 00 00|....P.......d...|
*     |until 0x84f.7 (60)                             |                |
0x13e0|                        5b 00 00 00            |        [...    |      name: ".eh_frame_hdr" (91) 0x13e8-0x13ec (4)
0x13e0|                                    01 00 00 00|            ....|      type: "progbits" (0x1) (Information defined by the program) 0x13ec-0x13f0 (4)
      |                                               |                |      flags{}: 0x13f0-0x13f8 (8)
0x13f0|02                                             |.               |        link_order: false 0x13f0-0x13f0.1 (0.1)
0x13f0|02                                             |.               |        info_link: false 0x13f0.1-0x13f0.2 (0.1)
0x13f0|02                                             |.               |        strings: false 0x13f0.2-0x13f0.3 (0.1)
0x13f0|02                                             |.               |        merge: false 0x13f0.3-0x13f0.4 (0.1)
0x13f0|02                                             |.               |        unused0: 0 0x13f0.4-0x13f0.5 (0.1)
0x13f0|02                                             |.               |        execinstr: false 0x13f0.5-0x13f0.6 (0.1)
0x13f0|02                                             |.               |        alloc: true 0x13f0.6-0x13f0.7 (0.1)
0x13f0|02                                             |.               |        write: false 0x13f0.7-0x13f1 (0.1)
0x13f0|   00                                          | .              |        tls: false 0x13f1-0x13f1.1 (0.1)
0x13f0|   00                                          | .              |        group: false 0x13f1.1-0x13f1.2 (0.1)
0x13f0|   00                                          | .              |        os_nonconforming: false 0x13f1.2-0x13f1.3 (0.1)
0x13f0|   00 00                                       | ..             |        unused1: 0 0x13f1.3-0x13f2.4 (1.1)
0x13f0|      00 00                                    |  ..            |        os_specific: 0 0x13f2.4-0x13f3.4 (1)
0x13f0|         00                                    |   .            |        processor_specific: 0 0x13f3.4-0x13f4 (0.4)
0x13f0|            00 00 00 00                        |    ....        |        unused2: 0 0x13f4-0x13f8 (4)
0x13f0|                        14 08 00 00 00 00 00 00|        ........|      addr: 0x814 0x13f8-0x1400 (8)
0x1400|14 08 00 00 00 00 00 00                        |........        |      offset: 0x814 0x1400-0x1408 (8)
0x1400|                        3c 00 00 00 00 00 00 00|        <.......|      size: 60 0x1408-0x1410 (8)
0x1410|00 00 00 00                                    |....            |      link: 0 0x1410-0x1414 (4)
0x1410|            00 00 00 00                        |    ....        |      info: 0 0x1414-0x1418 (4)
0x1410|                        04 00 00 00 00 00 00 00|        ........|      addralign: 4 0x1418-0x1420 (8)
0x1420|00 00 00 00 00 00 00 00                        |........        |      entsize: 0 0x1420-0x1428 (8)
      |                                               |                |    [13]{}: section_header 0x850-0x1468 (3096)
0x0850|10 00 00 00 00 00 00 00 01 7a 52 00 04 78 1e 01|.........zR..x..|      data: raw bits 0x850-0x914 (196)
*     |until 0x913.7 (196)                            |                |
0x1420|                        69 00 00 00            |        i...    |      name: ".eh_frame" (105) 0x1428-0x142c (4)
0x1420|                                    01 00 00 00|            ....|      type: "progbits" (0x1) (Information defined by the program) 0x142c-0x1430 (4)
      |                                               |                |      flags{}: 0x1430-0x1438 (8)
0x1430|02                                             |.               |        link_order: false 0x1430-0x1430.1 (0.1)
0x1430|02                                             |.               |        info_link: false 0x1430.1-0x1430.2 (0.1)
0x1430|02                                             |.               |        strings: false 0x1430.2-0x1430.3 (0.1)
0x1430|02                                             |.               |        merge: false 0x1430.3-0x1430.4 (0.1)
0x1430|02                                             |.               |        unused0: 0 0x1430.4-0x1430.5 (0.1)
0x1430|02                                             |.               |        execinstr: false 0x1430.5-0x1430.6 (0.1)
0x1430|02                                             |.               |        alloc: true 0x1430.6-0x1430.7 (0.1)
0x1430|02                                             |.               |        write: false 0x1430.7-0x1431 (0.1)
0x1430|   00                                          | .              |        tls: false 0x1431-0x1431.1 (0.1)
0x1430|   00                                          | .              |        group: false 0x1431.1-0x1431.2 (0.1)
0x1430|   00                                          | .              |        os_nonconforming: false 0x1431.2-0x1431.3 (0.1)
0x1430|   00 00                                       | ..             |        unused1: 0 0x1431.3-0x1432.4 (1.1)
0x1430|      00 00                                    |  ..            |        os_specific: 0 0x1432.4-0x1433.4 (1)
0x1430|         00                                    |   .            |        processor_specific: 0 0x1433.4-0x1434 (0.4)
0x1430|            00 00 00 00                        |    ....        |        unused2: 0 0x1434-0x1438 (4)
0x1430|                        50 08 00 00 00 00 00 00|        P.......|      addr: 0x850 0x1438-0x1440 (8)
0x1440|50 08 00 00 00 00 00 00                        |P.......        |      offset: 0x850 0x1440-0x1448 (8)
0x1440|                        c4 00 00 00 00 00 00 00|        ........|      size: 196 0x1448-0x1450 (8)
0x1450|00 00 00 00                                    |....            |      link: 0 0x1450-0x1454 (4)
0x1450|            00 00 00 00                        |    ....        |      info: 0 0x1454-0x1458 (4)
0x1450|                        08 00 00 00 00 00 00 00|        ........|      addralign: 8 0x1458-0x1460 (8)
0x1460|00 00 00 00 00 00 00 00                        |........        |      entsize: 0 0x1460-0x1468 (8)
      |                                               |                |    [14]{}: section_header 0xd90-0x14a8 (1816)
0x0d90|90 07 00 00 00 00 00 00                        |........        |      data: raw bits 0xd90-0xd98 (8)
0x1460|                        73 00 00 00            |        s...    |      name: ".init_array" (115) 0x1468-0x146c (4)
0x1460|                                    0e 00 00 00|            ....|      type: "init_array" (0xe) (Initialization functions) 0x146c-0x1470 (4)
      |                                               |                |      flags{}: 0x1470-0x1478 (8)
0x1470|03                                             |.               |        link_order: false 0x1470-0x1470.1 (0.1)
0x1470|03                                             |.               |        info_link: false 0x1470.1-0x1470.2 (0.1)
0x1470|03                                             |.               |        strings: false 0x1470.2-0x1470.3 (0.1)
0x1470|03                                             |.               |        merge: false 0x1470.3-0x1470.4 (0.1)
0x1470|03                                             |.               |        unused0: 0 0x1470.4-0x1470.5 (0.1)
0x1470|03                                             |.               |        execinstr: false 0x1470.5-0x1470.6 (0.1)
0x1470|03                                             |.               |        alloc: true 0x1470.6-0x1470.7 (0.1)
0x1470|03                                             |.               |        write: true 0x1470.7-0x1471 (0.1)
0x1470|   00                                          | .              |        tls: false 0x1471-0x1471.1 (0.1)
0x1470|   00                                          | .              |        group: false 0x1471.1-0x1471.2 (0.1)
0x1470|   00                                          | .              |        os_nonconforming: false 0x1471.2-0x1471.3 (0.1)
0x1470|   00 00                                       | ..             |        unused1: 0 0x1471.3-0x1472.4 (1.1)
0x1470|      00 00                                    |  ..            |        os_specific: 0 0x1472.4-0x1473.4 (1)
0x1470|         00                                    |   .            |        processor_specific: 0 0x1473.4-0x1474 (0.4)
0x1470|            00 00 00 00                        |    ....        |        unused2: 0 0x1474-0x1478 (4)
0x1470|                        90 0d 01 00 00 00 00 00|        ........|      addr: 0x10d90 0x1478-0x1480 (8)
0x1480|90 0d 00 00 00 00 00 00                        |........        |      offset: 0xd90 0x1480-0x1488 (8)
0x1480|                        08 00 00 00 00 00 00 00|        ........|      size: 8 0x1488-0x1490 (8)
0x1490|00 00 00 00                                    |....            |      link: 0 0x1490-0x1494 (4)
0x1490|            00 00 00 00                        |    ....        |      info: 0 0x1494-0x1498 (4)
0x1490|                        08 00 00 00 00 00 00 00|        ........|      addralign: 8 0x1498-0x14a0 (8)
0x14a0|08 00 00 00 00 00 00 00                        |........        |      entsize: 8 0x14a0-0x14a8 (8)
      |                                               |                |    [15]{}: section_header 0xd98-0x14e8 (1872)
0x0d90|                        30 07 00 00 00 00 00 00|        0.......|      data: raw bits 0xd98-0xda0 (8)
0x14a0|                        7f 00 00 00            |        ....    |      name: ".fini_array" (127) 0x14a8-0x14ac (4)
0x14a0|                                    0f 00 00 00|            ....|      type: "fini_array" (0xf) (Termination functions) 0x14ac-0x14b0 (4)
      |                                               |                |      flags{}: 0x14b0-0x14b8 (8)
0x14b0|03                                             |.               |        link_order: false 0x14b0-0x14b0.1 (0.1)
0x14b0|03                                             |.               |        info_link: false 0x14b0.1-0x14b0.2 (0.1)
0x14b0|03                                             |.               |        strings: false 0x14b0.2-0x14b0.3 (0.1)
0x14b0|03                                             |.               |        merge: false 0x14b0.3-0x14b0.4 (0.1)
0x14b0|03                                             |.               |        unused0: 0 0x14b0.4-0x14b0.5 (0.1)
0x14b0|03                                             |.               |        execinstr: false 0x14b0.5-0x14b0.6 (0.1)
0x14b0|03                                             |.               |        alloc: true 0x14b0.6-0x14b0.7 (0.1)
0x14b0|03                                             |.               |        write: true 0x14b0.7-0x14b1 (0.1)
0x14b0|   00                                          | .              |        tls: false 0x14b1-0x14b1.1 (0.1)
0x14b0|   00                                          | .              |        group: false 0x14b1.1-0x14b1.2 (0.1)
0x14b0|   00                                          | .              |        os_nonconforming: false 0x14b1.2-0x14b1.3 (0.1)
0x14b0|   00 00                                       | ..             |        unused1: 0 0x14b1.3-0x14b2.4 (1.1)
0x14b0|      00 00                                    |  ..            |        os_specific: 0 0x14b2.4-0x14b3.4 (1)
0x14b0|         00                                    |   .            |        processor_specific: 0 0x14b3.4-0x14b4 (0.4)
0x14b0|            00 00 00 00                        |    ....        |        unused2: 0 0x14b4-0x14b8 (4)
0x14b0|                        98 0d 01 00 00 00 00 00|        ........|      addr: 0x10d98 0x14b8-0x14c0 (8)
0x14c0|98 0d 00 00 00 00 00 00                        |........        |      offset: 0xd98 0x14c0-0x14c8 (8)
0x14c0|                        08 00 00 00 00 00 00 00|        ........|      size: 8 0x14c8-0x14d0 (8)
0x14d0|00 00 00 00                                    |....            |      link: 0 0x14d0-0x14d4 (4)
0x14d0|            00 00 00 00                        |    ....        |      info: 0 0x14d4-0x14d8 (4)
0x14d0|                        08 00 00 00 00 00 00 00|        ........|      addralign: 8 0x14d8-0x14e0 (8)
0x14e0|08 00 00 00 00 00 00 00                        |........        |      entsize: 8 0x14e0-0x14e8 (8)
      |                                               |                |    [16]{}: section_header 0xda0-0x1528 (1928)
      |                                               |                |      dynamic_tags[0:25]: 0xda0-0xf30 (400)
      |                                               |                |        [0]{}: dynamic_tags 0xda0-0xdb0 (16)
0x0da0|01 00 00 00 00 00 00 00                        |........        |          tag: "needed" (1) (String table offset to name of a needed library) 0xda0-0xda8 (8)
0x0da0|                        a2 00 00 00 00 00 00 00|        ........|          val: "libbbb.so" (162) 0xda8-0xdb0 (8)
      |                                               |                |        [1]{}: dynamic_tags 0xdb0-0xdc0 (16)
0x0db0|01 00 00 00 00 00 00 00                        |........        |          tag: "needed" (1) (String table offset to name of a needed library) 0xdb0-0xdb8 (8)
0x0db0|                        ac 00 00 00 00 00 00 00|        ........|          val: "libc.musl-aarch64.so.1" (172) 0xdb8-0xdc0 (8)
      |                                               |                |        [2]{}: dynamic_tags 0xdc0-0xdd0 (16)
0x0dc0|0c 00 00 00 00 00 00 00                        |........        |          tag: "init" (12) (Address of the initialization function) 0xdc0-0xdc8 (8)
0x0dc0|                        e0 05 00 00 00 00 00 00|        ........|          ptr: 0x5e0 0xdc8-0xdd0 (8)
      |                                               |                |          section_index: 7
      |                                               |                |        [3]{}: dynamic_tags 0xdd0-0xde0 (16)
0x0dd0|0d 00 00 00 00 00 00 00                        |........        |          tag: "fini" (13) (Address of the termination function) 0xdd0-0xdd8 (8)
0x0dd0|                        00 08 00 00 00 00 00 00|        ........|          ptr: 0x800 0xdd8-0xde0 (8)
      |                                               |                |          section_index: 10
      |                                               |                |        [4]{}: dynamic_tags 0xde0-0xdf0 (16)
0x0de0|19 00 00 00 00 00 00 00                        |........        |          tag: "init_array" (25) (Address of the array of pointers to initialization functions) 0xde0-0xde8 (8)
0x0de0|                        90 0d 01 00 00 00 00 00|        ........|          ptr: 0x10d90 0xde8-0xdf0 (8)
      |                                               |                |        [5]{}: dynamic_tags 0xdf0-0xe00 (16)
0x0df0|1b 00 00 00 00 00 00 00                        |........        |          tag: "init_arraysz" (27) (Size in bytes of the array of initialization functions) 0xdf0-0xdf8 (8)
0x0df0|                        08 00 00 00 00 00 00 00|        ........|          val: 8 0xdf8-0xe00 (8)
      |                                               |                |        [6]{}: dynamic_tags 0xe00-0xe10 (16)
0x0e00|1a 00 00 00 00 00 00 00                        |........        |          tag: "fini_array" (26) (Address of the array of pointers to termination functions) 0xe00-0xe08 (8)
0x0e00|                        98 0d 01 00 00 00 00 00|        ........|          ptr: 0x10d98 0xe08-0xe10 (8)
      |                                               |                |        [7]{}: dynamic_tags 0xe10-0xe20 (16)
0x0e10|1c 00 00 00 00 00 00 00                        |........        |          tag: "fini_arraysz" (28) (Size in bytes of the array of termination functions ) 0xe10-0xe18 (8)
0x0e10|                        08 00 00 00 00 00 00 00|        ........|          val: 8 0xe18-0xe20 (8)
      |                                               |                |        [8]{}: dynamic_tags 0xe20-0xe30 (16)
0x0e20|f5 fe ff 6f 00 00 00 00                        |...o....        |          tag: 1879047925 0xe20-0xe28 (8)
0x0e20|                        20 02 00 00 00 00 00 00|         .......|          unspecified: 0x220 0xe28-0xe30 (8)
      |                                               |                |        [9]{}: dynamic_tags 0xe30-0xe40 (16)
0x0e30|05 00 00 00 00 00 00 00                        |........        |          tag: "strtab" (5) (Address of string table) 0xe30-0xe38 (8)
0x0e30|                        80 03 00 00 00 00 00 00|        ........|          ptr: 0x380 0xe38-0xe40 (8)
      |                                               |                |          section_index: 4
      |                                               |                |        [10]{}: dynamic_tags 0xe40-0xe50 (16)
0x0e40|06 00 00 00 00 00 00 00                        |........        |          tag: "symtab" (6) (Address of symbol table) 0xe40-0xe48 (8)
0x0e40|                        48 02 00 00 00 00 00 00|        H.......|          ptr: 0x248 0xe48-0xe50 (8)
      |                                               |                |          section_index: 3
      |                                               |                |        [11]{}: dynamic_tags 0xe50-0xe60 (16)
0x0e50|0a 00 00 00 00 00 00 00                        |........        |          tag: "strsz" (10) (Size in bytes of string table) 0xe50-0xe58 (8)
0x0e50|                        c3 00 00 00 00 00 00 00|        ........|          val: 195 0xe58-0xe60 (8)
      |                                               |                |        [12]{}: dynamic_tags 0xe60-0xe70 (16)
0x0e60|0b 00 00 00 00 00 00 00                        |........        |          tag: "syment" (11) (Size in bytes of a symbol table entry) 0xe60-0xe68 (8)
0x0e60|                        18 00 00 00 00 00 00 00|        ........|          val: 24 0xe68-0xe70 (8)
      |                                               |                |        [13]{}: dynamic_tags 0xe70-0xe80 (16)
0x0e70|15 00 00 00 00 00 00 00                        |........        |          tag: "debug" (21) (Undefined use for debugging) 0xe70-0xe78 (8)
0x0e70|                        00 00 00 00 00 00 00 00|        ........|          ptr: 0x0 0xe78-0xe80 (8)
      |                                               |                |        [14]{}: dynamic_tags 0xe80-0xe90 (16)
0x0e80|03 00 00 00 00 00 00 00                        |........        |          tag: "pltgot" (3) (Address of PLT and/or GOT) 0xe80-0xe88 (8)
0x0e80|                        70 0f 01 00 00 00 00 00|        p.......|          ptr: 0x10f70 0xe88-0xe90 (8)
      |                                               |                |          section_index: 17
      |                                               |                |        [15]{}: dynamic_tags 0xe90-0xea0 (16)
0x0e90|02 00 00 00 00 00 00 00                        |........        |          tag: "pltrelsz" (2) (Size in bytes of PLT relocation entries) 0xe90-0xe98 (8)
0x0e90|                        90 00 00 00 00 00 00 00|        ........|          val: 144 0xe98-0xea0 (8)
      |                                               |                |        [16]{}: dynamic_tags 0xea0-0xeb0 (16)
0x0ea0|14 00 00 00 00 00 00 00                        |........        |          tag: "pltrel" (20) (Type of relocation entry to which the PLT refers (Rela or Rel)) 0xea0-0xea8 (8)
0x0ea0|                        07 00 00 00 00 00 00 00|        ........|          val: 7 0xea8-0xeb0 (8)
      |                                               |                |        [17]{}: dynamic_tags 0xeb0-0xec0 (16)
0x0eb0|17 00 00 00 00 00 00 00                        |........        |          tag: "jmprel" (23) (Address of relocation entries associated solely with the PLT) 0xeb0-0xeb8 (8)
0x0eb0|                        50 05 00 00 00 00 00 00|        P.......|          ptr: 0x550 0xeb8-0xec0 (8)
      |                                               |                |          section_index: 6
      |                                               |                |        [18]{}: dynamic_tags 0xec0-0xed0 (16)
0x0ec0|07 00 00 00 00 00 00 00                        |........        |          tag: "rela" (7) (Address of Rela relocation table) 0xec0-0xec8 (8)
0x0ec0|                        48 04 00 00 00 00 00 00|        H.......|          ptr: 0x448 0xec8-0xed0 (8)
      |                                               |                |        [19]{}: dynamic_tags 0xed0-0xee0 (16)
0x0ed0|08 00 00 00 00 00 00 00                        |........        |          tag: "relasz" (8) (Size in bytes of the Rela relocation table) 0xed0-0xed8 (8)
0x0ed0|                        08 01 00 00 00 00 00 00|        ........|          val: 264 0xed8-0xee0 (8)
      |                                               |                |        [20]{}: dynamic_tags 0xee0-0xef0 (16)
0x0ee0|09 00 00 00 00 00 00 00                        |........        |          tag: "relaent" (9) (Size in bytes of a Rela relocation table entry) 0xee0-0xee8 (8)
0x0ee0|                        18 00 00 00 00 00 00 00|        ........|          val: 24 0xee8-0xef0 (8)
      |                                               |                |        [21]{}: dynamic_tags 0xef0-0xf00 (16)
0x0ef0|18 00 00 00 00 00 00 00                        |........        |          tag: "bind_now" (24) (Instruct dynamic linker to process all relocations before transferring control to the executable) 0xef0-0xef8 (8)
0x0ef0|                        00 00 00 00 00 00 00 00|        ........|          ignored: 0x0 0xef8-0xf00 (8)
      |                                               |                |        [22]{}: dynamic_tags 0xf00-0xf10 (16)
0x0f00|fb ff ff 6f 00 00 00 00                        |...o....        |          tag: 1879048187 0xf00-0xf08 (8)
0x0f00|                        01 00 00 08 00 00 00 00|        ........|          unspecified: 0x8000001 0xf08-0xf10 (8)
      |                                               |                |        [23]{}: dynamic_tags 0xf10-0xf20 (16)
0x0f10|f9 ff ff 6f 00 00 00 00                        |...o....        |          tag: 1879048185 0xf10-0xf18 (8)
0x0f10|                        06 00 00 00 00 00 00 00|        ........|          unspecified: 0x6 0xf18-0xf20 (8)
      |                                               |                |        [24]{}: dynamic_tags 0xf20-0xf30 (16)
0x0f20|00 00 00 00 00 00 00 00                        |........        |          tag: "null" (0) (Marks end of dynamic section) 0xf20-0xf28 (8)
0x0f20|                        00 00 00 00 00 00 00 00|        ........|          ignored: 0x0 0xf28-0xf30 (8)
0x14e0|                        8b 00 00 00            |        ....    |      name: ".dynamic" (139) 0x14e8-0x14ec (4)
0x14e0|                                    06 00 00 00|            ....|      type: "dynamic" (0x6) (Information for dynamic linking) 0x14ec-0x14f0 (4)
      |                                               |                |      flags{}: 0x14f0-0x14f8 (8)
0x14f0|03                                             |.               |        link_order: false 0x14f0-0x14f0.1 (0.1)
0x14f0|03                                             |.               |        info_link: false 0x14f0.1-0x14f0.2 (0.1)
0x14f0|03                                             |.               |        strings: false 0x14f0.2-0x14f0.3 (0.1)
0x14f0|03                                             |.               |        merge: false 0x14f0.3-0x14f0.4 (0.1)
0x14f0|03                                             |.               |        unused0: 0 0x14f0.4-0x14f0.5 (0.1)
0x14f0|03                                             |.               |        execinstr: false 0x14f0.5-0x14f0.6 (0.1)
0x14f0|03                                             |.               |        alloc: true 0x14f0.6-0x14f0.7 (0.1)
0x14f0|03                                             |.               |        write: true 0x14f0.7-0x14f1 (0.1)
0x14f0|   00                                          | .              |        tls: false 0x14f1-0x14f1.1 (0.1)
0x14f0|   00                                          | .              |        group: false 0x14f1.1-0x14f1.2 (0.1)
0x14f0|   00                                          | .              |        os_nonconforming: false 0x14f1.2-0x14f1.3 (0.1)
0x14f0|   00 00                                       | ..             |        unused1: 0 0x14f1.3-0x14f2.4 (1.1)
0x14f0|      00 00                                    |  ..            |        os_specific: 0 0x14f2.4-0x14f3.4 (1)
0x14f0|         00                                    |   .            |        processor_specific: 0 0x14f3.4-0x14f4 (0.4)
0x14f0|            00 00 00 00                        |    ....        |        unused2: 0 0x14f4-0x14f8 (4)
0x14f0|                        a0 0d 01 00 00 00 00 00|        ........|      addr: 0x10da0 0x14f8-0x1500 (8)
0x1500|a0 0d 00 00 00 00 00 00                        |........        |      offset: 0xda0 0x1500-0x1508 (8)
0x1500|                        d0 01 00 00 00 00 00 00|        ........|      size: 464 0x1508-0x1510 (8)
0x1510|04 00 00 00                                    |....            |      link: 4 0x1510-0x1514 (4)
0x1510|            00 00 00 00                        |    ....        |      info: 0 0x1514-0x1518 (4)
0x1510|                        08 00 00 00 00 00 00 00|        ........|      addralign: 8 0x1518-0x1520 (8)
0x1520|10 00 00 00 00 00 00 00                        |........        |      entsize: 16 0x1520-0x1528 (8)
      |                                               |                |    [17]{}: section_header 0xf70-0x1568 (1528)
0x0f70|00 00 00 00 00 00 00 00 00 00 00 00 00 00 00 00|................|      data: raw bits 0xf70-0x1000 (144)
*     |until 0xfff.7 (144)                            |                |
0x1520|                        94 00 00 00            |        ....    |      name: ".got" (148) 0x1528-0x152c (4)
0x1520|                                    01 00 00 00|            ....|      type: "progbits" (0x1) (Information defined by the program) 0x152c-0x1530 (4)
      |                                               |                |      flags{}: 0x1530-0x1538 (8)
0x1530|03                                             |.               |        link_order: false 0x1530-0x1530.1 (0.1)
0x1530|03                                             |.               |        info_link: false 0x1530.1-0x1530.2 (0.1)
0x1530|03                                             |.               |        strings: false 0x1530.2-0x1530.3 (0.1)
0x1530|03                                             |.               |        merge: false 0x1530.3-0x1530.4 (0.1)
0x1530|03                                             |.               |        unused0: 0 0x1530.4-0x1530.5 (0.1)
0x1530|03                                             |.               |        execinstr: false 0x1530.5-0x1530.6 (0.1)
0x1530|03                                             |.               |        alloc: true 0x1530.6-0x1530.7 (0.1)
0x1530|03                                             |.               |        write: true 0x1530.7-0x1531 (0.1)
0x1530|   00                                          | .              |        tls: false 0x1531-0x1531.1 (0.1)
0x1530|   00                                          | .              |        group: false 0x1531.1-0x1531.2 (0.1)
0x1530|   00                                          | .              |        os_nonconforming: false 0x1531.2-0x1531.3 (0.1)
0x1530|   00 00                                       | ..             |        unused1: 0 0x1531.3-0x1532.4 (1.1)
0x1530|      00 00                                    |  ..            |        os_specific: 0 0x1532.4-0x1533.4 (1)
0x1530|         00                                    |   .            |        processor_specific: 0 0x1533.4-0x1534 (0.4)
0x1530|            00 00 00 00                        |    ....        |        unused2: 0 0x1534-0x1538 (4)
0x1530|                        70 0f 01 00 00 00 00 00|        p.......|      addr: 0x10f70 0x1538-0x1540 (8)
0x1540|70 0f 00 00 00 00 00 00                        |p.......        |      offset: 0xf70 0x1540-0x1548 (8)
0x1540|                        90 00 00 00 00 00 00 00|        ........|      size: 144 0x1548-0x1550 (8)
0x1550|00 00 00 00                                    |....            |      link: 0 0x1550-0x1554 (4)
0x1550|            00 00 00 00                        |    ....        |      info: 0 0x1554-0x1558 (4)
0x1550|                        08 00 00 00 00 00 00 00|        ........|      addralign: 8 0x1558-0x1560 (8)
0x1560|08 00 00 00 00 00 00 00                        |........        |      entsize: 8 0x1560-0x1568 (8)
      |                                               |                |    [18]{}: section_header 0x1000-0x15a8 (1448)
0x1000|00 10 01 00 00 00 00 00                        |........        |      data: raw bits 0x1000-0x1008 (8)
0x1560|                        99 00 00 00            |        ....    |      name: ".data" (153) 0x1568-0x156c (4)
0x1560|                                    01 00 00 00|            ....|      type: "progbits" (0x1) (Information defined by the program) 0x156c-0x1570 (4)
      |                                               |                |      flags{}: 0x1570-0x1578 (8)
0x1570|03                                             |.               |        link_order: false 0x1570-0x1570.1 (0.1)
0x1570|03                                             |.               |        info_link: false 0x1570.1-0x1570.2 (0.1)
0x1570|03                                             |.               |        strings: false 0x1570.2-0x1570.3 (0.1)
0x1570|03                                             |.               |        merge: false 0x1570.3-0x1570.4 (0.1)
0x1570|03                                             |.               |        unused0: 0 0x1570.4-0x1570.5 (0.1)
0x1570|03                                             |.               |        execinstr: false 0x1570.5-0x1570.6 (0.1)
0x1570|03                                             |.               |        alloc: true 0x1570.6-0x1570.7 (0.1)
0x1570|03                                             |.               |        write: true 0x1570.7-0x1571 (0.1)
0x1570|   00                                          | .              |        tls: false 0x1571-0x1571.1 (0.1)
0x1570|   00                                          | .              |        group: false 0x1571.1-0x1571.2 (0.1)
0x1570|   00                                          | .              |        os_nonconforming: false 0x1571.2-0x1571.3 (0.1)
0x1570|   00 00                                       | ..             |        unused1: 0 0x1571.3-0x1572.4 (1.1)
0x1570|      00 00                                    |  ..            |        os_specific: 0 0x1572.4-0x1573.4 (1)
0x1570|         00                                    |   .            |        processor_specific: 0 0x1573.4-0x1574 (0.4)
0x1570|            00 00 00 00                        |    ....        |        unused2: 0 0x1574-0x1578 (4)
0x1570|                        00 10 01 00 00 00 00 00|        ........|      addr: 0x11000 0x1578-0x1580 (8)
0x1580|00 10 00 00 00 00 00 00                        |........        |      offset: 0x1000 0x1580-0x1588 (8)
0x1580|                        08 00 00 00 00 00 00 00|        ........|      size: 8 0x1588-0x1590 (8)
0x1590|00 00 00 00                                    |....            |      link: 0 0x1590-0x1594 (4)
0x1590|            00 00 00 00                        |    ....        |      info: 0 0x1594-0x1598 (4)
0x1590|                        08 00 00 00 00 00 00 00|        ........|      addralign: 8 0x1598-0x15a0 (8)
0x15a0|00 00 00 00 00 00 00 00                        |........        |      entsize: 0 0x15a0-0x15a8 (8)
      |                                               |                |    [19]{}: section_header 0x15a8-0x15e8 (64)
0x15a0|                        9f 00 00 00            |        ....    |      name: ".bss" (159) 0x15a8-0x15ac (4)
0x15a0|                                    08 00 00 00|            ....|      type: "nobits" (0x8) (No space in the file) 0x15ac-0x15b0 (4)
      |                                               |                |      flags{}: 0x15b0-0x15b8 (8)
0x15b0|03                                             |.               |        link_order: false 0x15b0-0x15b0.1 (0.1)
0x15b0|03                                             |.               |        info_link: false 0x15b0.1-0x15b0.2 (0.1)
0x15b0|03                                             |.               |        strings: false 0x15b0.2-0x15b0.3 (0.1)
0x15b0|03                                             |.               |        merge: false 0x15b0.3-0x15b0.4 (0.1)
0x15b0|03                                             |.               |        unused0: 0 0x15b0.4-0x15b0.5 (0.1)
0x15b0|03                                             |.               |        execinstr: false 0x15b0.5-0x15b0.6 (0.1)
0x15b0|03                                             |.               |        alloc: true 0x15b0.6-0x15b0.7 (0.1)
0x15b0|03                                             |.               |        write: true 0x15b0.7-0x15b1 (0.1)
0x15b0|   00                                          | .              |        tls: false 0x15b1-0x15b1.1 (0.1)
0x15b0|   00                                          | .              |        group: false 0x15b1.1-0x15b1.2 (0.1)
0x15b0|   00                                          | .              |        os_nonconforming: false 0x15b1.2-0x15b1.3 (0.1)
0x15b0|   00 00                                       | ..             |        unused1: 0 0x15b1.3-0x15b2.4 (1.1)
0x15b0|      00 00                                    |  ..            |        os_specific: 0 0x15b2.4-0x15b3.4 (1)
0x15b0|         00                                    |   .            |        processor_specific: 0 0x15b3.4-0x15b4 (0.4)
0x15b0|            00 00 00 00                        |    ....        |        unused2: 0 0x15b4-0x15b8 (4)
0x15b0|                        08 10 01 00 00 00 00 00|        ........|      addr: 0x11008 0x15b8-0x15c0 (8)
0x15c0|08 10 00 00 00 00 00 00                        |........        |      offset: 0x1008 0x15c0-0x15c8 (8)
0x15c0|                        38 00 00 00 00 00 00 00|        8.......|      size: 56 0x15c8-0x15d0 (8)
0x15d0|00 00 00 00                                    |....            |      link: 0 0x15d0-0x15d4 (4)
0x15d0|            00 00 00 00                        |    ....        |      info: 0 0x15d4-0x15d8 (4)
0x15d0|                        08 00 00 00 00 00 00 00|        ........|      addralign: 8 0x15d8-0x15e0 (8)
0x15e0|00 00 00 00 00 00 00 00                        |........        |      entsize: 0 0x15e0-0x15e8 (8)
      |                                               |                |    [20]{}: section_header 0x1008-0x1628 (1568)
0x1000|                        47 43 43 3a 20 28 41 6c|        GCC: (Al|      data: raw bits 0x1008-0x1039 (49)
0x1010|70 69 6e 65 20 31 30 2e 33 2e 31 5f 67 69 74 32|pine 10.3.1_git2|
*     |until 0x1038.7 (49)                            |                |
0x15e0|                        a4 00 00 00            |        ....    |      name: ".comment" (164) 0x15e8-0x15ec (4)
0x15e0|                                    01 00 00 00|            ....|      type: "progbits" (0x1) (Information defined by the program) 0x15ec-0x15f0 (4)
      |                                               |                |      flags{}: 0x15f0-0x15f8 (8)
0x15f0|30                                             |0               |        link_order: false 0x15f0-0x15f0.1 (0.1)
0x15f0|30                                             |0               |        info_link: false 0x15f0.1-0x15f0.2 (0.1)
0x15f0|30                                             |0               |        strings: true 0x15f0.2-0x15f0.3 (0.1)
0x15f0|30                                             |0               |        merge: true 0x15f0.3-0x15f0.4 (0.1)
0x15f0|30                                             |0               |        unused0: 0 0x15f0.4-0x15f0.5 (0.1)
0x15f0|30                                             |0               |        execinstr: false 0x15f0.5-0x15f0.6 (0.1)
0x15f0|30                                             |0               |        alloc: false 0x15f0.6-0x15f0.7 (0.1)
0x15f0|30                                             |0               |        write: false 0x15f0.7-0x15f1 (0.1)
0x15f0|   00                                          | .              |        tls: false 0x15f1-0x15f1.1 (0.1)
0x15f0|   00                                          | .              |        group: false 0x15f1.1-0x15f1.2 (0.1)
0x15f0|   00                                          | .              |        os_nonconforming: false 0x15f1.2-0x15f1.3 (0.1)
0x15f0|   00 00                                       | ..             |        unused1: 0 0x15f1.3-0x15f2.4 (1.1)
0x15f0|      00 00                                    |  ..            |        os_specific: 0 0x15f2.4-0x15f3.4 (1)
0x15f0|         00                                    |   .            |        processor_specific: 0 0x15f3.4-0x15f4 (0.4)
0x15f0|            00 00 00 00                        |    ....        |        unused2: 0 0x15f4-0x15f8 (4)
0x15f0|                        00 00 00 00 00 00 00 00|        ........|      addr: 0x0 0x15f8-0x1600 (8)
0x1600|08 10 00 00 00 00 00 00                        |........        |      offset: 0x1008 0x1600-0x1608 (8)
0x1600|                        31 00 00 00 00 00 00 00|        1.......|      size: 49 0x1608-0x1610 (8)
0x1610|00 00 00 00                                    |....            |      link: 0 0x1610-0x1614 (4)
0x1610|            00 00 00 00                        |    ....        |      info: 0 0x1614-0x1618 (4)
0x1610|                        01 00 00 00 00 00 00 00|        ........|      addralign: 1 0x1618-0x1620 (8)
0x1620|01 00 00 00 00 00 00 00                        |........        |      entsize: 1 0x1620-0x1628 (8)
      |                                               |                |    [21]{}: section_header 0x1039-0x1668 (1583)
0x1030|                           00 2e 73 68 73 74 72|         ..shstr|      string: "\x00.shstrtab\x00.interp\x00.gnu.hash\x00.dynsym\x00.dynstr\x00.rela.dyn\x00.rela.plt\x00.init\x00.text\x00.fini\x00.rodata\x00.eh_frame_hdr\x00.eh_frame\x00.init_array\x00.fini_array\x00.dynamic\x00.got\x00.data\x00.bss\x00.comment\x00" 0x1039-0x10e6 (173)
0x1040|74 61 62 00 2e 69 6e 74 65 72 70 00 2e 67 6e 75|tab..interp..gnu|
*     |until 0x10e5.7 (173)                           |                |
0x1620|                        01 00 00 00            |        ....    |      name: ".shstrtab" (1) 0x1628-0x162c (4)
0x1620|                                    03 00 00 00|            ....|      type: "strtab" (0x3) (String table) 0x162c-0x1630 (4)
      |                                               |                |      flags{}: 0x1630-0x1638 (8)
0x1630|00                                             |.               |        link_order: false 0x1630-0x1630.1 (0.1)
0x1630|00                                             |.               |        info_link: false 0x1630.1-0x1630.2 (0.1)
0x1630|00                                             |.               |        strings: false 0x1630.2-0x1630.3 (0.1)
0x1630|00                                             |.               |        merge: false 0x1630.3-0x1630.4 (0.1)
0x1630|00                                             |.               |        unused0: 0 0x1630.4-0x1630.5 (0.1)
0x1630|00                                             |.               |        execinstr: false 0x1630.5-0x1630.6 (0.1)
0x1630|00                                             |.               |        alloc: false 0x1630.6-0x1630.7 (0.1)
0x1630|00                                             |.               |        write: false 0x1630.7-0x1631 (0.1)
0x1630|   00                                          | .              |        tls: false 0x1631-0x1631.1 (0.1)
0x1630|   00                                          | .              |        group: false 0x1631.1-0x1631.2 (0.1)
0x1630|   00                                          | .              |        os_nonconforming: false 0x1631.2-0x1631.3 (0.1)
0x1630|   00 00                                       | ..             |        unused1: 0 0x1631.3-0x1632.4 (1.1)
0x1630|      00 00                                    |  ..            |        os_specific: 0 0x1632.4-0x1633.4 (1)
0x1630|         00                                    |   .            |        processor_specific: 0 0x1633.4-0x1634 (0.4)
0x1630|            00 00 00 00                        |    ....        |        unused2: 0 0x1634-0x1638 (4)
0x1630|                        00 00 00 00 00 00 00 00|        ........|      addr: 0x0 0x1638-0x1640 (8)
0x1640|39 10 00 00 00 00 00 00                        |9.......        |      offset: 0x1039 0x1640-0x1648 (8)
0x1640|                        ad 00 00 00 00 00 00 00|        ........|      size: 173 0x1648-0x1650 (8)
0x1650|00 00 00 00                                    |....            |      link: 0 0x1650-0x1654 (4)
0x1650|            00 00 00 00                        |    ....        |      info: 0 0x1654-0x1658 (4)
0x1650|                        01 00 00 00 00 00 00 00|        ........|      addralign: 1 0x1658-0x1660 (8)
0x1660|00 00 00 00 00 00 00 00|                       |........|       |      entsize: 0 0x1660-0x1668 (8)
0x0910|            00 00 00 00 00 00 00 00 00 00 00 00|    ............|  gap0: raw bits 0x914-0xd90 (1148)
0x0920|00 00 00 00 00 00 00 00 00 00 00 00 00 00 00 00|................|
*     |until 0xd8f.7 (1148)                           |                |
0x10e0|                  00 00                        |      ..        |  gap1: raw bits 0x10e6-0x10e8 (2)
