# convert -size 4x4 "xc:#000" 4x4.png
# pngcrush -ztxt a akeyword atext 4x4.png 4x4out.png
# mv 4x4out.png 4x4.png
/4x4.png:
$ fq -d png verbose /4x4.png
     |00 01 02 03 04 05 06 07 08 09 0a 0b 0c 0d 0e 0f|0123456789abcdef|.: {} /4x4.png (png) 0x0-0x125.7 (294)
0x000|89 50 4e 47 0d 0a 1a 0a                        |.PNG....        |  signature: "\x89PNG\r\n\x1a\n" (Correct) 0x0-0x7.7 (8)
     |                                               |                |  chunks: [10] 0x8-0x125.7 (286)
     |                                               |                |    [0]: chunk {} 0x8-0x20.7 (25)
0x000|                        00 00 00 0d            |        ....    |      length: 13 0x8-0xb.7 (4)
0x000|                                    49 48 44 52|            IHDR|      type: "IHDR" 0xc-0xf.7 (4)
0x000|                                    49         |            I   |      ancillary: false 0xc.3-0xc.3 (0.1)
0x000|                                       48      |             H  |      private: false 0xd.3-0xd.3 (0.1)
0x000|                                          44   |              D |      reserved: false 0xe.3-0xe.3 (0.1)
0x000|                                             52|               R|      safe_to_copy: true 0xf.3-0xf.3 (0.1)
0x010|00 00 00 04                                    |....            |      width: 4 0x10-0x13.7 (4)
0x010|            00 00 00 04                        |    ....        |      height: 4 0x14-0x17.7 (4)
0x010|                        01                     |        .       |      bit_depth: 1 0x18-0x18.7 (1)
0x010|                           00                  |         .      |      color_type: 0 0x19-0x19.7 (1)
0x010|                              00               |          .     |      compression_method: deflate (0) 0x1a-0x1a.7 (1)
0x010|                                 00            |           .    |      filter_method: Adaptive filtering (0) 0x1b-0x1b.7 (1)
0x010|                                    00         |            .   |      interlace_method: No interlace (0) 0x1c-0x1c.7 (1)
0x010|                                       81 8a a3|             ...|      crc: Correct (818aa3d3) 0x1d-0x20.7 (4)
0x020|d3                                             |.               |
     |                                               |                |    [1]: chunk {} 0x21-0x30.7 (16)
0x020|   00 00 00 04                                 | ....           |      length: 4 0x21-0x24.7 (4)
0x020|               67 41 4d 41                     |     gAMA       |      type: "gAMA" 0x25-0x28.7 (4)
0x020|               67                              |     g          |      ancillary: false 0x25.3-0x25.3 (0.1)
0x020|                  41                           |      A         |      private: false 0x26.3-0x26.3 (0.1)
0x020|                     4d                        |       M        |      reserved: false 0x27.3-0x27.3 (0.1)
0x020|                        41                     |        A       |      safe_to_copy: false 0x28.3-0x28.3 (0.1)
0x020|                           00 00 b1 8f         |         ....   |      value: 45455 0x29-0x2c.7 (4)
0x020|                                       0b fc 61|             ..a|      crc: Correct (0bfc6105) 0x2d-0x30.7 (4)
0x030|05                                             |.               |
     |                                               |                |    [2]: chunk {} 0x31-0x5c.7 (44)
0x030|   00 00 00 20                                 | ...            |      length: 32 0x31-0x34.7 (4)
0x030|               63 48 52 4d                     |     cHRM       |      type: "cHRM" 0x35-0x38.7 (4)
0x030|               63                              |     c          |      ancillary: false 0x35.3-0x35.3 (0.1)
0x030|                  48                           |      H         |      private: false 0x36.3-0x36.3 (0.1)
0x030|                     52                        |       R        |      reserved: true 0x37.3-0x37.3 (0.1)
0x030|                        4d                     |        M       |      safe_to_copy: false 0x38.3-0x38.3 (0.1)
0x030|                           00 00 7a 26         |         ..z&   |      white_point_x: 31.27 0x39-0x3c.7 (4)
0x030|                                       00 00 80|             ...|      white_point_y: 32.9 0x3d-0x40.7 (4)
0x040|84                                             |.               |
0x040|   00 00 fa 00                                 | ....           |      red_x: 64 0x41-0x44.7 (4)
0x040|               00 00 80 e8                     |     ....       |      red_y: 33 0x45-0x48.7 (4)
0x040|                           00 00 75 30         |         ..u0   |      green_x: 30 0x49-0x4c.7 (4)
0x040|                                       00 00 ea|             ...|      green_y: 60 0x4d-0x50.7 (4)
0x050|60                                             |`               |
0x050|   00 00 3a 98                                 | ..:.           |      blue_x: 15 0x51-0x54.7 (4)
0x050|               00 00 17 70                     |     ...p       |      blue_y: 6 0x55-0x58.7 (4)
0x050|                           9c ba 51 3c         |         ..Q<   |      crc: Correct (9cba513c) 0x59-0x5c.7 (4)
     |                                               |                |    [3]: chunk {} 0x5d-0x6a.7 (14)
0x050|                                       00 00 00|             ...|      length: 2 0x5d-0x60.7 (4)
0x060|02                                             |.               |
0x060|   62 4b 47 44                                 | bKGD           |      type: "bKGD" 0x61-0x64.7 (4)
0x060|   62                                          | b              |      ancillary: false 0x61.3-0x61.3 (0.1)
0x060|      4b                                       |  K             |      private: false 0x62.3-0x62.3 (0.1)
0x060|         47                                    |   G            |      reserved: false 0x63.3-0x63.3 (0.1)
0x060|            44                                 |    D           |      safe_to_copy: false 0x64.3-0x64.3 (0.1)
0x060|               00 01                           |     ..         |      value: 1 0x65-0x66.7 (2)
0x060|                     dd 8a 13 a4               |       ....     |      crc: Correct (dd8a13a4) 0x67-0x6a.7 (4)
     |                                               |                |    [4]: chunk {} 0x6b-0x7d.7 (19)
0x060|                                 00 00 00 07   |           .... |      length: 7 0x6b-0x6e.7 (4)
0x060|                                             74|               t|      type: "tIME" 0x6f-0x72.7 (4)
0x070|49 4d 45                                       |IME             |
0x060|                                             74|               t|      ancillary: true 0x6f.3-0x6f.3 (0.1)
0x070|49                                             |I               |      private: false 0x70.3-0x70.3 (0.1)
0x070|   4d                                          | M              |      reserved: false 0x71.3-0x71.3 (0.1)
0x070|      45                                       |  E             |      safe_to_copy: false 0x72.3-0x72.3 (0.1)
0x070|         07 e5 07 1c 08 36 09                  |   .....6.      |      data: 07e5071c083609 0x73-0x79.7 (7)
0x070|                              dc 61 6c cf      |          .al.  |      crc: Correct (dc616ccf) 0x7a-0x7d.7 (4)
     |                                               |                |    [5]: chunk {} 0x7e-0x94.7 (23)
0x070|                                          00 00|              ..|      length: 11 0x7e-0x81.7 (4)
0x080|00 0b                                          |..              |
0x080|      49 44 41 54                              |  IDAT          |      type: "IDAT" 0x82-0x85.7 (4)
0x080|      49                                       |  I             |      ancillary: false 0x82.3-0x82.3 (0.1)
0x080|         44                                    |   D            |      private: false 0x83.3-0x83.3 (0.1)
0x080|            41                                 |    A           |      reserved: false 0x84.3-0x84.3 (0.1)
0x080|               54                              |     T          |      safe_to_copy: true 0x85.3-0x85.3 (0.1)
0x080|                  08 5b 63 60 80 00 00 00 08 00|      .[c`......|      data: 085b636080000000080001 0x86-0x90.7 (11)
0x090|01                                             |.               |
0x090|   d3 19 34 be                                 | ..4.           |      crc: Correct (d31934be) 0x91-0x94.7 (4)
     |                                               |                |    [6]: chunk {} 0x95-0xc5.7 (49)
0x090|               00 00 00 25                     |     ...%       |      length: 37 0x95-0x98.7 (4)
0x090|                           74 45 58 74         |         tEXt   |      type: "tEXt" 0x99-0x9c.7 (4)
0x090|                           74                  |         t      |      ancillary: true 0x99.3-0x99.3 (0.1)
0x090|                              45               |          E     |      private: false 0x9a.3-0x9a.3 (0.1)
0x090|                                 58            |           X    |      reserved: true 0x9b.3-0x9b.3 (0.1)
0x090|                                    74         |            t   |      safe_to_copy: true 0x9c.3-0x9c.3 (0.1)
0x090|                                       64 61 74|             dat|      keyword: "date:create" 0x9d-0xa7.7 (11)
0x0a0|65 3a 63 72 65 61 74 65                        |e:create        |
0x0a0|                        00                     |        .       |      null: "\x00" 0xa8-0xa8.7 (1)
0x0a0|                           32 30 32 31 2d 30 37|         2021-07|      text: "2021-07-28T08:54:09+00:00" 0xa9-0xc1.7 (25)
0x0b0|2d 32 38 54 30 38 3a 35 34 3a 30 39 2b 30 30 3a|-28T08:54:09+00:|
0x0c0|30 30                                          |00              |
0x0c0|      41 82 1c 77                              |  A..w          |      crc: Correct (41821c77) 0xc2-0xc5.7 (4)
     |                                               |                |    [7]: chunk {} 0xc6-0xf6.7 (49)
0x0c0|                  00 00 00 25                  |      ...%      |      length: 37 0xc6-0xc9.7 (4)
0x0c0|                              74 45 58 74      |          tEXt  |      type: "tEXt" 0xca-0xcd.7 (4)
0x0c0|                              74               |          t     |      ancillary: true 0xca.3-0xca.3 (0.1)
0x0c0|                                 45            |           E    |      private: false 0xcb.3-0xcb.3 (0.1)
0x0c0|                                    58         |            X   |      reserved: true 0xcc.3-0xcc.3 (0.1)
0x0c0|                                       74      |             t  |      safe_to_copy: true 0xcd.3-0xcd.3 (0.1)
0x0c0|                                          64 61|              da|      keyword: "date:modify" 0xce-0xd8.7 (11)
0x0d0|74 65 3a 6d 6f 64 69 66 79                     |te:modify       |
0x0d0|                           00                  |         .      |      null: "\x00" 0xd9-0xd9.7 (1)
0x0d0|                              32 30 32 31 2d 30|          2021-0|      text: "2021-07-28T08:54:09+00:00" 0xda-0xf2.7 (25)
0x0e0|37 2d 32 38 54 30 38 3a 35 34 3a 30 39 2b 30 30|7-28T08:54:09+00|
0x0f0|3a 30 30                                       |:00             |
0x0f0|         30 df a4 cb                           |   0...         |      crc: Correct (30dfa4cb) 0xf3-0xf6.7 (4)
     |                                               |                |    [8]: chunk {} 0xf7-0x119.7 (35)
0x0f0|                     00 00 00 17               |       ....     |      length: 23 0xf7-0xfa.7 (4)
0x0f0|                                 7a 54 58 74   |           zTXt |      type: "zTXt" 0xfb-0xfe.7 (4)
0x0f0|                                 7a            |           z    |      ancillary: true 0xfb.3-0xfb.3 (0.1)
0x0f0|                                    54         |            T   |      private: true 0xfc.3-0xfc.3 (0.1)
0x0f0|                                       58      |             X  |      reserved: true 0xfd.3-0xfd.3 (0.1)
0x0f0|                                          74   |              t |      safe_to_copy: true 0xfe.3-0xfe.3 (0.1)
0x0f0|                                             61|               a|      keyword: "akeyword" 0xff-0x106.7 (8)
0x100|6b 65 79 77 6f 72 64                           |keyword         |
0x100|                     00                        |       .        |      null: "\x00" 0x107-0x107.7 (1)
0x100|                        00                     |        .       |      compression_method: deflate (0) 0x108-0x108.7 (1)
     |                                               |                |      data: {} 0x109-0x115.7 (13)
     |                                               |                |        uncompressed: {} () 0x0-0x4.7 (5)
 0x00|61 74 65 78 74|                                |atext|          |          text: "atext" 0x0-0x4.7 (5)
0x110|                  4c f5 a2 bc                  |      L...      |      crc: Correct (4cf5a2bc) 0x116-0x119.7 (4)
     |                                               |                |    [9]: chunk {} 0x11a-0x125.7 (12)
0x110|                              00 00 00 00      |          ....  |      length: 0 0x11a-0x11d.7 (4)
0x110|                                          49 45|              IE|      type: "IEND" 0x11e-0x121.7 (4)
0x120|4e 44                                          |ND              |
0x110|                                          49   |              I |      ancillary: false 0x11e.3-0x11e.3 (0.1)
0x110|                                             45|               E|      private: false 0x11f.3-0x11f.3 (0.1)
0x120|4e                                             |N               |      reserved: false 0x120.3-0x120.3 (0.1)
0x120|   44                                          | D              |      safe_to_copy: false 0x121.3-0x121.3 (0.1)
0x120|      ae 42 60 82|                             |  .B`.|         |      crc: Correct (ae426082) 0x122-0x125.7 (4)
0x100|                           08 99 4b 2c 49 ad 28|         ..K,I.(|  unknown0: 08994b2c49ad280100064d0227 0x109-0x115.7 (13)
0x110|01 00 06 4d 02 27                              |...M.'          |
