$ fq -d pg_heap -o flavour=pgproee11 ".[0].tuples[0,-1] | dv" 90153
      |00 01 02 03 04 05 06 07 08 09 0a 0b 0c 0d 0e 0f|0123456789abcdef|.[0].tuples[0]{}: tuple 0x11d8-0x1200 (40)
      |                                               |                |  header{}: 0x11d8-0x11f0 (24)
      |                                               |                |    t_choice{}: 0x11d8-0x11e4 (12)
      |                                               |                |      t_heap{}: 0x11d8-0x11e4 (12)
0x11d0|                        66 b2 02 00            |        f...    |        t_xmin: 176742 0x11d8-0x11dc (4)
0x11d0|                                    00 00 00 00|            ....|        t_xmax: 0 0x11dc-0x11e0 (4)
      |                                               |                |        t_field3{}: 0x11e0-0x11e4 (4)
0x11e0|01 00 00 00                                    |....            |          t_cid: 1 0x11e0-0x11e4 (4)
0x11e0|01 00 00 00                                    |....            |          t_xvac: 1 0x11e0-0x11e4 (4)
      |                                               |                |      t_datum{}: 0x11d8-0x11e4 (12)
0x11d0|                        66 b2 02 00            |        f...    |        datum_len_: 176742 0x11d8-0x11dc (4)
0x11d0|                                    00 00 00 00|            ....|        datum_typmod: 0 0x11dc-0x11e0 (4)
0x11e0|01 00 00 00                                    |....            |        datum_typeid: 1 0x11e0-0x11e4 (4)
      |                                               |                |    t_ctid{}: 0x11e4-0x11ea (6)
0x11e0|            00 00 00 00                        |    ....        |      ip_blkid: 0 0x11e4-0x11e8 (4)
0x11e0|                        04 00                  |        ..      |      ip_posid: 4 0x11e8-0x11ea (2)
0x11e0|                              04 80            |          ..    |    t_infomask2: 32772 0x11ea-0x11ec (2)
      |                                               |                |    infomask2{}: 0x11ec-0x11ec (0)
      |                                               |                |      heap_keys_updated: false
      |                                               |                |      heap_hot_updated: false
      |                                               |                |      heap_only_tuple: true
0x11e0|                                    01 29      |            .)  |    t_infomask: 10497 0x11ec-0x11ee (2)
      |                                               |                |    infomask{}: 0x11ee-0x11ee (0)
      |                                               |                |      heap_hasnull: true
      |                                               |                |      heap_hasvarwidth: false
      |                                               |                |      heap_hasexternal: false
      |                                               |                |      heap_hasoid_old: false
      |                                               |                |      heap_xmax_keyshr_lock: false
      |                                               |                |      heap_combocid: false
      |                                               |                |      heap_xmax_excl_lock: false
      |                                               |                |      heap_xmax_lock_only: false
      |                                               |                |      heap_xmax_shr_lock: false
      |                                               |                |      heap_lock_mask: false
      |                                               |                |      heap_xmin_committed: true
      |                                               |                |      heap_xmin_invalid: false
      |                                               |                |      heap_xmin_frozen: true
      |                                               |                |      heap_xmax_committed: false
      |                                               |                |      heap_xmax_invalid: true
      |                                               |                |      heap_xmax_is_multi: false
      |                                               |                |      heap_updated: true
      |                                               |                |      heap_moved_off: false
      |                                               |                |      heap_moved_in: false
      |                                               |                |      heap_moved: false
0x11e0|                                          18   |              . |    t_hoff: 24 0x11ee-0x11ef (1)
0x11e0|                                             07|               .|    padding0: 7 0x11ef-0x11f0 (1)
0x11f0|65 00 00 00 0b 00 00 00 4f f8 00 00            |e.......O...    |  data: "650000000b0000004ff80000" (raw bits) 0x11f0-0x11fc (12)
0x11f0|                                    00 00 00 00|            ....|  padding1: "00000000" (raw bits) 0x11fc-0x1200 (4)
      |00 01 02 03 04 05 06 07 08 09 0a 0b 0c 0d 0e 0f|0123456789abcdef|.[0].tuples[99]{}: tuple 0x1818-0x1840 (40)
      |                                               |                |  header{}: 0x1818-0x1830 (24)
      |                                               |                |    t_choice{}: 0x1818-0x1824 (12)
      |                                               |                |      t_heap{}: 0x1818-0x1824 (12)
0x1810|                        54 b0 02 00            |        T...    |        t_xmin: 176212 0x1818-0x181c (4)
0x1810|                                    00 00 00 00|            ....|        t_xmax: 0 0x181c-0x1820 (4)
      |                                               |                |        t_field3{}: 0x1820-0x1824 (4)
0x1820|01 00 00 00                                    |....            |          t_cid: 1 0x1820-0x1824 (4)
0x1820|01 00 00 00                                    |....            |          t_xvac: 1 0x1820-0x1824 (4)
      |                                               |                |      t_datum{}: 0x1818-0x1824 (12)
0x1810|                        54 b0 02 00            |        T...    |        datum_len_: 176212 0x1818-0x181c (4)
0x1810|                                    00 00 00 00|            ....|        datum_typmod: 0 0x181c-0x1820 (4)
0x1820|01 00 00 00                                    |....            |        datum_typeid: 1 0x1820-0x1824 (4)
      |                                               |                |    t_ctid{}: 0x1824-0x182a (6)
0x1820|            00 00 00 00                        |    ....        |      ip_blkid: 0 0x1824-0x1828 (4)
0x1820|                        fe 00                  |        ..      |      ip_posid: 254 0x1828-0x182a (2)
0x1820|                              04 80            |          ..    |    t_infomask2: 32772 0x182a-0x182c (2)
      |                                               |                |    infomask2{}: 0x182c-0x182c (0)
      |                                               |                |      heap_keys_updated: false
      |                                               |                |      heap_hot_updated: false
      |                                               |                |      heap_only_tuple: true
0x1820|                                    01 29      |            .)  |    t_infomask: 10497 0x182c-0x182e (2)
      |                                               |                |    infomask{}: 0x182e-0x182e (0)
      |                                               |                |      heap_hasnull: true
      |                                               |                |      heap_hasvarwidth: false
      |                                               |                |      heap_hasexternal: false
      |                                               |                |      heap_hasoid_old: false
      |                                               |                |      heap_xmax_keyshr_lock: false
      |                                               |                |      heap_combocid: false
      |                                               |                |      heap_xmax_excl_lock: false
      |                                               |                |      heap_xmax_lock_only: false
      |                                               |                |      heap_xmax_shr_lock: false
      |                                               |                |      heap_lock_mask: false
      |                                               |                |      heap_xmin_committed: true
      |                                               |                |      heap_xmin_invalid: false
      |                                               |                |      heap_xmin_frozen: true
      |                                               |                |      heap_xmax_committed: false
      |                                               |                |      heap_xmax_invalid: true
      |                                               |                |      heap_xmax_is_multi: false
      |                                               |                |      heap_updated: true
      |                                               |                |      heap_moved_off: false
      |                                               |                |      heap_moved_in: false
      |                                               |                |      heap_moved: false
0x1820|                                          18   |              . |    t_hoff: 24 0x182e-0x182f (1)
0x1820|                                             07|               .|    padding0: 7 0x182f-0x1830 (1)
0x1830|64 00 00 00 0a 00 00 00 41 59 00 00            |d.......AY..    |  data: "640000000a00000041590000" (raw bits) 0x1830-0x183c (12)
0x1830|                                    00 00 00 00|            ....|  padding1: "00000000" (raw bits) 0x183c-0x1840 (4)
