$ fq -d pg_heap -o flavour=pgproee11 ".[0].Tuples[0,-1] | dv" 90153
      |00 01 02 03 04 05 06 07 08 09 0a 0b 0c 0d 0e 0f|0123456789abcdef|.[0].Tuples[0]{}: HeapTupleHeaderData 0x11d8-0x11fb.7 (36)
      |                                               |                |  t_choice{}: 0x11d8-0x11e3.7 (12)
      |                                               |                |    t_heap{}: 0x11d8-0x11e3.7 (12)
0x11d0|                        66 b2 02 00            |        f...    |      t_xmin: "10015117002" (176742) 0x11d8-0x11db.7 (4)
0x11d0|                                    00 00 00 00|            ....|      t_xmax: 0 0x11dc-0x11df.7 (4)
      |                                               |                |      t_field3{}: 0x11e0-0x11e3.7 (4)
0x11e0|01 00 00 00                                    |....            |        t_cid: 1 0x11e0-0x11e3.7 (4)
0x11e0|01 00 00 00                                    |....            |        t_xvac: 1 0x11e0-0x11e3.7 (4)
      |                                               |                |    t_datum{}: 0x11d8-0x11e3.7 (12)
0x11d0|                        66 b2 02 00            |        f...    |      datum_len_: 176742 0x11d8-0x11db.7 (4)
0x11d0|                                    00 00 00 00|            ....|      datum_typmod: 0 0x11dc-0x11df.7 (4)
0x11e0|01 00 00 00                                    |....            |      datum_typeid: 1 0x11e0-0x11e3.7 (4)
      |                                               |                |  t_ctid{}: 0x11e4-0x11e9.7 (6)
0x11e0|            00 00 00 00                        |    ....        |    ip_blkid: 0 0x11e4-0x11e7.7 (4)
0x11e0|                        04 00                  |        ..      |    ip_posid: 4 0x11e8-0x11e9.7 (2)
0x11e0|                              04 80            |          ..    |  t_infomask2: 32772 0x11ea-0x11eb.7 (2)
      |                                               |                |  Infomask2{}: 0x11ea-0x11eb.7 (2)
0x11e0|                              04 80            |          ..    |    HEAP_KEYS_UPDATED: 0 0x11ea-0x11eb.7 (2)
0x11e0|                              04 80            |          ..    |    HEAP_HOT_UPDATED: 0 0x11ea-0x11eb.7 (2)
0x11e0|                              04 80            |          ..    |    HEAP_ONLY_TUPLE: 1 0x11ea-0x11eb.7 (2)
0x11e0|                                    01 29      |            .)  |  t_infomask: 10497 0x11ec-0x11ed.7 (2)
      |                                               |                |  Infomask{}: 0x11ec-0x11ed.7 (2)
0x11e0|                                    01 29      |            .)  |    HEAP_HASNULL: 1 0x11ec-0x11ed.7 (2)
0x11e0|                                    01 29      |            .)  |    HEAP_HASVARWIDTH: 0 0x11ec-0x11ed.7 (2)
0x11e0|                                    01 29      |            .)  |    HEAP_HASEXTERNAL: 0 0x11ec-0x11ed.7 (2)
0x11e0|                                    01 29      |            .)  |    HEAP_HASOID_OLD: 0 0x11ec-0x11ed.7 (2)
0x11e0|                                    01 29      |            .)  |    HEAP_XMAX_KEYSHR_LOCK: 0 0x11ec-0x11ed.7 (2)
0x11e0|                                    01 29      |            .)  |    HEAP_COMBOCID: 0 0x11ec-0x11ed.7 (2)
0x11e0|                                    01 29      |            .)  |    HEAP_XMAX_EXCL_LOCK: 0 0x11ec-0x11ed.7 (2)
0x11e0|                                    01 29      |            .)  |    HEAP_XMAX_LOCK_ONLY: 0 0x11ec-0x11ed.7 (2)
0x11e0|                                    01 29      |            .)  |    HEAP_XMAX_SHR_LOCK: 0 0x11ec-0x11ed.7 (2)
0x11e0|                                    01 29      |            .)  |    HEAP_LOCK_MASK: 0 0x11ec-0x11ed.7 (2)
0x11e0|                                    01 29      |            .)  |    HEAP_XMIN_COMMITTED: 1 0x11ec-0x11ed.7 (2)
0x11e0|                                    01 29      |            .)  |    HEAP_XMIN_INVALID: 0 0x11ec-0x11ed.7 (2)
0x11e0|                                    01 29      |            .)  |    HEAP_XMIN_FROZEN: 0 0x11ec-0x11ed.7 (2)
0x11e0|                                    01 29      |            .)  |    HEAP_XMAX_COMMITTED: 0 0x11ec-0x11ed.7 (2)
0x11e0|                                    01 29      |            .)  |    HEAP_XMAX_INVALID: 1 0x11ec-0x11ed.7 (2)
0x11e0|                                    01 29      |            .)  |    HEAP_XMAX_IS_MULTI: 0 0x11ec-0x11ed.7 (2)
0x11e0|                                    01 29      |            .)  |    HEAP_UPDATED: 1 0x11ec-0x11ed.7 (2)
0x11e0|                                    01 29      |            .)  |    HEAP_MOVED_OFF: 0 0x11ec-0x11ed.7 (2)
0x11e0|                                    01 29      |            .)  |    HEAP_MOVED_IN: 0 0x11ec-0x11ed.7 (2)
0x11e0|                                    01 29      |            .)  |    HEAP_MOVED: 0 0x11ec-0x11ed.7 (2)
0x11e0|                                          18   |              . |  t_hoff: 24 0x11ee-0x11ee.7 (1)
0x11e0|                                             07|               .|  padding0: 7 0x11ef-0x11ef.7 (1)
0x11f0|65 00 00 00 0b 00 00 00 4f f8 00 00            |e.......O...    |  t_bits: "650000000b0000004ff80000" (raw bits) 0x11f0-0x11fb.7 (12)
      |00 01 02 03 04 05 06 07 08 09 0a 0b 0c 0d 0e 0f|0123456789abcdef|.[0].Tuples[99]{}: HeapTupleHeaderData 0x1818-0x183b.7 (36)
      |                                               |                |  t_choice{}: 0x1818-0x1823.7 (12)
      |                                               |                |    t_heap{}: 0x1818-0x1823.7 (12)
0x1810|                        54 b0 02 00            |        T...    |      t_xmin: "10015116472" (176212) 0x1818-0x181b.7 (4)
0x1810|                                    00 00 00 00|            ....|      t_xmax: 0 0x181c-0x181f.7 (4)
      |                                               |                |      t_field3{}: 0x1820-0x1823.7 (4)
0x1820|01 00 00 00                                    |....            |        t_cid: 1 0x1820-0x1823.7 (4)
0x1820|01 00 00 00                                    |....            |        t_xvac: 1 0x1820-0x1823.7 (4)
      |                                               |                |    t_datum{}: 0x1818-0x1823.7 (12)
0x1810|                        54 b0 02 00            |        T...    |      datum_len_: 176212 0x1818-0x181b.7 (4)
0x1810|                                    00 00 00 00|            ....|      datum_typmod: 0 0x181c-0x181f.7 (4)
0x1820|01 00 00 00                                    |....            |      datum_typeid: 1 0x1820-0x1823.7 (4)
      |                                               |                |  t_ctid{}: 0x1824-0x1829.7 (6)
0x1820|            00 00 00 00                        |    ....        |    ip_blkid: 0 0x1824-0x1827.7 (4)
0x1820|                        fe 00                  |        ..      |    ip_posid: 254 0x1828-0x1829.7 (2)
0x1820|                              04 80            |          ..    |  t_infomask2: 32772 0x182a-0x182b.7 (2)
      |                                               |                |  Infomask2{}: 0x182a-0x182b.7 (2)
0x1820|                              04 80            |          ..    |    HEAP_KEYS_UPDATED: 0 0x182a-0x182b.7 (2)
0x1820|                              04 80            |          ..    |    HEAP_HOT_UPDATED: 0 0x182a-0x182b.7 (2)
0x1820|                              04 80            |          ..    |    HEAP_ONLY_TUPLE: 1 0x182a-0x182b.7 (2)
0x1820|                                    01 29      |            .)  |  t_infomask: 10497 0x182c-0x182d.7 (2)
      |                                               |                |  Infomask{}: 0x182c-0x182d.7 (2)
0x1820|                                    01 29      |            .)  |    HEAP_HASNULL: 1 0x182c-0x182d.7 (2)
0x1820|                                    01 29      |            .)  |    HEAP_HASVARWIDTH: 0 0x182c-0x182d.7 (2)
0x1820|                                    01 29      |            .)  |    HEAP_HASEXTERNAL: 0 0x182c-0x182d.7 (2)
0x1820|                                    01 29      |            .)  |    HEAP_HASOID_OLD: 0 0x182c-0x182d.7 (2)
0x1820|                                    01 29      |            .)  |    HEAP_XMAX_KEYSHR_LOCK: 0 0x182c-0x182d.7 (2)
0x1820|                                    01 29      |            .)  |    HEAP_COMBOCID: 0 0x182c-0x182d.7 (2)
0x1820|                                    01 29      |            .)  |    HEAP_XMAX_EXCL_LOCK: 0 0x182c-0x182d.7 (2)
0x1820|                                    01 29      |            .)  |    HEAP_XMAX_LOCK_ONLY: 0 0x182c-0x182d.7 (2)
0x1820|                                    01 29      |            .)  |    HEAP_XMAX_SHR_LOCK: 0 0x182c-0x182d.7 (2)
0x1820|                                    01 29      |            .)  |    HEAP_LOCK_MASK: 0 0x182c-0x182d.7 (2)
0x1820|                                    01 29      |            .)  |    HEAP_XMIN_COMMITTED: 1 0x182c-0x182d.7 (2)
0x1820|                                    01 29      |            .)  |    HEAP_XMIN_INVALID: 0 0x182c-0x182d.7 (2)
0x1820|                                    01 29      |            .)  |    HEAP_XMIN_FROZEN: 0 0x182c-0x182d.7 (2)
0x1820|                                    01 29      |            .)  |    HEAP_XMAX_COMMITTED: 0 0x182c-0x182d.7 (2)
0x1820|                                    01 29      |            .)  |    HEAP_XMAX_INVALID: 1 0x182c-0x182d.7 (2)
0x1820|                                    01 29      |            .)  |    HEAP_XMAX_IS_MULTI: 0 0x182c-0x182d.7 (2)
0x1820|                                    01 29      |            .)  |    HEAP_UPDATED: 1 0x182c-0x182d.7 (2)
0x1820|                                    01 29      |            .)  |    HEAP_MOVED_OFF: 0 0x182c-0x182d.7 (2)
0x1820|                                    01 29      |            .)  |    HEAP_MOVED_IN: 0 0x182c-0x182d.7 (2)
0x1820|                                    01 29      |            .)  |    HEAP_MOVED: 0 0x182c-0x182d.7 (2)
0x1820|                                          18   |              . |  t_hoff: 24 0x182e-0x182e.7 (1)
0x1820|                                             07|               .|  padding0: 7 0x182f-0x182f.7 (1)
0x1830|64 00 00 00 0a 00 00 00 41 59 00 00            |d.......AY..    |  t_bits: "640000000a00000041590000" (raw bits) 0x1830-0x183b.7 (12)
