$ fq -d pg_control -o flavour=pgproee11 dv pg_control
      |00 01 02 03 04 05 06 07 08 09 0a 0b 0c 0d 0e 0f|0123456789abcdef|.{}: pg_control (pg_control) 0x0-0x1fff.7 (8192)
0x0000|34 c9 ea 6a e6 00 bf 62                        |4..j...b        |  system_identifier: 7115406925904922932 0x0-0x7.7 (8)
0x0000|                        b0 04 45 50            |        ..EP    |  pg_control_version: "Postgres Pro Enterprise 1200" (1346700464) 0x8-0xb.7 (4)
0x0000|                                    1e 5d 07 0c|            .]..|  catalog_version_no: 201809182 0xc-0xf.7 (4)
0x0010|06 00 00 00                                    |....            |  state: "DB_IN_PRODUCTION" (6) 0x10-0x13.7 (4)
0x0010|            00 00 00 00                        |    ....        |  hole0: 0 0x14-0x17.7 (4)
0x0010|                        d8 f9 e8 62 00 00 00 00|        ...b....|  time: "Tue, 02 Aug 2022 10:18:00 UTC" (1659435480) 0x18-0x1f.7 (8)
0x0020|88 3a 35 00 04 00 00 00                        |.:5.....        |  check_point: "4/353A88" (17183357576) 0x20-0x27.7 (8)
      |                                               |                |  check_point_copy{}: 0x28-0x9f.7 (120)
0x0020|                        40 56 52 c8 03 00 00 00|        @VR.....|    redo: "3/C8525640" (16245741120) 0x28-0x2f.7 (8)
0x0030|01 00 00 00                                    |....            |    this_time_line_id: 1 0x30-0x33.7 (4)
0x0030|            01 00 00 00                        |    ....        |    prev_time_line_id: 1 0x34-0x37.7 (4)
0x0030|                        01                     |        .       |    full_page_writes: 1 0x38-0x38.7 (1)
0x0030|                           00 00 00 00 00 00 00|         .......|    hole1: 0 0x39-0x3f.7 (7)
0x0040|02 4f f2 54 02 00 00 00                        |.O.T....        |    next_xid: 10015100674 0x40-0x47.7 (8)
0x0040|                        00 80 01 00            |        ....    |    next_oid: 98304 0x48-0x4b.7 (4)
0x0040|                                    00 00 00 00|            ....|    hole2: 0 0x4c-0x4f.7 (4)
0x0050|00 f2 05 2a 01 00 00 00                        |...*....        |    next_multi: 5000000000 0x50-0x57.7 (8)
0x0050|                        00 00 00 00 00 00 00 00|        ........|    next_multi_offset: 0 0x58-0x5f.7 (8)
0x0060|3b e6 0b 54 02 00 00 00                        |;..T....        |    oldest_xid: 10000000571 0x60-0x67.7 (8)
0x0060|                        01 00 00 00            |        ....    |    oldest_xid_db: 1 0x68-0x6b.7 (4)
0x0060|                                    00 00 00 00|            ....|    hole3: 0 0x6c-0x6f.7 (4)
0x0070|00 f2 05 2a 01 00 00 00                        |...*....        |    oldest_multi: 5000000000 0x70-0x77.7 (8)
0x0070|                        01 00 00 00            |        ....    |    oldest_multi_db: 1 0x78-0x7b.7 (4)
0x0070|                                    00 00 00 00|            ....|    hole4: 0 0x7c-0x7f.7 (4)
0x0080|ca f8 e8 62 00 00 00 00                        |...b....        |    time: "Tue, 02 Aug 2022 10:13:30 UTC" (1659435210) 0x80-0x87.7 (8)
0x0080|                        00 00 00 00 00 00 00 00|        ........|    oldest_commit_ts_xid: 0 0x88-0x8f.7 (8)
0x0090|00 00 00 00 00 00 00 00                        |........        |    newest_commit_ts_xid: 0 0x90-0x97.7 (8)
0x0090|                        f8 4e f2 54 02 00 00 00|        .N.T....|    oldest_active_xid: 10015100664 0x98-0x9f.7 (8)
0x00a0|01 00 00 00 00 00 00 00                        |........        |  unlogged_lsn: "0/1" (1) 0xa0-0xa7.7 (8)
0x00a0|                        00 00 00 00 00 00 00 00|        ........|  min_recovery_point: "0/0" (0) 0xa8-0xaf.7 (8)
0x00b0|00 00 00 00                                    |....            |  min_recovery_point_tli: 0 0xb0-0xb3.7 (4)
0x00b0|            00 00 00 00                        |    ....        |  hole5: 0 0xb4-0xb7.7 (4)
0x00b0|                        00 00 00 00 00 00 00 00|        ........|  backup_start_point: "0/0" (0) 0xb8-0xbf.7 (8)
0x00c0|00 00 00 00 00 00 00 00                        |........        |  backup_end_point: "0/0" (0) 0xc0-0xc7.7 (8)
0x00c0|                        00                     |        .       |  backup_end_required: 0 0xc8-0xc8.7 (1)
0x00c0|                           00 00 00            |         ...    |  hole6: 0 0xc9-0xcb.7 (3)
0x00c0|                                    01 00 00 00|            ....|  wal_level: "WAL_LEVEL_REPLICA" (1) 0xcc-0xcf.7 (4)
0x00d0|00                                             |.               |  wal_log_hints: 0 0xd0-0xd0.7 (1)
0x00d0|   00 00 00                                    | ...            |  hole7: 0 0xd1-0xd3.7 (3)
0x00d0|            8b 01 00 00                        |    ....        |  max_connections: 395 0xd4-0xd7.7 (4)
0x00d0|                        08 00 00 00            |        ....    |  max_worker_processes: 8 0xd8-0xdb.7 (4)
0x00d0|                                    00 00 00 00|            ....|  max_prepared_xacts: 0 0xdc-0xdf.7 (4)
0x00e0|40 00 00 00                                    |@...            |  max_locks_per_xact: 64 0xe0-0xe3.7 (4)
0x00e0|            00                                 |    .           |  track_commit_timestamp: 0 0xe4-0xe4.7 (1)
0x00e0|               00 00 00                        |     ...        |  hole8: 0 0xe5-0xe7.7 (3)
0x00e0|                        08 00 00 00            |        ....    |  max_align: 8 0xe8-0xeb.7 (4)
0x00e0|                                    00 00 00 00|            ....|  hole9: 0 0xec-0xef.7 (4)
0x00f0|00 00 00 00 87 d6 32 41                        |......2A        |  float_format: 1.234567e+06 0xf0-0xf7.7 (8)
0x00f0|                        00 20 00 00            |        . ..    |  blcksz: 8192 0xf8-0xfb.7 (4)
0x00f0|                                    00 00 02 00|            ....|  relseg_size: 131072 0xfc-0xff.7 (4)
0x0100|00 20 00 00                                    |. ..            |  xlog_blcksz: 8192 0x100-0x103.7 (4)
0x0100|            00 00 00 01                        |    ....        |  xlog_seg_size: 16777216 0x104-0x107.7 (4)
0x0100|                        40 00 00 00            |        @...    |  name_data_len: 64 0x108-0x10b.7 (4)
0x0100|                                    20 00 00 00|             ...|  index_max_keys: 32 0x10c-0x10f.7 (4)
0x0110|cc 07 00 00                                    |....            |  toast_max_chunk_size: 1996 0x110-0x113.7 (4)
0x0110|            00 08 00 00                        |    ....        |  loblksize: 2048 0x114-0x117.7 (4)
0x0110|                        01                     |        .       |  float4_by_val: 1 0x118-0x118.7 (1)
0x0110|                           01                  |         .      |  float8_by_val: 1 0x119-0x119.7 (1)
0x0110|                              00 00            |          ..    |  hole10: 0 0x11a-0x11b.7 (2)
0x0110|                                    01 00 00 00|            ....|  data_checksum_version: 1 0x11c-0x11f.7 (4)
0x0120|4c 9a 5d 04 f1 83 24 46 3c 50 3e 7d 42 94 69 a7|L.]...$F<P>}B.i.|  mock_authentication_nonce: "4c9a5d04f18324463c503e7d429469a70fe34aacd9f4cb2..." (raw bits) 0x120-0x13f.7 (32)
0x0130|0f e3 4a ac d9 f4 cb 2a 42 d2 2b 5e 7c f0 1c c9|..J....*B.+^|...|
0x0140|32 02 00 00                                    |2...            |  icu_version: "50.2.0.0" (562) 0x140-0x143.7 (4)
0x0140|            00 00 ff ff                        |    ....        |  pg_old_version: 4294901760 0x144-0x147.7 (4)
0x0140|                        01 00 00 00            |        ....    |  oldest_snapshot: 1 0x148-0x14b.7 (4)
0x0140|                                    00 00 00 00|            ....|  recent_snapshot: 0 0x14c-0x14f.7 (4)
0x0150|00 00 00 00                                    |....            |  active_snapshot: 0 0x150-0x153.7 (4)
0x0150|            5d a0 25 99                        |    ].%.        |  crc: 2569379933 0x154-0x157.7 (4)
0x0150|                        00 00 00 00 00 00 00 00|        ........|  unused: raw bits 0x158-0x1fff.7 (7848)
0x0160|00 00 00 00 00 00 00 00 00 00 00 00 00 00 00 00|................|
*     |until 0x1fff.7 (end) (7848)                    |                |
