$ fq -d pg_heap -o flavour=pgpro15 ".[0].pd_linp[0, 1, 2, -1] | dv" 16400
    |00 01 02 03 04 05 06 07 08 09 0a 0b 0c 0d 0e 0f|0123456789abcdef|.[0].pd_linp[0]{}: item_id 0x18-0x1c (4)
0x10|                        80 9f f2 00            |        ....    |  item_id_data: 15900544 0x18-0x1c (4)
    |                                               |                |  lp_off: 8064
    |                                               |                |  lp_flags: "LP_NORMAL" (1)
    |                                               |                |  lp_len: 121
    |00 01 02 03 04 05 06 07 08 09 0a 0b 0c 0d 0e 0f|0123456789abcdef|.[0].pd_linp[1]{}: item_id 0x1c-0x20 (4)
0x10|                                    00 9f f2 00|            ....|  item_id_data: 15900416 0x1c-0x20 (4)
    |                                               |                |  lp_off: 7936
    |                                               |                |  lp_flags: "LP_NORMAL" (1)
    |                                               |                |  lp_len: 121
    |00 01 02 03 04 05 06 07 08 09 0a 0b 0c 0d 0e 0f|0123456789abcdef|.[0].pd_linp[2]{}: item_id 0x20-0x24 (4)
0x20|80 9e f2 00                                    |....            |  item_id_data: 15900288 0x20-0x24 (4)
    |                                               |                |  lp_off: 7808
    |                                               |                |  lp_flags: "LP_NORMAL" (1)
    |                                               |                |  lp_len: 121
     |00 01 02 03 04 05 06 07 08 09 0a 0b 0c 0d 0e 0f|0123456789abcdef|.[0].pd_linp[60]{}: item_id 0x108-0x10c (4)
0x100|                        80 81 f2 00            |        ....    |  item_id_data: 15892864 0x108-0x10c (4)
     |                                               |                |  lp_off: 384
     |                                               |                |  lp_flags: "LP_NORMAL" (1)
     |                                               |                |  lp_len: 121
