$ fq -d pg_heap -o flavour=pgpro15 ".[0].tuples[0,-1] | dv" 16401
      |00 01 02 03 04 05 06 07 08 09 0a 0b 0c 0d 0e 0f|0123456789abcdef|.[0].tuples[0]{}: tuple 0x1fe0-0x1fff.7 (32)
      |                                               |                |  header{}: 0x1fe0-0x1ff7.7 (24)
      |                                               |                |    t_choice{}: 0x1fe0-0x1feb.7 (12)
      |                                               |                |      t_heap{}: 0x1fe0-0x1feb.7 (12)
0x1fe0|ea 02 00 00                                    |....            |        t_xmin: 746 0x1fe0-0x1fe3.7 (4)
0x1fe0|            00 00 00 00                        |    ....        |        t_xmax: 0 0x1fe4-0x1fe7.7 (4)
      |                                               |                |        t_field3{}: 0x1fe8-0x1feb.7 (4)
0x1fe0|                        04 00 00 00            |        ....    |          t_cid: 4 0x1fe8-0x1feb.7 (4)
0x1fe0|                        04 00 00 00            |        ....    |          t_xvac: 4 0x1fe8-0x1feb.7 (4)
      |                                               |                |      t_datum{}: 0x1fe0-0x1feb.7 (12)
0x1fe0|ea 02 00 00                                    |....            |        datum_len_: 746 0x1fe0-0x1fe3.7 (4)
0x1fe0|            00 00 00 00                        |    ....        |        datum_typmod: 0 0x1fe4-0x1fe7.7 (4)
0x1fe0|                        04 00 00 00            |        ....    |        datum_typeid: 4 0x1fe8-0x1feb.7 (4)
      |                                               |                |    t_ctid{}: 0x1fec-0x1ff1.7 (6)
0x1fe0|                                    00 00 00 00|            ....|      ip_blkid: 0 0x1fec-0x1fef.7 (4)
0x1ff0|01 00                                          |..              |      ip_posid: 1 0x1ff0-0x1ff1.7 (2)
0x1ff0|      03 00                                    |  ..            |    t_infomask2: 3 0x1ff2-0x1ff3.7 (2)
      |                                               |                |    infomask2{}: 0x1ff4-NA (0)
      |                                               |                |      heap_keys_updated: false 0x1ff4-NA (0)
      |                                               |                |      heap_hot_updated: false 0x1ff4-NA (0)
      |                                               |                |      heap_only_tuple: false 0x1ff4-NA (0)
0x1ff0|            01 09                              |    ..          |    t_infomask: 2305 0x1ff4-0x1ff5.7 (2)
      |                                               |                |    infomask{}: 0x1ff6-NA (0)
      |                                               |                |      heap_hasnull: true 0x1ff6-NA (0)
      |                                               |                |      heap_hasvarwidth: false 0x1ff6-NA (0)
      |                                               |                |      heap_hasexternal: false 0x1ff6-NA (0)
      |                                               |                |      heap_hasoid_old: false 0x1ff6-NA (0)
      |                                               |                |      heap_xmax_keyshr_lock: false 0x1ff6-NA (0)
      |                                               |                |      heap_combocid: false 0x1ff6-NA (0)
      |                                               |                |      heap_xmax_excl_lock: false 0x1ff6-NA (0)
      |                                               |                |      heap_xmax_lock_only: false 0x1ff6-NA (0)
      |                                               |                |      heap_xmax_shr_lock: false 0x1ff6-NA (0)
      |                                               |                |      heap_lock_mask: false 0x1ff6-NA (0)
      |                                               |                |      heap_xmin_committed: true 0x1ff6-NA (0)
      |                                               |                |      heap_xmin_invalid: false 0x1ff6-NA (0)
      |                                               |                |      heap_xmin_frozen: true 0x1ff6-NA (0)
      |                                               |                |      heap_xmax_committed: false 0x1ff6-NA (0)
      |                                               |                |      heap_xmax_invalid: true 0x1ff6-NA (0)
      |                                               |                |      heap_xmax_is_multi: false 0x1ff6-NA (0)
      |                                               |                |      heap_updated: false 0x1ff6-NA (0)
      |                                               |                |      heap_moved_off: false 0x1ff6-NA (0)
      |                                               |                |      heap_moved_in: false 0x1ff6-NA (0)
      |                                               |                |      heap_moved: false 0x1ff6-NA (0)
0x1ff0|                  18                           |      .         |    t_hoff: 24 0x1ff6-0x1ff6.7 (1)
0x1ff0|                     03                        |       .        |    padding0: 3 0x1ff7-0x1ff7.7 (1)
0x1ff0|                        01 00 00 00 00 00 00 00|        ........|  data: "0100000000000000" (raw bits) 0x1ff8-0x1fff.7 (8)
      |00 01 02 03 04 05 06 07 08 09 0a 0b 0c 0d 0e 0f|0123456789abcdef|.[0].tuples[0]{}: tuple 0x1fe0-0x1fff.7 (32)
      |                                               |                |  header{}: 0x1fe0-0x1ff7.7 (24)
      |                                               |                |    t_choice{}: 0x1fe0-0x1feb.7 (12)
      |                                               |                |      t_heap{}: 0x1fe0-0x1feb.7 (12)
0x1fe0|ea 02 00 00                                    |....            |        t_xmin: 746 0x1fe0-0x1fe3.7 (4)
0x1fe0|            00 00 00 00                        |    ....        |        t_xmax: 0 0x1fe4-0x1fe7.7 (4)
      |                                               |                |        t_field3{}: 0x1fe8-0x1feb.7 (4)
0x1fe0|                        04 00 00 00            |        ....    |          t_cid: 4 0x1fe8-0x1feb.7 (4)
0x1fe0|                        04 00 00 00            |        ....    |          t_xvac: 4 0x1fe8-0x1feb.7 (4)
      |                                               |                |      t_datum{}: 0x1fe0-0x1feb.7 (12)
0x1fe0|ea 02 00 00                                    |....            |        datum_len_: 746 0x1fe0-0x1fe3.7 (4)
0x1fe0|            00 00 00 00                        |    ....        |        datum_typmod: 0 0x1fe4-0x1fe7.7 (4)
0x1fe0|                        04 00 00 00            |        ....    |        datum_typeid: 4 0x1fe8-0x1feb.7 (4)
      |                                               |                |    t_ctid{}: 0x1fec-0x1ff1.7 (6)
0x1fe0|                                    00 00 00 00|            ....|      ip_blkid: 0 0x1fec-0x1fef.7 (4)
0x1ff0|01 00                                          |..              |      ip_posid: 1 0x1ff0-0x1ff1.7 (2)
0x1ff0|      03 00                                    |  ..            |    t_infomask2: 3 0x1ff2-0x1ff3.7 (2)
      |                                               |                |    infomask2{}: 0x1ff4-NA (0)
      |                                               |                |      heap_keys_updated: false 0x1ff4-NA (0)
      |                                               |                |      heap_hot_updated: false 0x1ff4-NA (0)
      |                                               |                |      heap_only_tuple: false 0x1ff4-NA (0)
0x1ff0|            01 09                              |    ..          |    t_infomask: 2305 0x1ff4-0x1ff5.7 (2)
      |                                               |                |    infomask{}: 0x1ff6-NA (0)
      |                                               |                |      heap_hasnull: true 0x1ff6-NA (0)
      |                                               |                |      heap_hasvarwidth: false 0x1ff6-NA (0)
      |                                               |                |      heap_hasexternal: false 0x1ff6-NA (0)
      |                                               |                |      heap_hasoid_old: false 0x1ff6-NA (0)
      |                                               |                |      heap_xmax_keyshr_lock: false 0x1ff6-NA (0)
      |                                               |                |      heap_combocid: false 0x1ff6-NA (0)
      |                                               |                |      heap_xmax_excl_lock: false 0x1ff6-NA (0)
      |                                               |                |      heap_xmax_lock_only: false 0x1ff6-NA (0)
      |                                               |                |      heap_xmax_shr_lock: false 0x1ff6-NA (0)
      |                                               |                |      heap_lock_mask: false 0x1ff6-NA (0)
      |                                               |                |      heap_xmin_committed: true 0x1ff6-NA (0)
      |                                               |                |      heap_xmin_invalid: false 0x1ff6-NA (0)
      |                                               |                |      heap_xmin_frozen: true 0x1ff6-NA (0)
      |                                               |                |      heap_xmax_committed: false 0x1ff6-NA (0)
      |                                               |                |      heap_xmax_invalid: true 0x1ff6-NA (0)
      |                                               |                |      heap_xmax_is_multi: false 0x1ff6-NA (0)
      |                                               |                |      heap_updated: false 0x1ff6-NA (0)
      |                                               |                |      heap_moved_off: false 0x1ff6-NA (0)
      |                                               |                |      heap_moved_in: false 0x1ff6-NA (0)
      |                                               |                |      heap_moved: false 0x1ff6-NA (0)
0x1ff0|                  18                           |      .         |    t_hoff: 24 0x1ff6-0x1ff6.7 (1)
0x1ff0|                     03                        |       .        |    padding0: 3 0x1ff7-0x1ff7.7 (1)
0x1ff0|                        01 00 00 00 00 00 00 00|        ........|  data: "0100000000000000" (raw bits) 0x1ff8-0x1fff.7 (8)
