$ fq -d leveldb_ldb dv uncompressed.ldb/000005.ldb
     |00 01 02 03 04 05 06 07 08 09 0a 0b 0c 0d 0e 0f|0123456789abcdef|.{}: uncompressed.ldb/000005.ldb (leveldb_ldb) 0x0-0x65a (1626)
     |                                               |                |  data[0:1]: 0x0-0x601 (1537)
     |                                               |                |    [0]{}: data_block 0x0-0x601 (1537)
     |                                               |                |      uncompressed{}: 0x0-0x5fc (1532)
     |                                               |                |        entries[0:4]: 0x0-0x5f4 (1524)
     |                                               |                |          [0]{}: entry 0x0-0x1d4 (468)
0x000|00                                             |.               |            shared_bytes: 0 0x0-0x1 (1)
0x000|   13                                          | .              |            unshared_bytes: 19 0x1-0x2 (1)
0x000|      bd 03                                    |  ..            |            value_length: 445 0x2-0x4 (2)
     |                                               |                |            key_delta{}: 0x4-0x17 (19)
0x000|            6c 6f 72 65 6d 2e 64 6f 6c 6f 72   |    lorem.dolor |              user_key: "lorem.dolor" 0x4-0xf (11)
0x000|                                             01|               .|              type: "value" (0x1) 0xf-0x10 (1)
0x010|03 00 00 00 00 00 00                           |.......         |              sequence_number: 3 0x10-0x17 (7)
0x010|                     4c 6f 72 65 6d 20 69 70 73|       Lorem ips|            value: "Lorem ipsum dolor sit amet, consectetur adipisc..." 0x17-0x1d4 (445)
0x020|75 6d 20 64 6f 6c 6f 72 20 73 69 74 20 61 6d 65|um dolor sit ame|
*    |until 0x1d3.7 (445)                            |                |
     |                                               |                |          [1]{}: entry 0x1d4-0x3a2 (462)
0x1d0|            06                                 |    .           |            shared_bytes: 6 0x1d4-0x1d5 (1)
0x1d0|               0d                              |     .          |            unshared_bytes: 13 0x1d5-0x1d6 (1)
0x1d0|                  bd 03                        |      ..        |            value_length: 445 0x1d6-0x1d8 (2)
     |                                               |                |            key_delta{}: 0x1d8-0x1e5 (13)
0x1d0|                        69 70 73 75 6d         |        ipsum   |              user_key: "ipsum" 0x1d8-0x1dd (5)
0x1d0|                                       01      |             .  |              type: "value" (0x1) 0x1dd-0x1de (1)
0x1d0|                                          02 00|              ..|              sequence_number: 2 0x1de-0x1e5 (7)
0x1e0|00 00 00 00 00                                 |.....           |
0x1e0|               4c 6f 72 65 6d 20 69 70 73 75 6d|     Lorem ipsum|            value: "Lorem ipsum dolor sit amet, consectetur adipisc..." 0x1e5-0x3a2 (445)
0x1f0|20 64 6f 6c 6f 72 20 73 69 74 20 61 6d 65 74 2c| dolor sit amet,|
*    |until 0x3a1.7 (445)                            |                |
     |                                               |                |          [2]{}: entry 0x3a2-0x570 (462)
0x3a0|      06                                       |  .             |            shared_bytes: 6 0x3a2-0x3a3 (1)
0x3a0|         0d                                    |   .            |            unshared_bytes: 13 0x3a3-0x3a4 (1)
0x3a0|            bd 03                              |    ..          |            value_length: 445 0x3a4-0x3a6 (2)
     |                                               |                |            key_delta{}: 0x3a6-0x3b3 (13)
0x3a0|                  6c 6f 72 65 6d               |      lorem     |              user_key: "lorem" 0x3a6-0x3ab (5)
0x3a0|                                 01            |           .    |              type: "value" (0x1) 0x3ab-0x3ac (1)
0x3a0|                                    01 00 00 00|            ....|              sequence_number: 1 0x3ac-0x3b3 (7)
0x3b0|00 00 00                                       |...             |
0x3b0|         4c 6f 72 65 6d 20 69 70 73 75 6d 20 64|   Lorem ipsum d|            value: "Lorem ipsum dolor sit amet, consectetur adipisc..." 0x3b3-0x570 (445)
0x3c0|6f 6c 6f 72 20 73 69 74 20 61 6d 65 74 2c 20 63|olor sit amet, c|
*    |until 0x56f.7 (445)                            |                |
     |                                               |                |          [3]{}: entry 0x570-0x5f4 (132)
0x570|00                                             |.               |            shared_bytes: 0 0x570-0x571 (1)
0x570|   0b                                          | .              |            unshared_bytes: 11 0x571-0x572 (1)
0x570|      76                                       |  v             |            value_length: 118 0x572-0x573 (1)
     |                                               |                |            key_delta{}: 0x573-0x57e (11)
0x570|         72 6f 77                              |   row          |              user_key: "row" 0x573-0x576 (3)
0x570|                  01                           |      .         |              type: "value" (0x1) 0x576-0x577 (1)
0x570|                     04 00 00 00 00 00 00      |       .......  |              sequence_number: 4 0x577-0x57e (7)
0x570|                                          52 6f|              Ro|            value: "Row, row, row your boat\nGently down the stream...." 0x57e-0x5f4 (118)
0x580|77 2c 20 72 6f 77 2c 20 72 6f 77 20 79 6f 75 72|w, row, row your|
*    |until 0x5f3.7 (118)                            |                |
     |                                               |                |        trailer{}: 0x5f4-0x5fc (8)
     |                                               |                |          restarts[0:1]: 0x5f4-0x5f8 (4)
0x5f0|            00 00 00 00                        |    ....        |            [0]: 0 restart 0x5f4-0x5f8 (4)
0x5f0|                        01 00 00 00            |        ....    |          num_restarts: 1 0x5f8-0x5fc (4)
0x5f0|                                    00         |            .   |      compression: "none" (0x0) 0x5fc-0x5fd (1)
0x5f0|                                       6f 99 1d|             o..|      crc: 0xb31d996f (valid) 0x5fd-0x601 (4)
0x600|b3                                             |.               |
     |                                               |                |  metaindex{}: 0x601-0x60e (13)
     |                                               |                |    uncompressed{}: 0x601-0x609 (8)
     |                                               |                |      trailer{}: 0x601-0x609 (8)
     |                                               |                |        restarts[0:1]: 0x601-0x605 (4)
0x600|   00 00 00 00                                 | ....           |          [0]: 0 restart 0x601-0x605 (4)
0x600|               01 00 00 00                     |     ....       |        num_restarts: 1 0x605-0x609 (4)
0x600|                           00                  |         .      |    compression: "none" (0x0) 0x609-0x60a (1)
0x600|                              c0 f2 a1 b0      |          ....  |    crc: 0xb0a1f2c0 (valid) 0x60a-0x60e (4)
     |                                               |                |  index{}: 0x60e-0x62a (28)
     |                                               |                |    uncompressed{}: 0x60e-0x625 (23)
     |                                               |                |      entries[0:1]: 0x60e-0x61d (15)
     |                                               |                |        [0]{}: entry 0x60e-0x61d (15)
0x600|                                          00   |              . |          shared_bytes: 0 0x60e-0x60f (1)
0x600|                                             09|               .|          unshared_bytes: 9 0x60f-0x610 (1)
0x610|03                                             |.               |          value_length: 3 0x610-0x611 (1)
     |                                               |                |          key_delta{}: 0x611-0x61a (9)
0x610|   73                                          | s              |            user_key: "s" 0x611-0x612 (1)
0x610|      01                                       |  .             |            type: "value" (0x1) 0x612-0x613 (1)
0x610|         ff ff ff ff ff ff ff                  |   .......      |            sequence_number: 72057594037927935 0x613-0x61a (7)
     |                                               |                |          value{}: 0x61a-0x61d (3)
0x610|                              00               |          .     |            offset: 0 0x61a-0x61b (1)
0x610|                                 fc 0b         |           ..   |            size: 1532 0x61b-0x61d (2)
     |                                               |                |      trailer{}: 0x61d-0x625 (8)
     |                                               |                |        restarts[0:1]: 0x61d-0x621 (4)
0x610|                                       00 00 00|             ...|          [0]: 0 restart 0x61d-0x621 (4)
0x620|00                                             |.               |
0x620|   01 00 00 00                                 | ....           |        num_restarts: 1 0x621-0x625 (4)
0x620|               00                              |     .          |    compression: "none" (0x0) 0x625-0x626 (1)
0x620|                  68 e2 bf 46                  |      h..F      |    crc: 0x46bfe268 (valid) 0x626-0x62a (4)
     |                                               |                |  footer{}: 0x62a-0x65a (48)
     |                                               |                |    metaindex_handle{}: 0x62a-0x62d (3)
0x620|                              81 0c            |          ..    |      offset: 1537 0x62a-0x62c (2)
0x620|                                    08         |            .   |      size: 8 0x62c-0x62d (1)
     |                                               |                |    index_handle{}: 0x62d-0x630 (3)
0x620|                                       8e 0c   |             .. |      offset: 1550 0x62d-0x62f (2)
0x620|                                             17|               .|      size: 23 0x62f-0x630 (1)
0x630|00 00 00 00 00 00 00 00 00 00 00 00 00 00 00 00|................|    padding: raw bits 0x630-0x652 (34)
*    |until 0x651.7 (34)                             |                |
0x650|      57 fb 80 8b 24 75 47 db|                 |  W...$uG.|     |    magic_number: 0xdb4775248b80fb57 (valid) 0x652-0x65a (8)
