$ fq -d leveldb_table dv snappy.ldb/000005.ldb
       |00 01 02 03 04 05 06 07 08 09 0a 0b 0c 0d 0e 0f|0123456789abcdef|.{}: snappy.ldb/000005.ldb (leveldb_table) 0x0-0x2c4 (708)
       |                                               |                |  data[0:1]: 0x0-0x26b (619)
       |                                               |                |    [0]{}: data_block 0x0-0x26b (619)
       |00 01 02 03 04 05 06 07 08 09 0a 0b 0c 0d 0e 0f|0123456789abcdef|      uncompressed{}: 0x0-0x5fc (1532)
       |                                               |                |        entries[0:4]: 0x0-0x5f4 (1524)
       |                                               |                |          [0]{}: entry 0x0-0x1d4 (468)
  0x000|00                                             |.               |            shared_bytes: 0 0x0-0x1 (1)
  0x000|   13                                          | .              |            unshared_bytes: 19 0x1-0x2 (1)
  0x000|      bd 03                                    |  ..            |            value_length: 445 0x2-0x4 (2)
       |                                               |                |            key{}: 0x4-0x17 (19)
  0x000|            6c 6f 72 65 6d 2e 64 6f 6c 6f 72   |    lorem.dolor |              user_key: "lorem.dolor" 0x4-0xf (11)
  0x000|                                             01|               .|              type: "value" (0x1) 0xf-0x10 (1)
  0x001|03 00 00 00 00 00 00                           |.......         |              sequence_number: 3 0x10-0x17 (7)
  0x001|                     4c 6f 72 65 6d 20 69 70 73|       Lorem ips|            value: "Lorem ipsum dolor sit amet, consectetur adipiscing elit, sed do eiusmod tempor incididunt ut labore et dolore magna aliqua. Ut enim ad minim veniam, quis nostrud exercitation ullamco laboris nisi ut aliquip ex ea commodo consequat. Duis aute irure dolor in reprehenderit in voluptate velit esse cillum dolore eu fugiat nulla pariatur. Excepteur sint occaecat cupidatat non proident, sunt in culpa qui officia deserunt mollit anim id est laborum." 0x17-0x1d4 (445)
  0x002|75 6d 20 64 6f 6c 6f 72 20 73 69 74 20 61 6d 65|um dolor sit ame|
  *    |until 0x1d3.7 (445)                            |                |
       |                                               |                |          [1]{}: entry 0x1d4-0x3a2 (462)
  0x01d|            06                                 |    .           |            shared_bytes: 6 0x1d4-0x1d5 (1)
  0x01d|               0d                              |     .          |            unshared_bytes: 13 0x1d5-0x1d6 (1)
  0x01d|                  bd 03                        |      ..        |            value_length: 445 0x1d6-0x1d8 (2)
       |                                               |                |            key{}: 0x1d8-0x1e5 (13)
  0x01d|                        69 70 73 75 6d         |        ipsum   |              user_key_suffix: "ipsum" 0x1d8-0x1dd (5)
       |                                               |                |              user_key: "lorem.ipsum" (inferred)
  0x01d|                                       01      |             .  |              type: "value" (0x1) 0x1dd-0x1de (1)
  0x01d|                                          02 00|              ..|              sequence_number: 2 0x1de-0x1e5 (7)
  0x01e|00 00 00 00 00                                 |.....           |
  0x01e|               4c 6f 72 65 6d 20 69 70 73 75 6d|     Lorem ipsum|            value: "Lorem ipsum dolor sit amet, consectetur adipiscing elit, sed do eiusmod tempor incididunt ut labore et dolore magna aliqua. Ut enim ad minim veniam, quis nostrud exercitation ullamco laboris nisi ut aliquip ex ea commodo consequat. Duis aute irure dolor in reprehenderit in voluptate velit esse cillum dolore eu fugiat nulla pariatur. Excepteur sint occaecat cupidatat non proident, sunt in culpa qui officia deserunt mollit anim id est laborum." 0x1e5-0x3a2 (445)
  0x01f|20 64 6f 6c 6f 72 20 73 69 74 20 61 6d 65 74 2c| dolor sit amet,|
  *    |until 0x3a1.7 (445)                            |                |
       |                                               |                |          [2]{}: entry 0x3a2-0x570 (462)
  0x03a|      06                                       |  .             |            shared_bytes: 6 0x3a2-0x3a3 (1)
  0x03a|         0d                                    |   .            |            unshared_bytes: 13 0x3a3-0x3a4 (1)
  0x03a|            bd 03                              |    ..          |            value_length: 445 0x3a4-0x3a6 (2)
       |                                               |                |            key{}: 0x3a6-0x3b3 (13)
  0x03a|                  6c 6f 72 65 6d               |      lorem     |              user_key_suffix: "lorem" 0x3a6-0x3ab (5)
       |                                               |                |              user_key: "lorem.lorem" (inferred)
  0x03a|                                 01            |           .    |              type: "value" (0x1) 0x3ab-0x3ac (1)
  0x03a|                                    01 00 00 00|            ....|              sequence_number: 1 0x3ac-0x3b3 (7)
  0x03b|00 00 00                                       |...             |
  0x03b|         4c 6f 72 65 6d 20 69 70 73 75 6d 20 64|   Lorem ipsum d|            value: "Lorem ipsum dolor sit amet, consectetur adipiscing elit, sed do eiusmod tempor incididunt ut labore et dolore magna aliqua. Ut enim ad minim veniam, quis nostrud exercitation ullamco laboris nisi ut aliquip ex ea commodo consequat. Duis aute irure dolor in reprehenderit in voluptate velit esse cillum dolore eu fugiat nulla pariatur. Excepteur sint occaecat cupidatat non proident, sunt in culpa qui officia deserunt mollit anim id est laborum." 0x3b3-0x570 (445)
  0x03c|6f 6c 6f 72 20 73 69 74 20 61 6d 65 74 2c 20 63|olor sit amet, c|
  *    |until 0x56f.7 (445)                            |                |
       |                                               |                |          [3]{}: entry 0x570-0x5f4 (132)
  0x057|00                                             |.               |            shared_bytes: 0 0x570-0x571 (1)
  0x057|   0b                                          | .              |            unshared_bytes: 11 0x571-0x572 (1)
  0x057|      76                                       |  v             |            value_length: 118 0x572-0x573 (1)
       |                                               |                |            key{}: 0x573-0x57e (11)
  0x057|         72 6f 77                              |   row          |              user_key: "row" 0x573-0x576 (3)
  0x057|                  01                           |      .         |              type: "value" (0x1) 0x576-0x577 (1)
  0x057|                     04 00 00 00 00 00 00      |       .......  |              sequence_number: 4 0x577-0x57e (7)
  0x057|                                          52 6f|              Ro|            value: "Row, row, row your boat\nGently down the stream.\nMerrily, merrily, merrily, merrily,\nLife is but a dream. 🚣\u200d♂️" 0x57e-0x5f4 (118)
  0x058|77 2c 20 72 6f 77 2c 20 72 6f 77 20 79 6f 75 72|w, row, row your|
  *    |until 0x5f3.7 (118)                            |                |
       |                                               |                |        trailer{}: 0x5f4-0x5fc (8)
       |                                               |                |          restarts[0:1]: 0x5f4-0x5f8 (4)
  0x05f|            00 00 00 00                        |    ....        |            [0]: 0 restart 0x5f4-0x5f8 (4)
  0x05f|                        01 00 00 00|           |        ....|   |          num_restarts: 1 0x5f8-0x5fc (4)
0x00000|fc 0b 44 00 13 bd 03 6c 6f 72 65 6d 2e 64 6f 6c|..D....lorem.dol|      compressed: raw bits 0x0-0x266 (614)
*      |until 0x265.7 (614)                            |                |
0x00260|                  01                           |      .         |      compression: "snappy" (0x1) 0x266-0x267 (1)
0x00260|                     b6 9d 28 0d               |       ..(.     |      checksum: 0xd289db6 (valid) 0x267-0x26b (4)
       |                                               |                |  metaindex{}: 0x26b-0x278 (13)
       |                                               |                |    uncompressed{}: 0x26b-0x273 (8)
       |                                               |                |      trailer{}: 0x26b-0x273 (8)
       |                                               |                |        restarts[0:1]: 0x26b-0x26f (4)
0x00260|                                 00 00 00 00   |           .... |          [0]: 0 restart 0x26b-0x26f (4)
0x00260|                                             01|               .|        num_restarts: 1 0x26f-0x273 (4)
0x00270|00 00 00                                       |...             |
0x00270|         00                                    |   .            |    compression: "none" (0x0) 0x273-0x274 (1)
0x00270|            c0 f2 a1 b0                        |    ....        |    checksum: 0xb0a1f2c0 (valid) 0x274-0x278 (4)
       |                                               |                |  index{}: 0x278-0x294 (28)
       |                                               |                |    uncompressed{}: 0x278-0x28f (23)
       |                                               |                |      entries[0:1]: 0x278-0x287 (15)
       |                                               |                |        [0]{}: entry 0x278-0x287 (15)
0x00270|                        00                     |        .       |          shared_bytes: 0 0x278-0x279 (1)
0x00270|                           09                  |         .      |          unshared_bytes: 9 0x279-0x27a (1)
0x00270|                              03               |          .     |          value_length: 3 0x27a-0x27b (1)
       |                                               |                |          key{}: 0x27b-0x284 (9)
0x00270|                                 73            |           s    |            user_key: "s" 0x27b-0x27c (1)
0x00270|                                    01         |            .   |            type: "value" (0x1) 0x27c-0x27d (1)
0x00270|                                       ff ff ff|             ...|            sequence_number: 72057594037927935 0x27d-0x284 (7)
0x00280|ff ff ff ff                                    |....            |
       |                                               |                |          value{}: 0x284-0x287 (3)
0x00280|            00                                 |    .           |            offset: 0 0x284-0x285 (1)
0x00280|               e6 04                           |     ..         |            size: 614 0x285-0x287 (2)
       |                                               |                |      trailer{}: 0x287-0x28f (8)
       |                                               |                |        restarts[0:1]: 0x287-0x28b (4)
0x00280|                     00 00 00 00               |       ....     |          [0]: 0 restart 0x287-0x28b (4)
0x00280|                                 01 00 00 00   |           .... |        num_restarts: 1 0x28b-0x28f (4)
0x00280|                                             00|               .|    compression: "none" (0x0) 0x28f-0x290 (1)
0x00290|68 24 42 91                                    |h$B.            |    checksum: 0x91422468 (valid) 0x290-0x294 (4)
       |                                               |                |  footer{}: 0x294-0x2c4 (48)
       |                                               |                |    metaindex_handle{}: 0x294-0x297 (3)
0x00290|            eb 04                              |    ..          |      offset: 619 0x294-0x296 (2)
0x00290|                  08                           |      .         |      size: 8 0x296-0x297 (1)
       |                                               |                |    index_handle{}: 0x297-0x29a (3)
0x00290|                     f8 04                     |       ..       |      offset: 632 0x297-0x299 (2)
0x00290|                           17                  |         .      |      size: 23 0x299-0x29a (1)
0x00290|                              00 00 00 00 00 00|          ......|    padding: raw bits 0x29a-0x2bc (34)
0x002a0|00 00 00 00 00 00 00 00 00 00 00 00 00 00 00 00|................|
0x002b0|00 00 00 00 00 00 00 00 00 00 00 00            |............    |
0x002b0|                                    57 fb 80 8b|            W...|    magic_number: 0xdb4775248b80fb57 (valid) 0x2bc-0x2c4 (8)
0x002c0|24 75 47 db|                                   |$uG.|           |
