$ fq -d leveldb_descriptor dv uncompressed.ldb/MANIFEST-000004
    |00 01 02 03 04 05 06 07 08 09 0a 0b 0c 0d 0e 0f|0123456789abcdef|.{}: uncompressed.ldb/MANIFEST-000004 (leveldb_descriptor) 0x0-0x57 (87)
    |                                               |                |  blocks[0:1]: 0x0-0x57 (87)
    |                                               |                |    [0]{}: block 0x0-0x57 (87)
    |                                               |                |      records[0:2]: 0x0-0x57 (87)
    |                                               |                |        [0]{}: record 0x0-0x23 (35)
    |                                               |                |          header{}: 0x0-0x7 (7)
0x00|56 f9 b8 f8                                    |V...            |            checksum: 0xf8b8f956 (valid) 0x0-0x4 (4)
0x00|            1c 00                              |    ..          |            length: 28 0x4-0x6 (2)
0x00|                  01                           |      .         |            record_type: "full" (1) 0x6-0x7 (1)
    |                                               |                |          data{}: 0x7-0x23 (28)
    |                                               |                |            tags[0:1]: 0x7-0x23 (28)
    |                                               |                |              [0]{}: tag 0x7-0x23 (28)
0x00|                     01                        |       .        |                key: "comparator" (1) 0x7-0x8 (1)
    |                                               |                |                value{}: 0x8-0x23 (27)
0x00|                        1a                     |        .       |                  length: 26 0x8-0x9 (1)
0x00|                           6c 65 76 65 6c 64 62|         leveldb|                  data: "leveldb.BytewiseComparator" 0x9-0x23 (26)
0x10|2e 42 79 74 65 77 69 73 65 43 6f 6d 70 61 72 61|.BytewiseCompara|
0x20|74 6f 72                                       |tor             |
    |                                               |                |        [1]{}: record 0x23-0x57 (52)
    |                                               |                |          header{}: 0x23-0x2a (7)
0x20|         d2 53 ab 33                           |   .S.3         |            checksum: 0x33ab53d2 (valid) 0x23-0x27 (4)
0x20|                     2d 00                     |       -.       |            length: 45 0x27-0x29 (2)
0x20|                           01                  |         .      |            record_type: "full" (1) 0x29-0x2a (1)
    |                                               |                |          data{}: 0x2a-0x57 (45)
    |                                               |                |            tags[0:5]: 0x2a-0x57 (45)
    |                                               |                |              [0]{}: tag 0x2a-0x2c (2)
0x20|                              02               |          .     |                key: "log_number" (2) 0x2a-0x2b (1)
0x20|                                 06            |           .    |                value: 6 0x2b-0x2c (1)
    |                                               |                |              [1]{}: tag 0x2c-0x2e (2)
0x20|                                    09         |            .   |                key: "previous_log_number" (9) 0x2c-0x2d (1)
0x20|                                       00      |             .  |                value: 0 0x2d-0x2e (1)
    |                                               |                |              [2]{}: tag 0x2e-0x30 (2)
0x20|                                          03   |              . |                key: "next_file_number" (3) 0x2e-0x2f (1)
0x20|                                             07|               .|                value: 7 0x2f-0x30 (1)
    |                                               |                |              [3]{}: tag 0x30-0x32 (2)
0x30|04                                             |.               |                key: "last_sequence" (4) 0x30-0x31 (1)
0x30|   04                                          | .              |                value: 4 0x31-0x32 (1)
    |                                               |                |              [4]{}: tag 0x32-0x57 (37)
0x30|      07                                       |  .             |                key: "new_file" (7) 0x32-0x33 (1)
    |                                               |                |                value{}: 0x33-0x57 (36)
0x30|         00                                    |   .            |                  level: 0 0x33-0x34 (1)
0x30|            05                                 |    .           |                  file_number: 5 0x34-0x35 (1)
0x30|               da 0c                           |     ..         |                  file_size: 1626 0x35-0x37 (2)
    |                                               |                |                  smallest_internal_key{}: 0x37-0x4b (20)
0x30|                     13                        |       .        |                    length: 19 0x37-0x38 (1)
    |                                               |                |                    data{}: 0x38-0x4b (19)
0x30|                        6c 6f 72 65 6d 2e 64 6f|        lorem.do|                      user_key: "lorem.dolor" 0x38-0x43 (11)
0x40|6c 6f 72                                       |lor             |
0x40|         01                                    |   .            |                      type: "value" (0x1) 0x43-0x44 (1)
0x40|            03 00 00 00 00 00 00               |    .......     |                      sequence_number: 3 0x44-0x4b (7)
    |                                               |                |                  largest_internal_key{}: 0x4b-0x57 (12)
0x40|                                 0b            |           .    |                    length: 11 0x4b-0x4c (1)
    |                                               |                |                    data{}: 0x4c-0x57 (11)
0x40|                                    72 6f 77   |            row |                      user_key: "row" 0x4c-0x4f (3)
0x40|                                             01|               .|                      type: "value" (0x1) 0x4f-0x50 (1)
0x50|04 00 00 00 00 00 00|                          |.......|        |                      sequence_number: 4 0x50-0x57 (7)
